ARM GAS  C:\cygwin64\tmp\ccj83Web.s 			page 1


   1              		.syntax unified
   2              		.cpu cortex-m3
   3              		.fpu softvfp
   4              		.eabi_attribute 20, 1	@ Tag_ABI_FP_denormal
   5              		.eabi_attribute 21, 1	@ Tag_ABI_FP_exceptions
   6              		.eabi_attribute 23, 3	@ Tag_ABI_FP_number_model
   7              		.eabi_attribute 24, 1	@ Tag_ABI_align8_needed
   8              		.eabi_attribute 25, 1	@ Tag_ABI_align8_preserved
   9              		.eabi_attribute 26, 1	@ Tag_ABI_enum_size
  10              		.eabi_attribute 30, 2	@ Tag_ABI_optimization_goals
  11              		.eabi_attribute 34, 1	@ Tag_CPU_unaligned_access
  12              		.eabi_attribute 18, 4	@ Tag_ABI_PCS_wchar_t
  13              		.file	"commhandler.c"
  14              	@ GNU C (GNU Tools for ARM Embedded Processors) version 4.8.4 20140526 (release) [ARM/embedded-4_8-
  15              	@	compiled by GNU C version 4.6.4, GMP version 4.3.2, MPFR version 2.4.2, MPC version 0.8.1
  16              	@ GGC heuristics: --param ggc-min-expand=99 --param ggc-min-heapsize=131015
  17              	@ options passed:  -I . -I src -I Libraries -I Libraries/CMSIS/Include
  18              	@ -I Libraries/CMSIS/Device/ST/STM32F10x/Include
  19              	@ -I Libraries/STM32F10x_StdPeriph_Driver/inc
  20              	@ -I Libraries/STM32_USB-FS-Device_Driver/inc -I src/VCP/inc
  21              	@ -imultilib armv7-m
  22              	@ -iprefix c:\program files (x86)\gnu tools arm embedded\4.8 2014q2\bin\../lib/gcc/arm-none-eabi/4.
  23              	@ -isysroot c:\program files (x86)\gnu tools arm embedded\4.8 2014q2\bin\../arm-none-eabi
  24              	@ -MD out/commhandler.d -MF out/commhandler.d -MP -MQ out/commhandler.o
  25              	@ -D__USES_INITFINI__ -D STM32F10X_HD -D USE_STDPERIPH_DRIVER
  26              	@ src/commhandler.c -mcpu=cortex-m3 -mthumb
  27              	@ -auxbase-strip out/commhandler.o -O2 -Wall -Wstrict-prototypes -Wextra
  28              	@ -std=gnu99 -ffunction-sections -fdata-sections -fverbose-asm
  29              	@ -fsingle-precision-constant
  30              	@ options enabled:  -faggressive-loop-optimizations -fauto-inc-dec
  31              	@ -fbranch-count-reg -fcaller-saves -fcombine-stack-adjustments -fcommon
  32              	@ -fcompare-elim -fcprop-registers -fcrossjumping -fcse-follow-jumps
  33              	@ -fdata-sections -fdefer-pop -fdelete-null-pointer-checks -fdevirtualize
  34              	@ -fdwarf2-cfi-asm -fearly-inlining -feliminate-unused-debug-types
  35              	@ -fexpensive-optimizations -fforward-propagate -ffunction-cse
  36              	@ -ffunction-sections -fgcse -fgcse-lm -fgnu-runtime
  37              	@ -fguess-branch-probability -fhoist-adjacent-loads -fident -fif-conversion
  38              	@ -fif-conversion2 -findirect-inlining -finline -finline-atomics
  39              	@ -finline-functions-called-once -finline-small-functions -fipa-cp
  40              	@ -fipa-profile -fipa-pure-const -fipa-reference -fipa-sra
  41              	@ -fira-hoist-pressure -fira-share-save-slots -fira-share-spill-slots
  42              	@ -fivopts -fkeep-static-consts -fleading-underscore -fmath-errno
  43              	@ -fmerge-constants -fmerge-debug-strings -fmove-loop-invariants
  44              	@ -fomit-frame-pointer -foptimize-register-move -foptimize-sibling-calls
  45              	@ -foptimize-strlen -fpartial-inlining -fpeephole -fpeephole2
  46              	@ -fprefetch-loop-arrays -freg-struct-return -fregmove -freorder-blocks
  47              	@ -freorder-functions -frerun-cse-after-loop
  48              	@ -fsched-critical-path-heuristic -fsched-dep-count-heuristic
  49              	@ -fsched-group-heuristic -fsched-interblock -fsched-last-insn-heuristic
  50              	@ -fsched-pressure -fsched-rank-heuristic -fsched-spec
  51              	@ -fsched-spec-insn-heuristic -fsched-stalled-insns-dep -fschedule-insns
  52              	@ -fschedule-insns2 -fsection-anchors -fshow-column -fshrink-wrap
  53              	@ -fsigned-zeros -fsingle-precision-constant -fsplit-ivs-in-unroller
  54              	@ -fsplit-wide-types -fstrict-aliasing -fstrict-overflow
  55              	@ -fstrict-volatile-bitfields -fsync-libcalls -fthread-jumps
  56              	@ -ftoplevel-reorder -ftrapping-math -ftree-bit-ccp -ftree-builtin-call-dce
  57              	@ -ftree-ccp -ftree-ch -ftree-coalesce-vars -ftree-copy-prop
ARM GAS  C:\cygwin64\tmp\ccj83Web.s 			page 2


  58              	@ -ftree-copyrename -ftree-cselim -ftree-dce -ftree-dominator-opts
  59              	@ -ftree-dse -ftree-forwprop -ftree-fre -ftree-loop-if-convert
  60              	@ -ftree-loop-im -ftree-loop-ivcanon -ftree-loop-optimize
  61              	@ -ftree-parallelize-loops= -ftree-phiprop -ftree-pre -ftree-pta
  62              	@ -ftree-reassoc -ftree-scev-cprop -ftree-sink -ftree-slp-vectorize
  63              	@ -ftree-slsr -ftree-sra -ftree-switch-conversion -ftree-tail-merge
  64              	@ -ftree-ter -ftree-vect-loop-version -ftree-vrp -funit-at-a-time
  65              	@ -fverbose-asm -fzero-initialized-in-bss -mfix-cortex-m3-ldrd
  66              	@ -mlittle-endian -mpic-data-is-text-relative -msched-prolog -mthumb
  67              	@ -munaligned-access -mvectorize-with-neon-quad
  68              	
  69              		.global	__aeabi_i2f
  70              		.global	__aeabi_fmul
  71              		.global	__aeabi_fadd
  72              		.global	__aeabi_f2iz
  73              		.global	__aeabi_fcmpge
  74              		.global	__aeabi_fcmple
  75              		.section	.text.CommHandler,"ax",%progbits
  76              		.align	2
  77              		.global	CommHandler
  78              		.thumb
  79              		.thumb_func
  80              		.type	CommHandler, %function
  81              	CommHandler:
  82              		@ args = 0, pretend = 0, frame = 0
  83              		@ frame_needed = 0, uses_anonymous_args = 0
  84 0000 2DE9F041 		push	{r4, r5, r6, r7, r8, lr}	@
  85 0004 FFF7FEFF 		bl	GetChar	@
  86 0008 041E     		subs	r4, r0, #0	@ c,
  87 000a 03DB     		blt	.L1	@,
  88 000c FFF7FEFF 		bl	LEDon	@
  89 0010 242C     		cmp	r4, #36	@ c,
  90 0012 01D0     		beq	.L38	@,
  91              	.L1:
  92 0014 BDE8F081 		pop	{r4, r5, r6, r7, r8, pc}	@
  93              	.L38:
  94 0018 FFF7FEFF 		bl	CharAvailable	@
  95 001c 0928     		cmp	r0, #9	@,
  96 001e 1ADD     		ble	.L5	@,
  97 0020 0027     		movs	r7, #0	@ tmp3,
  98 0022 0125     		movs	r5, #1	@ ivtmp.5,
  99 0024 B846     		mov	r8, r7	@ tmp2, tmp3
 100 0026 3E46     		mov	r6, r7	@ tmp1, tmp3
 101 0028 0024     		movs	r4, #0	@ ivtmp.4,
 102              	.L6:
 103 002a FFF7FEFF 		bl	GetChar	@
 104 002e 3038     		subs	r0, r0, #48	@,,
 105 0030 FFF7FEFF 		bl	__aeabi_i2f	@
 106 0034 022C     		cmp	r4, #2	@ ivtmp.4,
 107 0036 0146     		mov	r1, r0	@ tmp130,
 108 0038 12DD     		ble	.L39	@,
 109 003a E31E     		subs	r3, r4, #3	@ D.7207, ivtmp.4,
 110 003c 022B     		cmp	r3, #2	@ D.7207,
 111 003e 25D9     		bls	.L40	@,
 112 0040 092C     		cmp	r4, #9	@ ivtmp.4,
 113 0042 54D1     		bne	.L41	@,
 114 0044 FFF7FEFF 		bl	__aeabi_f2iz	@
ARM GAS  C:\cygwin64\tmp\ccj83Web.s 			page 3


 115 0048 0B28     		cmp	r0, #11	@,
 116 004a 28D0     		beq	.L42	@,
 117              	.L11:
 118 004c 0A2D     		cmp	r5, #10	@ ivtmp.5,
 119 004e 10D0     		beq	.L43	@,
 120              	.L26:
 121 0050 0134     		adds	r4, r4, #1	@ ivtmp.4, ivtmp.4,
 122 0052 0135     		adds	r5, r5, #1	@ ivtmp.5, ivtmp.5,
 123 0054 E9E7     		b	.L6	@
 124              	.L5:
 125 0056 2046     		mov	r0, r4	@, c
 126 0058 BDE8F041 		pop	{r4, r5, r6, r7, r8, lr}	@
 127 005c FFF7FEBF 		b	UnGetChar	@
 128              	.L39:
 129 0060 4CB1     		cbz	r4, .L44	@ ivtmp.4,
 130 0062 012C     		cmp	r4, #1	@ ivtmp.4,
 131 0064 10D0     		beq	.L45	@,
 132 0066 3046     		mov	r0, r6	@, tmp1
 133 0068 FFF7FEFF 		bl	__aeabi_fadd	@
 134 006c 0A2D     		cmp	r5, #10	@ ivtmp.5,
 135 006e 0646     		mov	r6, r0	@ tmp1,
 136 0070 EED1     		bne	.L26	@,
 137              	.L43:
 138 0072 BDE8F081 		pop	{r4, r5, r6, r7, r8, pc}	@
 139              	.L44:
 140 0076 2D49     		ldr	r1, .L50	@,
 141              	.L35:
 142 0078 FFF7FEFF 		bl	__aeabi_fmul	@
 143 007c 0146     		mov	r1, r0	@ D.7208,
 144 007e 3046     		mov	r0, r6	@, tmp1
 145 0080 FFF7FEFF 		bl	__aeabi_fadd	@
 146 0084 0646     		mov	r6, r0	@ tmp1,
 147 0086 E3E7     		b	.L26	@
 148              	.L45:
 149 0088 2949     		ldr	r1, .L50+4	@,
 150 008a F5E7     		b	.L35	@
 151              	.L40:
 152 008c 032C     		cmp	r4, #3	@ ivtmp.4,
 153 008e 40D0     		beq	.L46	@,
 154 0090 042C     		cmp	r4, #4	@ ivtmp.4,
 155 0092 35D0     		beq	.L47	@,
 156 0094 4046     		mov	r0, r8	@, tmp2
 157 0096 FFF7FEFF 		bl	__aeabi_fadd	@
 158 009a 8046     		mov	r8, r0	@ tmp2,
 159 009c D6E7     		b	.L11	@
 160              	.L42:
 161 009e 3046     		mov	r0, r6	@, tmp1
 162 00a0 2449     		ldr	r1, .L50+8	@,
 163 00a2 FFF7FEFF 		bl	__aeabi_fcmpge	@
 164 00a6 30B1     		cbz	r0, .L18	@,
 165 00a8 3046     		mov	r0, r6	@, tmp1
 166 00aa 2349     		ldr	r1, .L50+12	@,
 167 00ac FFF7FEFF 		bl	__aeabi_fcmple	@
 168 00b0 08B1     		cbz	r0, .L18	@,
 169 00b2 224B     		ldr	r3, .L50+16	@ tmp152,
 170 00b4 5E60     		str	r6, [r3, #4]	@ float	@ tmp1, LakituAngles
 171              	.L18:
ARM GAS  C:\cygwin64\tmp\ccj83Web.s 			page 4


 172 00b6 4046     		mov	r0, r8	@, tmp2
 173 00b8 0021     		movs	r1, #0	@,
 174 00ba FFF7FEFF 		bl	__aeabi_fcmpge	@
 175 00be 38B1     		cbz	r0, .L21	@,
 176 00c0 4046     		mov	r0, r8	@, tmp2
 177 00c2 1F49     		ldr	r1, .L50+20	@,
 178 00c4 FFF7FEFF 		bl	__aeabi_fcmple	@
 179 00c8 10B1     		cbz	r0, .L21	@,
 180 00ca 1C4B     		ldr	r3, .L50+16	@ tmp157,
 181 00cc C3F80080 		str	r8, [r3]	@ float	@ tmp2, LakituAngles
 182              	.L21:
 183 00d0 3846     		mov	r0, r7	@, tmp3
 184 00d2 0021     		movs	r1, #0	@,
 185 00d4 FFF7FEFF 		bl	__aeabi_fcmpge	@
 186 00d8 0028     		cmp	r0, #0	@
 187 00da B7D0     		beq	.L11	@
 188 00dc 3846     		mov	r0, r7	@, tmp3
 189 00de 1949     		ldr	r1, .L50+24	@,
 190 00e0 FFF7FEFF 		bl	__aeabi_fcmple	@
 191 00e4 0028     		cmp	r0, #0	@
 192 00e6 B1D0     		beq	.L11	@
 193 00e8 144B     		ldr	r3, .L50+16	@ tmp162,
 194 00ea 9F60     		str	r7, [r3, #8]	@ float	@ tmp3, LakituAngles
 195 00ec AEE7     		b	.L11	@
 196              	.L41:
 197 00ee 062C     		cmp	r4, #6	@ ivtmp.4,
 198 00f0 1AD0     		beq	.L48	@,
 199 00f2 072C     		cmp	r4, #7	@ ivtmp.4,
 200 00f4 0FD0     		beq	.L49	@,
 201 00f6 3846     		mov	r0, r7	@, tmp3
 202 00f8 FFF7FEFF 		bl	__aeabi_fadd	@
 203 00fc 0746     		mov	r7, r0	@ tmp3,
 204 00fe A5E7     		b	.L11	@
 205              	.L47:
 206 0100 0B49     		ldr	r1, .L50+4	@,
 207              	.L36:
 208 0102 FFF7FEFF 		bl	__aeabi_fmul	@
 209 0106 0146     		mov	r1, r0	@ D.7208,
 210 0108 4046     		mov	r0, r8	@, tmp2
 211 010a FFF7FEFF 		bl	__aeabi_fadd	@
 212 010e 8046     		mov	r8, r0	@ tmp2,
 213 0110 9EE7     		b	.L26	@
 214              	.L46:
 215 0112 0649     		ldr	r1, .L50	@,
 216 0114 F5E7     		b	.L36	@
 217              	.L49:
 218 0116 0649     		ldr	r1, .L50+4	@,
 219              	.L34:
 220 0118 FFF7FEFF 		bl	__aeabi_fmul	@
 221 011c 0146     		mov	r1, r0	@ D.7208,
 222 011e 3846     		mov	r0, r7	@, tmp3
 223 0120 FFF7FEFF 		bl	__aeabi_fadd	@
 224 0124 0746     		mov	r7, r0	@ tmp3,
 225 0126 93E7     		b	.L26	@
 226              	.L48:
 227 0128 0049     		ldr	r1, .L50	@,
 228 012a F5E7     		b	.L34	@
ARM GAS  C:\cygwin64\tmp\ccj83Web.s 			page 5


 229              	.L51:
 230              		.align	2
 231              	.L50:
 232 012c 0000C842 		.word	1120403456
 233 0130 00002041 		.word	1092616192
 234 0134 0000F041 		.word	1106247680
 235 0138 00000C43 		.word	1124859904
 236 013c 00000000 		.word	LakituAngles
 237 0140 00003443 		.word	1127481344
 238 0144 0000B443 		.word	1135869952
 239              		.size	CommHandler, .-CommHandler
 240              		.comm	ConfigMode,4,4
 241              		.ident	"GCC: (GNU Tools for ARM Embedded Processors) 4.8.4 20140526 (release) [ARM/embedded-4_8-br
ARM GAS  C:\cygwin64\tmp\ccj83Web.s 			page 6


DEFINED SYMBOLS
                            *ABS*:00000000 commhandler.c
C:\cygwin64\tmp\ccj83Web.s:76     .text.CommHandler:00000000 $t
C:\cygwin64\tmp\ccj83Web.s:81     .text.CommHandler:00000000 CommHandler
C:\cygwin64\tmp\ccj83Web.s:232    .text.CommHandler:0000012c $d
                            *COM*:00000004 ConfigMode

UNDEFINED SYMBOLS
__aeabi_i2f
__aeabi_fmul
__aeabi_fadd
__aeabi_f2iz
__aeabi_fcmpge
__aeabi_fcmple
GetChar
LEDon
CharAvailable
UnGetChar
LakituAngles
