ARM GAS  C:\cygwin64\tmp\cc2nsY31.s 			page 1


   1              		.syntax unified
   2              		.cpu cortex-m3
   3              		.fpu softvfp
   4              		.eabi_attribute 20, 1	@ Tag_ABI_FP_denormal
   5              		.eabi_attribute 21, 1	@ Tag_ABI_FP_exceptions
   6              		.eabi_attribute 23, 3	@ Tag_ABI_FP_number_model
   7              		.eabi_attribute 24, 1	@ Tag_ABI_align8_needed
   8              		.eabi_attribute 25, 1	@ Tag_ABI_align8_preserved
   9              		.eabi_attribute 26, 1	@ Tag_ABI_enum_size
  10              		.eabi_attribute 30, 2	@ Tag_ABI_optimization_goals
  11              		.eabi_attribute 34, 1	@ Tag_CPU_unaligned_access
  12              		.eabi_attribute 18, 4	@ Tag_ABI_PCS_wchar_t
  13              		.file	"engine.c"
  14              	@ GNU C (GNU Tools for ARM Embedded Processors) version 4.8.4 20140526 (release) [ARM/embedded-4_8-
  15              	@	compiled by GNU C version 4.6.4, GMP version 4.3.2, MPFR version 2.4.2, MPC version 0.8.1
  16              	@ GGC heuristics: --param ggc-min-expand=99 --param ggc-min-heapsize=131015
  17              	@ options passed:  -I . -I src -I Libraries -I Libraries/CMSIS/Include
  18              	@ -I Libraries/CMSIS/Device/ST/STM32F10x/Include
  19              	@ -I Libraries/STM32F10x_StdPeriph_Driver/inc
  20              	@ -I Libraries/STM32_USB-FS-Device_Driver/inc -I src/VCP/inc
  21              	@ -imultilib armv7-m
  22              	@ -iprefix c:\program files (x86)\gnu tools arm embedded\4.8 2014q2\bin\../lib/gcc/arm-none-eabi/4.
  23              	@ -isysroot c:\program files (x86)\gnu tools arm embedded\4.8 2014q2\bin\../arm-none-eabi
  24              	@ -MD out/engine.d -MF out/engine.d -MP -MQ out/engine.o
  25              	@ -D__USES_INITFINI__ -D STM32F10X_HD -D USE_STDPERIPH_DRIVER src/engine.c
  26              	@ -mcpu=cortex-m3 -mthumb -auxbase-strip out/engine.o -O2 -Wall
  27              	@ -Wstrict-prototypes -Wextra -std=gnu99 -ffunction-sections
  28              	@ -fdata-sections -fverbose-asm -fsingle-precision-constant
  29              	@ options enabled:  -faggressive-loop-optimizations -fauto-inc-dec
  30              	@ -fbranch-count-reg -fcaller-saves -fcombine-stack-adjustments -fcommon
  31              	@ -fcompare-elim -fcprop-registers -fcrossjumping -fcse-follow-jumps
  32              	@ -fdata-sections -fdefer-pop -fdelete-null-pointer-checks -fdevirtualize
  33              	@ -fdwarf2-cfi-asm -fearly-inlining -feliminate-unused-debug-types
  34              	@ -fexpensive-optimizations -fforward-propagate -ffunction-cse
  35              	@ -ffunction-sections -fgcse -fgcse-lm -fgnu-runtime
  36              	@ -fguess-branch-probability -fhoist-adjacent-loads -fident -fif-conversion
  37              	@ -fif-conversion2 -findirect-inlining -finline -finline-atomics
  38              	@ -finline-functions-called-once -finline-small-functions -fipa-cp
  39              	@ -fipa-profile -fipa-pure-const -fipa-reference -fipa-sra
  40              	@ -fira-hoist-pressure -fira-share-save-slots -fira-share-spill-slots
  41              	@ -fivopts -fkeep-static-consts -fleading-underscore -fmath-errno
  42              	@ -fmerge-constants -fmerge-debug-strings -fmove-loop-invariants
  43              	@ -fomit-frame-pointer -foptimize-register-move -foptimize-sibling-calls
  44              	@ -foptimize-strlen -fpartial-inlining -fpeephole -fpeephole2
  45              	@ -fprefetch-loop-arrays -freg-struct-return -fregmove -freorder-blocks
  46              	@ -freorder-functions -frerun-cse-after-loop
  47              	@ -fsched-critical-path-heuristic -fsched-dep-count-heuristic
  48              	@ -fsched-group-heuristic -fsched-interblock -fsched-last-insn-heuristic
  49              	@ -fsched-pressure -fsched-rank-heuristic -fsched-spec
  50              	@ -fsched-spec-insn-heuristic -fsched-stalled-insns-dep -fschedule-insns
  51              	@ -fschedule-insns2 -fsection-anchors -fshow-column -fshrink-wrap
  52              	@ -fsigned-zeros -fsingle-precision-constant -fsplit-ivs-in-unroller
  53              	@ -fsplit-wide-types -fstrict-aliasing -fstrict-overflow
  54              	@ -fstrict-volatile-bitfields -fsync-libcalls -fthread-jumps
  55              	@ -ftoplevel-reorder -ftrapping-math -ftree-bit-ccp -ftree-builtin-call-dce
  56              	@ -ftree-ccp -ftree-ch -ftree-coalesce-vars -ftree-copy-prop
  57              	@ -ftree-copyrename -ftree-cselim -ftree-dce -ftree-dominator-opts
ARM GAS  C:\cygwin64\tmp\cc2nsY31.s 			page 2


  58              	@ -ftree-dse -ftree-forwprop -ftree-fre -ftree-loop-if-convert
  59              	@ -ftree-loop-im -ftree-loop-ivcanon -ftree-loop-optimize
  60              	@ -ftree-parallelize-loops= -ftree-phiprop -ftree-pre -ftree-pta
  61              	@ -ftree-reassoc -ftree-scev-cprop -ftree-sink -ftree-slp-vectorize
  62              	@ -ftree-slsr -ftree-sra -ftree-switch-conversion -ftree-tail-merge
  63              	@ -ftree-ter -ftree-vect-loop-version -ftree-vrp -funit-at-a-time
  64              	@ -fverbose-asm -fzero-initialized-in-bss -mfix-cortex-m3-ldrd
  65              	@ -mlittle-endian -mpic-data-is-text-relative -msched-prolog -mthumb
  66              	@ -munaligned-access -mvectorize-with-neon-quad
  67              	
  68              		.global	__aeabi_fmul
  69              		.global	__aeabi_fadd
  70              		.global	__aeabi_ui2f
  71              		.global	__aeabi_fdiv
  72              		.global	__aeabi_fsub
  73              		.section	.text.roll_PID,"ax",%progbits
  74              		.align	2
  75              		.global	roll_PID
  76              		.thumb
  77              		.thumb_func
  78              		.type	roll_PID, %function
  79              	roll_PID:
  80              		@ args = 0, pretend = 0, frame = 0
  81              		@ frame_needed = 0, uses_anonymous_args = 0
  82 0000 184B     		ldr	r3, .L2	@ tmp127,
  83 0002 2DE9F041 		push	{r4, r5, r6, r7, r8, lr}	@
  84 0006 1868     		ldr	r0, [r3]	@ float	@, CameraOrient
  85 0008 1749     		ldr	r1, .L2+4	@,
  86 000a FFF7FEFF 		bl	__aeabi_fmul	@
  87 000e 174B     		ldr	r3, .L2+8	@ tmp129,
  88 0010 174C     		ldr	r4, .L2+12	@ tmp131,
  89 0012 1968     		ldr	r1, [r3]	@ float	@, roll_setpoint
  90 0014 FFF7FEFF 		bl	__aeabi_fadd	@
  91 0018 0546     		mov	r5, r0	@ tmp130,
  92 001a 6078     		ldrb	r0, [r4, #1]	@ zero_extendqisi2	@, configData
  93 001c FFF7FEFF 		bl	__aeabi_ui2f	@
  94 0020 1149     		ldr	r1, .L2+4	@,
  95 0022 FFF7FEFF 		bl	__aeabi_fdiv	@
  96 0026 2946     		mov	r1, r5	@, tmp130
  97 0028 FFF7FEFF 		bl	__aeabi_fmul	@
  98 002c 0746     		mov	r7, r0	@ tmp135,
  99 002e 2079     		ldrb	r0, [r4, #4]	@ zero_extendqisi2	@, configData
 100 0030 FFF7FEFF 		bl	__aeabi_ui2f	@
 101 0034 0F49     		ldr	r1, .L2+16	@,
 102 0036 FFF7FEFF 		bl	__aeabi_fdiv	@
 103 003a 0F4E     		ldr	r6, .L2+20	@ tmp140,
 104 003c 8046     		mov	r8, r0	@ D.5423,
 105 003e 3168     		ldr	r1, [r6]	@ float	@, roll_Error_last
 106 0040 2846     		mov	r0, r5	@, tmp130
 107 0042 FFF7FEFF 		bl	__aeabi_fsub	@
 108 0046 0146     		mov	r1, r0	@ D.5423,
 109 0048 4046     		mov	r0, r8	@, D.5423
 110 004a FFF7FEFF 		bl	__aeabi_fmul	@
 111 004e 3946     		mov	r1, r7	@, tmp135
 112 0050 3560     		str	r5, [r6]	@ float	@ tmp130, roll_Error_last
 113 0052 FFF7FEFF 		bl	__aeabi_fadd	@
 114 0056 094B     		ldr	r3, .L2+24	@ tmp145,
ARM GAS  C:\cygwin64\tmp\cc2nsY31.s 			page 3


 115 0058 E179     		ldrb	r1, [r4, #7]	@ zero_extendqisi2	@, configData
 116 005a BDE8F041 		pop	{r4, r5, r6, r7, r8, lr}	@
 117 005e 1860     		str	r0, [r3]	@ float	@, Output
 118 0060 FFF7FEBF 		b	SetRollMotor	@
 119              	.L3:
 120              		.align	2
 121              	.L2:
 122 0064 00000000 		.word	CameraOrient
 123 0068 00007A44 		.word	1148846080
 124 006c 00000000 		.word	.LANCHOR0
 125 0070 00000000 		.word	configData
 126 0074 0000C842 		.word	1120403456
 127 0078 00000000 		.word	.LANCHOR1
 128 007c 00000000 		.word	Output
 129              		.size	roll_PID, .-roll_PID
 130              		.section	.text.pitch_PID,"ax",%progbits
 131              		.align	2
 132              		.global	pitch_PID
 133              		.thumb
 134              		.thumb_func
 135              		.type	pitch_PID, %function
 136              	pitch_PID:
 137              		@ args = 0, pretend = 0, frame = 0
 138              		@ frame_needed = 0, uses_anonymous_args = 0
 139 0000 184B     		ldr	r3, .L5	@ tmp127,
 140 0002 2DE9F041 		push	{r4, r5, r6, r7, r8, lr}	@
 141 0006 5868     		ldr	r0, [r3, #4]	@ float	@, CameraOrient
 142 0008 1749     		ldr	r1, .L5+4	@,
 143 000a FFF7FEFF 		bl	__aeabi_fmul	@
 144 000e 174B     		ldr	r3, .L5+8	@ tmp129,
 145 0010 174C     		ldr	r4, .L5+12	@ tmp131,
 146 0012 1968     		ldr	r1, [r3]	@ float	@, pitch_setpoint
 147 0014 FFF7FEFF 		bl	__aeabi_fadd	@
 148 0018 0546     		mov	r5, r0	@ tmp130,
 149 001a 2078     		ldrb	r0, [r4]	@ zero_extendqisi2	@, configData
 150 001c FFF7FEFF 		bl	__aeabi_ui2f	@
 151 0020 1149     		ldr	r1, .L5+4	@,
 152 0022 FFF7FEFF 		bl	__aeabi_fdiv	@
 153 0026 2946     		mov	r1, r5	@, tmp130
 154 0028 FFF7FEFF 		bl	__aeabi_fmul	@
 155 002c 0746     		mov	r7, r0	@ tmp135,
 156 002e E078     		ldrb	r0, [r4, #3]	@ zero_extendqisi2	@, configData
 157 0030 FFF7FEFF 		bl	__aeabi_ui2f	@
 158 0034 0F49     		ldr	r1, .L5+16	@,
 159 0036 FFF7FEFF 		bl	__aeabi_fdiv	@
 160 003a 0F4E     		ldr	r6, .L5+20	@ tmp140,
 161 003c 8046     		mov	r8, r0	@ D.5428,
 162 003e 3168     		ldr	r1, [r6]	@ float	@, pitch_Error_last
 163 0040 2846     		mov	r0, r5	@, tmp130
 164 0042 FFF7FEFF 		bl	__aeabi_fsub	@
 165 0046 0146     		mov	r1, r0	@ D.5428,
 166 0048 4046     		mov	r0, r8	@, D.5428
 167 004a FFF7FEFF 		bl	__aeabi_fmul	@
 168 004e 3946     		mov	r1, r7	@, tmp135
 169 0050 3560     		str	r5, [r6]	@ float	@ tmp130, pitch_Error_last
 170 0052 FFF7FEFF 		bl	__aeabi_fadd	@
 171 0056 094B     		ldr	r3, .L5+24	@ tmp145,
ARM GAS  C:\cygwin64\tmp\cc2nsY31.s 			page 4


 172 0058 A179     		ldrb	r1, [r4, #6]	@ zero_extendqisi2	@, configData
 173 005a BDE8F041 		pop	{r4, r5, r6, r7, r8, lr}	@
 174 005e 5860     		str	r0, [r3, #4]	@ float	@, Output
 175 0060 FFF7FEBF 		b	SetPitchMotor	@
 176              	.L6:
 177              		.align	2
 178              	.L5:
 179 0064 00000000 		.word	CameraOrient
 180 0068 00007A44 		.word	1148846080
 181 006c 00000000 		.word	.LANCHOR2
 182 0070 00000000 		.word	configData
 183 0074 0000C842 		.word	1120403456
 184 0078 00000000 		.word	.LANCHOR3
 185 007c 00000000 		.word	Output
 186              		.size	pitch_PID, .-pitch_PID
 187              		.section	.text.yaw_PID,"ax",%progbits
 188              		.align	2
 189              		.global	yaw_PID
 190              		.thumb
 191              		.thumb_func
 192              		.type	yaw_PID, %function
 193              	yaw_PID:
 194              		@ args = 0, pretend = 0, frame = 0
 195              		@ frame_needed = 0, uses_anonymous_args = 0
 196 0000 184B     		ldr	r3, .L8	@ tmp127,
 197 0002 2DE9F041 		push	{r4, r5, r6, r7, r8, lr}	@
 198 0006 9868     		ldr	r0, [r3, #8]	@ float	@, CameraOrient
 199 0008 1749     		ldr	r1, .L8+4	@,
 200 000a FFF7FEFF 		bl	__aeabi_fmul	@
 201 000e 174B     		ldr	r3, .L8+8	@ tmp129,
 202 0010 174C     		ldr	r4, .L8+12	@ tmp131,
 203 0012 1968     		ldr	r1, [r3]	@ float	@, yaw_setpoint
 204 0014 FFF7FEFF 		bl	__aeabi_fadd	@
 205 0018 0546     		mov	r5, r0	@ tmp130,
 206 001a A078     		ldrb	r0, [r4, #2]	@ zero_extendqisi2	@, configData
 207 001c FFF7FEFF 		bl	__aeabi_ui2f	@
 208 0020 1149     		ldr	r1, .L8+4	@,
 209 0022 FFF7FEFF 		bl	__aeabi_fdiv	@
 210 0026 2946     		mov	r1, r5	@, tmp130
 211 0028 FFF7FEFF 		bl	__aeabi_fmul	@
 212 002c 0746     		mov	r7, r0	@ tmp135,
 213 002e 6079     		ldrb	r0, [r4, #5]	@ zero_extendqisi2	@, configData
 214 0030 FFF7FEFF 		bl	__aeabi_ui2f	@
 215 0034 0F49     		ldr	r1, .L8+16	@,
 216 0036 FFF7FEFF 		bl	__aeabi_fdiv	@
 217 003a 0F4E     		ldr	r6, .L8+20	@ tmp140,
 218 003c 8046     		mov	r8, r0	@ D.5433,
 219 003e 3168     		ldr	r1, [r6]	@ float	@, yaw_Error_last
 220 0040 2846     		mov	r0, r5	@, tmp130
 221 0042 FFF7FEFF 		bl	__aeabi_fsub	@
 222 0046 0146     		mov	r1, r0	@ D.5433,
 223 0048 4046     		mov	r0, r8	@, D.5433
 224 004a FFF7FEFF 		bl	__aeabi_fmul	@
 225 004e 3946     		mov	r1, r7	@, tmp135
 226 0050 3560     		str	r5, [r6]	@ float	@ tmp130, yaw_Error_last
 227 0052 FFF7FEFF 		bl	__aeabi_fadd	@
 228 0056 094B     		ldr	r3, .L8+24	@ tmp145,
ARM GAS  C:\cygwin64\tmp\cc2nsY31.s 			page 5


 229 0058 217A     		ldrb	r1, [r4, #8]	@ zero_extendqisi2	@, configData
 230 005a BDE8F041 		pop	{r4, r5, r6, r7, r8, lr}	@
 231 005e 9860     		str	r0, [r3, #8]	@ float	@, Output
 232 0060 FFF7FEBF 		b	SetYawMotor	@
 233              	.L9:
 234              		.align	2
 235              	.L8:
 236 0064 00000000 		.word	CameraOrient
 237 0068 00007A44 		.word	1148846080
 238 006c 00000000 		.word	.LANCHOR4
 239 0070 00000000 		.word	configData
 240 0074 0000C842 		.word	1120403456
 241 0078 00000000 		.word	.LANCHOR5
 242 007c 00000000 		.word	Output
 243              		.size	yaw_PID, .-yaw_PID
 244              		.global	__aeabi_fcmplt
 245              		.global	__aeabi_fcmpgt
 246              		.section	.text.constrain,"ax",%progbits
 247              		.align	2
 248              		.global	constrain
 249              		.thumb
 250              		.thumb_func
 251              		.type	constrain, %function
 252              	constrain:
 253              		@ args = 0, pretend = 0, frame = 0
 254              		@ frame_needed = 0, uses_anonymous_args = 0
 255 0000 70B5     		push	{r4, r5, r6, lr}	@
 256 0002 1546     		mov	r5, r2	@ high, high
 257 0004 0446     		mov	r4, r0	@ value, value
 258 0006 0E46     		mov	r6, r1	@ low, low
 259 0008 FFF7FEFF 		bl	__aeabi_fcmplt	@
 260 000c 40B9     		cbnz	r0, .L13	@,
 261 000e 2046     		mov	r0, r4	@, value
 262 0010 2946     		mov	r1, r5	@, high
 263 0012 FFF7FEFF 		bl	__aeabi_fcmpgt	@
 264 0016 08B9     		cbnz	r0, .L18	@,
 265 0018 2046     		mov	r0, r4	@ D.5438, value
 266 001a 70BD     		pop	{r4, r5, r6, pc}	@
 267              	.L18:
 268 001c 2846     		mov	r0, r5	@ D.5438, high
 269 001e 70BD     		pop	{r4, r5, r6, pc}	@
 270              	.L13:
 271 0020 3046     		mov	r0, r6	@ D.5438, low
 272 0022 70BD     		pop	{r4, r5, r6, pc}	@
 273              		.size	constrain, .-constrain
 274              		.section	.text.Limit_Pitch,"ax",%progbits
 275              		.align	2
 276              		.global	Limit_Pitch
 277              		.thumb
 278              		.thumb_func
 279              		.type	Limit_Pitch, %function
 280              	Limit_Pitch:
 281              		@ args = 0, pretend = 0, frame = 0
 282              		@ frame_needed = 0, uses_anonymous_args = 0
 283 0000 38B5     		push	{r3, r4, r5, lr}	@
 284 0002 0D46     		mov	r5, r1	@ pitch, pitch
 285 0004 0446     		mov	r4, r0	@ step, step
ARM GAS  C:\cygwin64\tmp\cc2nsY31.s 			page 6


 286 0006 0D49     		ldr	r1, .L29	@,
 287 0008 2846     		mov	r0, r5	@, pitch
 288 000a FFF7FEFF 		bl	__aeabi_fcmplt	@
 289 000e 38B1     		cbz	r0, .L20	@,
 290 0010 2046     		mov	r0, r4	@, step
 291 0012 0021     		movs	r1, #0	@,
 292 0014 FFF7FEFF 		bl	__aeabi_fcmpgt	@
 293 0018 10B1     		cbz	r0, .L20	@,
 294              	.L25:
 295 001a 0024     		movs	r4, #0	@ step,
 296              	.L22:
 297 001c 2046     		mov	r0, r4	@, step
 298 001e 38BD     		pop	{r3, r4, r5, pc}	@
 299              	.L20:
 300 0020 2846     		mov	r0, r5	@, pitch
 301 0022 0749     		ldr	r1, .L29+4	@,
 302 0024 FFF7FEFF 		bl	__aeabi_fcmpgt	@
 303 0028 0028     		cmp	r0, #0	@
 304 002a F7D0     		beq	.L22	@
 305 002c 2046     		mov	r0, r4	@, step
 306 002e 0021     		movs	r1, #0	@,
 307 0030 FFF7FEFF 		bl	__aeabi_fcmplt	@
 308 0034 0028     		cmp	r0, #0	@
 309 0036 F0D1     		bne	.L25	@
 310 0038 2046     		mov	r0, r4	@, step
 311 003a 38BD     		pop	{r3, r4, r5, pc}	@
 312              	.L30:
 313              		.align	2
 314              	.L29:
 315 003c F1665FBF 		.word	-1084266767
 316 0040 D90FC93F 		.word	1070141401
 317              		.size	Limit_Pitch, .-Limit_Pitch
 318              		.section	.text.Init_Orientation,"ax",%progbits
 319              		.align	2
 320              		.global	Init_Orientation
 321              		.thumb
 322              		.thumb_func
 323              		.type	Init_Orientation, %function
 324              	Init_Orientation:
 325              		@ args = 0, pretend = 0, frame = 0
 326              		@ frame_needed = 0, uses_anonymous_args = 0
 327 0000 2DE9F84F 		push	{r3, r4, r5, r6, r7, r8, r9, r10, fp, lr}	@
 328 0004 2B4D     		ldr	r5, .L37	@ tmp222,
 329 0006 2C4C     		ldr	r4, .L37+4	@ tmp219,
 330 0008 9626     		movs	r6, #150	@ D.5487,
 331              	.L33:
 332 000a 2A48     		ldr	r0, .L37	@,
 333 000c FFF7FEFF 		bl	MPU6050_ACC_get	@
 334 0010 A968     		ldr	r1, [r5, #8]	@ float	@, AccData
 335 0012 2868     		ldr	r0, [r5]	@ float	@, AccData
 336 0014 FFF7FEFF 		bl	atan2f	@
 337 0018 A968     		ldr	r1, [r5, #8]	@ float	@, AccData
 338 001a 8046     		mov	r8, r0	@ D.5488,
 339 001c 6868     		ldr	r0, [r5, #4]	@ float	@, AccData
 340 001e FFF7FEFF 		bl	atan2f	@
 341 0022 2649     		ldr	r1, .L37+8	@,
 342 0024 0746     		mov	r7, r0	@ D.5488,
ARM GAS  C:\cygwin64\tmp\cc2nsY31.s 			page 7


 343 0026 2068     		ldr	r0, [r4]	@ float	@, AccAngleSmooth
 344 0028 FFF7FEFF 		bl	__aeabi_fmul	@
 345 002c 4146     		mov	r1, r8	@, D.5488
 346 002e FFF7FEFF 		bl	__aeabi_fsub	@
 347 0032 2349     		ldr	r1, .L37+12	@,
 348 0034 FFF7FEFF 		bl	__aeabi_fdiv	@
 349 0038 2049     		ldr	r1, .L37+8	@,
 350 003a 2060     		str	r0, [r4]	@ float	@, AccAngleSmooth
 351 003c 6068     		ldr	r0, [r4, #4]	@ float	@, AccAngleSmooth
 352 003e FFF7FEFF 		bl	__aeabi_fmul	@
 353 0042 0146     		mov	r1, r0	@ D.5488,
 354 0044 3846     		mov	r0, r7	@, D.5488
 355 0046 FFF7FEFF 		bl	__aeabi_fadd	@
 356 004a 1D49     		ldr	r1, .L37+12	@,
 357 004c FFF7FEFF 		bl	__aeabi_fdiv	@
 358 0050 6060     		str	r0, [r4, #4]	@ float	@, AccAngleSmooth
 359 0052 0120     		movs	r0, #1	@,
 360 0054 FFF7FEFF 		bl	Delay_ms	@
 361 0058 013E     		subs	r6, r6, #1	@ D.5487, D.5487,
 362 005a 174F     		ldr	r7, .L37+4	@ tmp183,
 363 005c D5D1     		bne	.L33	@,
 364 005e 194D     		ldr	r5, .L37+16	@ tmp201,
 365 0060 D7F804B0 		ldr	fp, [r7, #4]	@ float	@ AccAngleSmooth, AccAngleSmooth
 366 0064 D7F800A0 		ldr	r10, [r7]	@ float	@ AccAngleSmooth, AccAngleSmooth
 367 0068 DFF870C0 		ldr	ip, .L37+40	@ tmp202,
 368 006c 164F     		ldr	r7, .L37+20	@,
 369 006e DFF87090 		ldr	r9, .L37+44	@ tmp206,
 370 0072 3346     		mov	r3, r6	@ ivtmp.84, D.5487
 371 0074 4FF00008 		mov	r8, #0	@ tmp200,
 372 0078 144E     		ldr	r6, .L37+24	@ tmp221,
 373 007a 154C     		ldr	r4, .L37+28	@ tmp220,
 374 007c 1548     		ldr	r0, .L37+32	@ tmp223,
 375 007e 1649     		ldr	r1, .L37+36	@ tmp224,
 376 0080 1A46     		mov	r2, r3	@ tmp226, ivtmp.84
 377 0082 C7F804B0 		str	fp, [r7, #4]	@ float	@ AccAngleSmooth, CameraOrient
 378 0086 C7F800A0 		str	r10, [r7]	@ float	@ AccAngleSmooth, CameraOrient
 379 008a C7F80880 		str	r8, [r7, #8]	@ float	@ tmp200, CameraOrient
 380 008e C5F80890 		str	r9, [r5, #8]	@ float	@ tmp206, LakituAngles
 381 0092 C5F804C0 		str	ip, [r5, #4]	@ float	@ tmp202, LakituAngles
 382 0096 C5F800C0 		str	ip, [r5]	@ float	@ tmp202, LakituAngles
 383              	.L35:
 384 009a 46F80380 		str	r8, [r6, r3]	@ float	@ tmp225, MEM[symbol: orientation, index: ivtmp.84_43, offset: 0B]
 385 009e E250     		str	r2, [r4, r3]	@ tmp226, MEM[symbol: time, index: ivtmp.84_43, offset: 0B]
 386 00a0 40F80380 		str	r8, [r0, r3]	@ float	@ tmp225, MEM[symbol: control_sig, index: ivtmp.84_43, offset: 0B]
 387 00a4 41F80380 		str	r8, [r1, r3]	@ float	@ tmp225, MEM[symbol: setpoint, index: ivtmp.84_43, offset: 0B]
 388 00a8 0433     		adds	r3, r3, #4	@ ivtmp.84, ivtmp.84,
 389 00aa B3F57A6F 		cmp	r3, #4000	@ ivtmp.84,
 390 00ae F4D1     		bne	.L35	@,
 391 00b0 BDE8F88F 		pop	{r3, r4, r5, r6, r7, r8, r9, r10, fp, pc}	@
 392              	.L38:
 393              		.align	2
 394              	.L37:
 395 00b4 00000000 		.word	.LANCHOR6
 396 00b8 00000000 		.word	AccAngleSmooth
 397 00bc 00001543 		.word	1125449728
 398 00c0 00001643 		.word	1125515264
 399 00c4 00000000 		.word	LakituAngles
ARM GAS  C:\cygwin64\tmp\cc2nsY31.s 			page 8


 400 00c8 00000000 		.word	CameraOrient
 401 00cc 00000000 		.word	orientation
 402 00d0 00000000 		.word	time
 403 00d4 00000000 		.word	control_sig
 404 00d8 00000000 		.word	setpoint
 405 00dc 0000B442 		.word	1119092736
 406 00e0 00003443 		.word	1127481344
 407              		.size	Init_Orientation, .-Init_Orientation
 408              		.section	.text.Get_Orientation,"ax",%progbits
 409              		.align	2
 410              		.global	Get_Orientation
 411              		.thumb
 412              		.thumb_func
 413              		.type	Get_Orientation, %function
 414              	Get_Orientation:
 415              		@ args = 4, pretend = 0, frame = 0
 416              		@ frame_needed = 0, uses_anonymous_args = 0
 417 0000 2DE9F84F 		push	{r3, r4, r5, r6, r7, r8, r9, r10, fp, lr}	@
 418 0004 1746     		mov	r7, r2	@ AccData, AccData
 419 0006 9268     		ldr	r2, [r2, #8]	@ float	@ D.5491, MEM[(float *)AccData_2(D) + 8B]
 420 0008 0646     		mov	r6, r0	@ SmoothAcc, SmoothAcc
 421 000a 0C46     		mov	r4, r1	@ Orient, Orient
 422 000c 1046     		mov	r0, r2	@, D.5491
 423 000e 1146     		mov	r1, r2	@,
 424 0010 1D46     		mov	r5, r3	@ GyroData, GyroData
 425 0012 FFF7FEFF 		bl	__aeabi_fmul	@
 426 0016 D7F80480 		ldr	r8, [r7, #4]	@ float	@ D.5491, MEM[(float *)AccData_2(D) + 4B]
 427 001a 8146     		mov	r9, r0	@ D.5491,
 428 001c 4146     		mov	r1, r8	@,
 429 001e 4046     		mov	r0, r8	@, D.5491
 430 0020 FFF7FEFF 		bl	__aeabi_fmul	@
 431 0024 0146     		mov	r1, r0	@ D.5491,
 432 0026 4846     		mov	r0, r9	@, D.5491
 433 0028 FFF7FEFF 		bl	__aeabi_fadd	@
 434 002c D7F80090 		ldr	r9, [r7]	@ float	@ D.5491, *AccData_2(D)
 435 0030 DDF82880 		ldr	r8, [sp, #40]	@ float	@ dt, dt
 436 0034 FFF7FEFF 		bl	sqrtf	@
 437 0038 0146     		mov	r1, r0	@ D.5491,
 438 003a 4846     		mov	r0, r9	@, D.5491
 439 003c FFF7FEFF 		bl	atan2f	@
 440 0040 B968     		ldr	r1, [r7, #8]	@ float	@, MEM[(float *)AccData_2(D) + 8B]
 441 0042 8146     		mov	r9, r0	@ D.5491,
 442 0044 7868     		ldr	r0, [r7, #4]	@ float	@, MEM[(float *)AccData_2(D) + 4B]
 443 0046 FFF7FEFF 		bl	atan2f	@
 444 004a 3B49     		ldr	r1, .L40	@,
 445 004c 0746     		mov	r7, r0	@ D.5491,
 446 004e 3068     		ldr	r0, [r6]	@ float	@, *SmoothAcc_18(D)
 447 0050 FFF7FEFF 		bl	__aeabi_fmul	@
 448 0054 4946     		mov	r1, r9	@, D.5491
 449 0056 FFF7FEFF 		bl	__aeabi_fsub	@
 450 005a 3849     		ldr	r1, .L40+4	@,
 451 005c FFF7FEFF 		bl	__aeabi_fdiv	@
 452 0060 3549     		ldr	r1, .L40	@,
 453 0062 3060     		str	r0, [r6]	@ float	@, *SmoothAcc_18(D)
 454 0064 7068     		ldr	r0, [r6, #4]	@ float	@, MEM[(float *)SmoothAcc_18(D) + 4B]
 455 0066 FFF7FEFF 		bl	__aeabi_fmul	@
 456 006a 0146     		mov	r1, r0	@ D.5491,
ARM GAS  C:\cygwin64\tmp\cc2nsY31.s 			page 9


 457 006c 3846     		mov	r0, r7	@, D.5491
 458 006e FFF7FEFF 		bl	__aeabi_fadd	@
 459 0072 3249     		ldr	r1, .L40+4	@,
 460 0074 FFF7FEFF 		bl	__aeabi_fdiv	@
 461 0078 7060     		str	r0, [r6, #4]	@ float	@ tmp179, MEM[(float *)SmoothAcc_18(D) + 4B]
 462 007a 2968     		ldr	r1, [r5]	@ float	@, *GyroData_29(D)
 463 007c 8146     		mov	r9, r0	@ tmp179,
 464 007e 4046     		mov	r0, r8	@, dt
 465 0080 FFF7FEFF 		bl	__aeabi_fmul	@
 466 0084 6768     		ldr	r7, [r4, #4]	@ float	@ D.5491, MEM[(float *)Orient_31(D) + 4B]
 467 0086 0146     		mov	r1, r0	@ D.5491,
 468 0088 3846     		mov	r0, r7	@, D.5491
 469 008a FFF7FEFF 		bl	__aeabi_fadd	@
 470 008e 3946     		mov	r1, r7	@, D.5491
 471 0090 8246     		mov	r10, r0	@ D.5491,
 472 0092 4846     		mov	r0, r9	@, tmp179
 473 0094 FFF7FEFF 		bl	__aeabi_fsub	@
 474 0098 2949     		ldr	r1, .L40+8	@,
 475 009a FFF7FEFF 		bl	__aeabi_fmul	@
 476 009e 0146     		mov	r1, r0	@ D.5491,
 477 00a0 5046     		mov	r0, r10	@, D.5491
 478 00a2 FFF7FEFF 		bl	__aeabi_fadd	@
 479 00a6 6060     		str	r0, [r4, #4]	@ float	@ tmp184, MEM[(float *)Orient_31(D) + 4B]
 480 00a8 8146     		mov	r9, r0	@ tmp184,
 481 00aa FFF7FEFF 		bl	sinf	@
 482 00ae 0746     		mov	r7, r0	@ D.5491,
 483 00b0 4846     		mov	r0, r9	@, tmp184
 484 00b2 FFF7FEFF 		bl	cosf	@
 485 00b6 8146     		mov	r9, r0	@ D.5491,
 486 00b8 A868     		ldr	r0, [r5, #8]	@ MEM[(float *)GyroData_29(D) + 8B], MEM[(float *)GyroData_29(D) + 8B]
 487 00ba 3946     		mov	r1, r7	@, D.5491
 488 00bc 00F10040 		add	r0, r0, #-2147483648	@ D.5491, MEM[(float *)GyroData_29(D) + 8B],
 489 00c0 FFF7FEFF 		bl	__aeabi_fmul	@
 490 00c4 6968     		ldr	r1, [r5, #4]	@ float	@, MEM[(float *)GyroData_29(D) + 4B]
 491 00c6 8246     		mov	r10, r0	@ D.5491,
 492 00c8 4846     		mov	r0, r9	@, D.5491
 493 00ca FFF7FEFF 		bl	__aeabi_fmul	@
 494 00ce 0146     		mov	r1, r0	@ D.5491,
 495 00d0 5046     		mov	r0, r10	@, D.5491
 496 00d2 FFF7FEFF 		bl	__aeabi_fadd	@
 497 00d6 0146     		mov	r1, r0	@ D.5491,
 498 00d8 4046     		mov	r0, r8	@, dt
 499 00da FFF7FEFF 		bl	__aeabi_fmul	@
 500 00de D4F800A0 		ldr	r10, [r4]	@ float	@ D.5491, *Orient_31(D)
 501 00e2 0146     		mov	r1, r0	@ D.5491,
 502 00e4 5046     		mov	r0, r10	@, D.5491
 503 00e6 FFF7FEFF 		bl	__aeabi_fadd	@
 504 00ea 5146     		mov	r1, r10	@, D.5491
 505 00ec 8346     		mov	fp, r0	@ D.5491,
 506 00ee 3068     		ldr	r0, [r6]	@ float	@, *SmoothAcc_18(D)
 507 00f0 FFF7FEFF 		bl	__aeabi_fsub	@
 508 00f4 1249     		ldr	r1, .L40+8	@,
 509 00f6 FFF7FEFF 		bl	__aeabi_fmul	@
 510 00fa 0146     		mov	r1, r0	@ D.5491,
 511 00fc 5846     		mov	r0, fp	@, D.5491
 512 00fe FFF7FEFF 		bl	__aeabi_fadd	@
 513 0102 2060     		str	r0, [r4]	@ float	@, *Orient_31(D)
ARM GAS  C:\cygwin64\tmp\cc2nsY31.s 			page 10


 514 0104 A968     		ldr	r1, [r5, #8]	@ MEM[(float *)GyroData_29(D) + 8B], MEM[(float *)GyroData_29(D) + 8B]
 515 0106 4846     		mov	r0, r9	@, D.5491
 516 0108 01F10041 		add	r1, r1, #-2147483648	@ D.5491, MEM[(float *)GyroData_29(D) + 8B],
 517 010c FFF7FEFF 		bl	__aeabi_fmul	@
 518 0110 6968     		ldr	r1, [r5, #4]	@ float	@, MEM[(float *)GyroData_29(D) + 4B]
 519 0112 0646     		mov	r6, r0	@ D.5491,
 520 0114 3846     		mov	r0, r7	@, D.5491
 521 0116 FFF7FEFF 		bl	__aeabi_fmul	@
 522 011a 0146     		mov	r1, r0	@ D.5491,
 523 011c 3046     		mov	r0, r6	@, D.5491
 524 011e FFF7FEFF 		bl	__aeabi_fsub	@
 525 0122 0146     		mov	r1, r0	@ D.5491,
 526 0124 4046     		mov	r0, r8	@, dt
 527 0126 FFF7FEFF 		bl	__aeabi_fmul	@
 528 012a 0146     		mov	r1, r0	@ D.5491,
 529 012c A068     		ldr	r0, [r4, #8]	@ float	@, MEM[(float *)Orient_31(D) + 8B]
 530 012e FFF7FEFF 		bl	__aeabi_fadd	@
 531 0132 A060     		str	r0, [r4, #8]	@ float	@, MEM[(float *)Orient_31(D) + 8B]
 532 0134 BDE8F88F 		pop	{r3, r4, r5, r6, r7, r8, r9, r10, fp, pc}	@
 533              	.L41:
 534              		.align	2
 535              	.L40:
 536 0138 0000C642 		.word	1120272384
 537 013c 0000C842 		.word	1120403456
 538 0140 17B75139 		.word	961656599
 539              		.size	Get_Orientation, .-Get_Orientation
 540              		.section	.text.autoPan,"ax",%progbits
 541              		.align	2
 542              		.global	autoPan
 543              		.thumb
 544              		.thumb_func
 545              		.type	autoPan, %function
 546              	autoPan:
 547              		@ args = 0, pretend = 0, frame = 0
 548              		@ frame_needed = 0, uses_anonymous_args = 0
 549 0000 F8B5     		push	{r3, r4, r5, r6, r7, lr}	@
 550 0002 1E4D     		ldr	r5, .L55	@ tmp124,
 551 0004 0446     		mov	r4, r0	@ motorPos, motorPos
 552 0006 2E68     		ldr	r6, [r5]	@ float	@ centerPoint.6, centerPoint
 553 0008 0F46     		mov	r7, r1	@ setpoint, setpoint
 554 000a 3046     		mov	r0, r6	@, centerPoint.6
 555 000c 4FF08041 		mov	r1, #1073741824	@,
 556 0010 FFF7FEFF 		bl	__aeabi_fsub	@
 557 0014 2146     		mov	r1, r4	@, motorPos
 558 0016 FFF7FEFF 		bl	__aeabi_fcmpgt	@
 559 001a 0028     		cmp	r0, #0	@
 560 001c 2BD1     		bne	.L53	@
 561 001e 4FF08041 		mov	r1, #1073741824	@,
 562 0022 3046     		mov	r0, r6	@, centerPoint.6
 563 0024 FFF7FEFF 		bl	__aeabi_fadd	@
 564 0028 0146     		mov	r1, r0	@ D.5494,
 565 002a 2046     		mov	r0, r4	@, motorPos
 566 002c FFF7FEFF 		bl	__aeabi_fcmpgt	@
 567 0030 B0B9     		cbnz	r0, .L54	@,
 568 0032 134A     		ldr	r2, .L55+4	@ tmp137,
 569 0034 0023     		movs	r3, #0	@ tmp138,
 570 0036 2B60     		str	r3, [r5]	@ float	@ tmp138, centerPoint
ARM GAS  C:\cygwin64\tmp\cc2nsY31.s 			page 11


 571 0038 1360     		str	r3, [r2]	@ float	@ tmp138, step
 572 003a 1D46     		mov	r5, r3	@ D.5494, tmp138
 573              	.L45:
 574 003c 114C     		ldr	r4, .L55+8	@ tmp141,
 575 003e 1249     		ldr	r1, .L55+12	@,
 576 0040 2068     		ldr	r0, [r4]	@ float	@, stepSmooth
 577 0042 FFF7FEFF 		bl	__aeabi_fmul	@
 578 0046 2946     		mov	r1, r5	@, D.5494
 579 0048 FFF7FEFF 		bl	__aeabi_fadd	@
 580 004c 0F49     		ldr	r1, .L55+16	@,
 581 004e FFF7FEFF 		bl	__aeabi_fdiv	@
 582 0052 0346     		mov	r3, r0	@ tmp144,
 583 0054 0146     		mov	r1, r0	@, tmp144
 584 0056 2360     		str	r3, [r4]	@ float	@ tmp144, stepSmooth
 585 0058 3846     		mov	r0, r7	@, setpoint
 586 005a FFF7FEFF 		bl	__aeabi_fsub	@
 587 005e F8BD     		pop	{r3, r4, r5, r6, r7, pc}	@
 588              	.L54:
 589 0060 4FF04043 		mov	r3, #-1073741824	@ tmp134,
 590              	.L52:
 591 0064 2B60     		str	r3, [r5]	@ float	@ tmp134, centerPoint
 592 0066 2046     		mov	r0, r4	@, motorPos
 593 0068 0949     		ldr	r1, .L55+20	@,
 594 006a FFF7FEFF 		bl	__aeabi_fmul	@
 595 006e 044B     		ldr	r3, .L55+4	@ tmp136,
 596 0070 0546     		mov	r5, r0	@ D.5494, tmp135
 597 0072 1860     		str	r0, [r3]	@ float	@ tmp135, step
 598 0074 E2E7     		b	.L45	@
 599              	.L53:
 600 0076 4FF08043 		mov	r3, #1073741824	@ tmp128,
 601 007a F3E7     		b	.L52	@
 602              	.L56:
 603              		.align	2
 604              	.L55:
 605 007c 00000000 		.word	.LANCHOR7
 606 0080 00000000 		.word	.LANCHOR8
 607 0084 00000000 		.word	.LANCHOR9
 608 0088 00001C42 		.word	1109131264
 609 008c 00002042 		.word	1109393408
 610 0090 CDCC0C3F 		.word	1057803469
 611              		.size	autoPan, .-autoPan
 612              		.global	__aeabi_i2f
 613              		.global	__aeabi_f2d
 614              		.section	.text.engineProcess,"ax",%progbits
 615              		.align	2
 616              		.global	engineProcess
 617              		.thumb
 618              		.thumb_func
 619              		.type	engineProcess, %function
 620              	engineProcess:
 621              		@ args = 0, pretend = 0, frame = 48
 622              		@ frame_needed = 0, uses_anonymous_args = 0
 623 0000 2DE9F04F 		push	{r4, r5, r6, r7, r8, r9, r10, fp, lr}	@
 624 0004 AB4D     		ldr	r5, .L124	@ tmp484,
 625 0006 99B0     		sub	sp, sp, #100	@,,
 626 0008 2B68     		ldr	r3, [r5]	@ loopCounter, loopCounter
 627 000a 1190     		str	r0, [sp, #68]	@ float	@ dt, %sfp
ARM GAS  C:\cygwin64\tmp\cc2nsY31.s 			page 12


 628 000c 0133     		adds	r3, r3, #1	@ loopCounter.12, loopCounter,
 629 000e 2B60     		str	r3, [r5]	@ loopCounter.12, loopCounter
 630 0010 FFF7FEFF 		bl	LEDon	@
 631 0014 FFF7FEFF 		bl	DEBUG_LEDoff	@
 632 0018 16A8     		add	r0, sp, #88	@,,
 633 001a FFF7FEFF 		bl	StopWatchInit	@
 634 001e A648     		ldr	r0, .L124+4	@,
 635 0020 FFF7FEFF 		bl	MPU6050_ACC_get	@
 636 0024 16A8     		add	r0, sp, #88	@,,
 637 0026 FFF7FEFF 		bl	StopWatchLap	@
 638 002a 1290     		str	r0, [sp, #72]	@, %sfp
 639 002c A348     		ldr	r0, .L124+8	@,
 640 002e FFF7FEFF 		bl	MPU6050_Gyro_get	@
 641 0032 16A8     		add	r0, sp, #88	@,,
 642 0034 FFF7FEFF 		bl	StopWatchLap	@
 643 0038 A14C     		ldr	r4, .L124+12	@ tmp480,
 644 003a 1199     		ldr	r1, [sp, #68]	@ float	@, %sfp
 645 003c 9F4B     		ldr	r3, .L124+8	@,
 646 003e 1390     		str	r0, [sp, #76]	@, %sfp
 647 0040 0091     		str	r1, [sp]	@ float	@,
 648 0042 A048     		ldr	r0, .L124+16	@,
 649 0044 2146     		mov	r1, r4	@, tmp480
 650 0046 9C4A     		ldr	r2, .L124+4	@,
 651 0048 FFF7FEFF 		bl	Get_Orientation	@
 652 004c 16A8     		add	r0, sp, #88	@,,
 653 004e FFF7FEFF 		bl	StopWatchLap	@
 654 0052 9D4F     		ldr	r7, .L124+20	@ tmp477,
 655 0054 1490     		str	r0, [sp, #80]	@, %sfp
 656 0056 7B7A     		ldrb	r3, [r7, #9]	@ zero_extendqisi2	@ configData, configData
 657 0058 312B     		cmp	r3, #49	@ configData,
 658 005a 36D0     		beq	.L58	@,
 659 005c D4F80480 		ldr	r8, [r4, #4]	@ float	@ D.5498, CameraOrient
 660 0060 DFF8C8B2 		ldr	fp, .L124+120	@ tmp485,
 661 0064 994E     		ldr	r6, .L124+24	@ tmp486,
 662              	.L59:
 663 0066 DBF80030 		ldr	r3, [fp]	@ LAKITU_enable, LAKITU_enable
 664 006a 002B     		cmp	r3, #0	@ LAKITU_enable
 665 006c 37D1     		bne	.L61	@
 666 006e DFF8C092 		ldr	r9, .L124+124	@ tmp320,
 667 0072 9749     		ldr	r1, .L124+28	@,
 668 0074 7068     		ldr	r0, [r6, #4]	@ float	@, Step
 669 0076 FFF7FEFF 		bl	__aeabi_fdiv	@
 670 007a D9F80010 		ldr	r1, [r9]	@ float	@, pitchRCOffset
 671 007e FFF7FEFF 		bl	__aeabi_fadd	@
 672 0082 4146     		mov	r1, r8	@, D.5498
 673 0084 C9F80000 		str	r0, [r9]	@ float	@, pitchRCOffset
 674 0088 FFF7FEFF 		bl	__aeabi_fadd	@
 675 008c 9149     		ldr	r1, .L124+32	@,
 676 008e FFF7FEFF 		bl	__aeabi_fmul	@
 677 0092 9149     		ldr	r1, .L124+36	@,
 678 0094 8146     		mov	r9, r0	@ D.5498,
 679 0096 FFF7FEFF 		bl	__aeabi_fcmplt	@
 680 009a 0028     		cmp	r0, #0	@
 681 009c 40F08882 		bne	.L85	@
 682 00a0 4846     		mov	r0, r9	@, D.5498
 683 00a2 4FF07E51 		mov	r1, #1065353216	@,
 684 00a6 FFF7FEFF 		bl	__aeabi_fcmpgt	@
ARM GAS  C:\cygwin64\tmp\cc2nsY31.s 			page 13


 685 00aa 08B1     		cbz	r0, .L68	@,
 686 00ac 4FF07E59 		mov	r9, #1065353216	@ D.5498,
 687              	.L68:
 688 00b0 DFF88082 		ldr	r8, .L124+128	@ tmp479,
 689 00b4 894B     		ldr	r3, .L124+40	@ tmp329,
 690 00b6 D8F80000 		ldr	r0, [r8]	@ float	@, pitch_setpoint
 691 00ba 4946     		mov	r1, r9	@, D.5498
 692 00bc C3F80090 		str	r9, [r3]	@ float	@ D.5498, pitch_angle_correction
 693 00c0 FFF7FEFF 		bl	__aeabi_fadd	@
 694 00c4 C8F80000 		str	r0, [r8]	@ float	@, pitch_setpoint
 695 00c8 47E0     		b	.L67	@
 696              	.L58:
 697 00ca DFF860B2 		ldr	fp, .L124+120	@ tmp485,
 698 00ce DBF80030 		ldr	r3, [fp]	@ LAKITU_enable, LAKITU_enable
 699 00d2 002B     		cmp	r3, #0	@ LAKITU_enable
 700 00d4 00F0AA82 		beq	.L60	@
 701 00d8 D4F80480 		ldr	r8, [r4, #4]	@ float	@ D.5498, CameraOrient
 702 00dc 7B4E     		ldr	r6, .L124+24	@ tmp486,
 703              	.L61:
 704 00de DFF858A2 		ldr	r10, .L124+132	@ tmp294,
 705 00e2 7F49     		ldr	r1, .L124+44	@,
 706 00e4 DAF80400 		ldr	r0, [r10, #4]	@ float	@, LakituAngles
 707 00e8 FFF7FEFF 		bl	__aeabi_fsub	@
 708 00ec 7D49     		ldr	r1, .L124+48	@,
 709 00ee 00F10040 		add	r0, r0, #-2147483648	@ D.5498,,
 710 00f2 FFF7FEFF 		bl	__aeabi_fmul	@
 711 00f6 DFF84492 		ldr	r9, .L124+136	@ tmp298,
 712 00fa 0246     		mov	r2, r0	@ tmp297,
 713 00fc 1146     		mov	r1, r2	@, tmp297
 714 00fe C9F80420 		str	r2, [r9, #4]	@ float	@ tmp297, RCSmooth
 715 0102 4046     		mov	r0, r8	@, D.5498
 716 0104 FFF7FEFF 		bl	__aeabi_fsub	@
 717 0108 774A     		ldr	r2, .L124+52	@ tmp300,
 718 010a DFF82882 		ldr	r8, .L124+128	@ tmp479,
 719 010e 1168     		ldr	r1, [r2]	@ float	@, Kp_p
 720 0110 FFF7FEFF 		bl	__aeabi_fmul	@
 721 0114 D8F80010 		ldr	r1, [r8]	@ float	@, pitch_setpoint
 722 0118 7060     		str	r0, [r6, #4]	@ float	@, Step
 723 011a FFF7FEFF 		bl	__aeabi_fadd	@
 724 011e 7349     		ldr	r1, .L124+56	@,
 725 0120 C8F80000 		str	r0, [r8]	@ float	@, pitch_setpoint
 726 0124 DAF80800 		ldr	r0, [r10, #8]	@ float	@, LakituAngles
 727 0128 FFF7FEFF 		bl	__aeabi_fsub	@
 728 012c 6D49     		ldr	r1, .L124+48	@,
 729 012e FFF7FEFF 		bl	__aeabi_fmul	@
 730 0132 0346     		mov	r3, r0	@ tmp308,
 731 0134 0146     		mov	r1, r0	@, tmp308
 732 0136 C9F80830 		str	r3, [r9, #8]	@ float	@ tmp308, RCSmooth
 733 013a A068     		ldr	r0, [r4, #8]	@ float	@, CameraOrient
 734 013c FFF7FEFF 		bl	__aeabi_fsub	@
 735 0140 6B4B     		ldr	r3, .L124+60	@ tmp312,
 736 0142 DFF8B891 		ldr	r9, .L124+72	@ tmp315,
 737 0146 1968     		ldr	r1, [r3]	@ float	@, Kp_y
 738 0148 FFF7FEFF 		bl	__aeabi_fmul	@
 739 014c D9F80010 		ldr	r1, [r9]	@ float	@, yaw_setpoint
 740 0150 B060     		str	r0, [r6, #8]	@ float	@, Step
 741 0152 FFF7FEFF 		bl	__aeabi_fadd	@
ARM GAS  C:\cygwin64\tmp\cc2nsY31.s 			page 14


 742 0156 C9F80000 		str	r0, [r9]	@ float	@, yaw_setpoint
 743              	.L67:
 744 015a DFF8E491 		ldr	r9, .L124+140	@ tmp335,
 745 015e 3068     		ldr	r0, [r6]	@ float	@, Step
 746 0160 5B49     		ldr	r1, .L124+28	@,
 747 0162 FFF7FEFF 		bl	__aeabi_fdiv	@
 748 0166 D9F80010 		ldr	r1, [r9]	@ float	@, rollRCOffset
 749 016a FFF7FEFF 		bl	__aeabi_fadd	@
 750 016e 2168     		ldr	r1, [r4]	@ float	@, CameraOrient
 751 0170 C9F80000 		str	r0, [r9]	@ float	@, rollRCOffset
 752 0174 FFF7FEFF 		bl	__aeabi_fadd	@
 753 0178 8146     		mov	r9, r0	@ tmp339,
 754 017a F87A     		ldrb	r0, [r7, #11]	@ zero_extendqisi2	@ D.5499, configData
 755 017c 6438     		subs	r0, r0, #100	@, D.5499,
 756 017e FFF7FEFF 		bl	__aeabi_i2f	@
 757 0182 5C49     		ldr	r1, .L124+64	@,
 758 0184 FFF7FEFF 		bl	__aeabi_fdiv	@
 759 0188 FFF7FEFF 		bl	Deg2Rad	@
 760 018c 0146     		mov	r1, r0	@ D.5498,
 761 018e 4846     		mov	r0, r9	@, tmp339
 762 0190 FFF7FEFF 		bl	__aeabi_fadd	@
 763 0194 4F49     		ldr	r1, .L124+32	@,
 764 0196 FFF7FEFF 		bl	__aeabi_fmul	@
 765 019a 4F49     		ldr	r1, .L124+36	@,
 766 019c 8246     		mov	r10, r0	@ D.5498,
 767 019e FFF7FEFF 		bl	__aeabi_fcmplt	@
 768 01a2 0028     		cmp	r0, #0	@
 769 01a4 40F08280 		bne	.L86	@
 770 01a8 5046     		mov	r0, r10	@, D.5498
 771 01aa 4FF07E51 		mov	r1, #1065353216	@,
 772 01ae FFF7FEFF 		bl	__aeabi_fcmpgt	@
 773 01b2 08B1     		cbz	r0, .L70	@,
 774 01b4 4FF07E5A 		mov	r10, #1065353216	@ D.5498,
 775              	.L70:
 776 01b8 DFF88891 		ldr	r9, .L124+144	@ tmp478,
 777 01bc 4E4A     		ldr	r2, .L124+68	@ tmp351,
 778 01be D9F80000 		ldr	r0, [r9]	@ float	@, roll_setpoint
 779 01c2 5146     		mov	r1, r10	@, D.5498
 780 01c4 C2F800A0 		str	r10, [r2]	@ float	@ D.5498, roll_angle_correction
 781 01c8 FFF7FEFF 		bl	__aeabi_fadd	@
 782 01cc BB7A     		ldrb	r3, [r7, #10]	@ zero_extendqisi2	@ configData, configData
 783 01ce C9F80000 		str	r0, [r9]	@ float	@, roll_setpoint
 784 01d2 302B     		cmp	r3, #48	@ configData,
 785 01d4 DBF80030 		ldr	r3, [fp]	@ LAKITU_enable, LAKITU_enable
 786 01d8 5ED0     		beq	.L115	@,
 787 01da 93B9     		cbnz	r3, .L73	@ LAKITU_enable,
 788 01dc D6F808B0 		ldr	fp, [r6, #8]	@ float	@ D.5498, Step
 789 01e0 464B     		ldr	r3, .L124+72	@ tmp367,
 790 01e2 5846     		mov	r0, fp	@, D.5498
 791 01e4 1968     		ldr	r1, [r3]	@ float	@, yaw_setpoint
 792 01e6 0E93     		str	r3, [sp, #56]	@,
 793 01e8 FFF7FEFF 		bl	__aeabi_fadd	@
 794 01ec 0E9B     		ldr	r3, [sp, #56]	@,
 795 01ee 444F     		ldr	r7, .L124+76	@ tmp370,
 796 01f0 1860     		str	r0, [r3]	@ float	@, yaw_setpoint
 797 01f2 3749     		ldr	r1, .L124+28	@,
 798 01f4 5846     		mov	r0, fp	@, D.5498
ARM GAS  C:\cygwin64\tmp\cc2nsY31.s 			page 15


 799 01f6 FFF7FEFF 		bl	__aeabi_fdiv	@
 800 01fa 3968     		ldr	r1, [r7]	@ float	@, yawRCOffset
 801 01fc FFF7FEFF 		bl	__aeabi_fadd	@
 802 0200 3860     		str	r0, [r7]	@ float	@,
 803              	.L73:
 804 0202 16A8     		add	r0, sp, #88	@,,
 805 0204 FFF7FEFF 		bl	StopWatchLap	@
 806 0208 8346     		mov	fp, r0	@ tCalc,
 807 020a FFF7FEFF 		bl	pitch_PID	@
 808 020e FFF7FEFF 		bl	roll_PID	@
 809 0212 FFF7FEFF 		bl	yaw_PID	@
 810 0216 16A8     		add	r0, sp, #88	@,,
 811 0218 FFF7FEFF 		bl	StopWatchLap	@
 812 021c 1590     		str	r0, [sp, #84]	@, %sfp
 813 021e 16A8     		add	r0, sp, #88	@,,
 814 0220 FFF7FEFF 		bl	StopWatchTotal	@
 815 0224 374F     		ldr	r7, .L124+80	@ tmp481,
 816 0226 DFF820C1 		ldr	ip, .L124+148	@ tmp482,
 817 022a 3B68     		ldr	r3, [r7]	@ printcounter, printcounter
 818 022c CCF80000 		str	r0, [ip]	@, tAll
 819 0230 0133     		adds	r3, r3, #1	@ printcounter.36, printcounter,
 820 0232 B3F5FA7F 		cmp	r3, #500	@ printcounter.36,
 821 0236 3B60     		str	r3, [r7]	@ printcounter.36, printcounter
 822 0238 29DB     		blt	.L74	@,
 823 023a 334B     		ldr	r3, .L124+84	@ tmp381,
 824 023c 1B68     		ldr	r3, [r3]	@ debugPrint, debugPrint
 825 023e 002B     		cmp	r3, #0	@ debugPrint
 826 0240 40F08480 		bne	.L116	@
 827 0244 314B     		ldr	r3, .L124+88	@ tmp395,
 828 0246 1B68     		ldr	r3, [r3]	@ debugSense, debugSense
 829 0248 002B     		cmp	r3, #0	@ debugSense
 830 024a 40F0B080 		bne	.L117	@
 831              	.L76:
 832 024e 304B     		ldr	r3, .L124+92	@ tmp411,
 833 0250 1B68     		ldr	r3, [r3]	@ debugPerf, debugPerf
 834 0252 002B     		cmp	r3, #0	@ debugPerf
 835 0254 40F0DF80 		bne	.L118	@
 836              	.L77:
 837 0258 2E4B     		ldr	r3, .L124+96	@ tmp417,
 838 025a 1B68     		ldr	r3, [r3]	@ debugRC, debugRC
 839 025c 002B     		cmp	r3, #0	@ debugRC
 840 025e 40F0F980 		bne	.L119	@
 841              	.L78:
 842 0262 2D4B     		ldr	r3, .L124+100	@ tmp432,
 843 0264 1B68     		ldr	r3, [r3]	@ debugOrient, debugOrient
 844 0266 002B     		cmp	r3, #0	@ debugOrient
 845 0268 40F02181 		bne	.L120	@
 846              	.L79:
 847 026c 2B4B     		ldr	r3, .L124+104	@ tmp441,
 848 026e 1B68     		ldr	r3, [r3]	@ debugCnt, debugCnt
 849 0270 002B     		cmp	r3, #0	@ debugCnt
 850 0272 40F03881 		bne	.L121	@
 851              	.L80:
 852 0276 2A4B     		ldr	r3, .L124+108	@ tmp453,
 853 0278 1B68     		ldr	r3, [r3]	@ debugAutoPan, debugAutoPan
 854 027a 002B     		cmp	r3, #0	@ debugAutoPan
 855 027c 40F05C81 		bne	.L122	@
ARM GAS  C:\cygwin64\tmp\cc2nsY31.s 			page 16


 856              	.L81:
 857 0280 284B     		ldr	r3, .L124+112	@ tmp464,
 858 0282 1B68     		ldr	r3, [r3]	@ debugLAKITU, debugLAKITU
 859 0284 002B     		cmp	r3, #0	@ debugLAKITU
 860 0286 40F07781 		bne	.L123	@
 861              	.L82:
 862 028a 0023     		movs	r3, #0	@ tmp476,
 863 028c 3B60     		str	r3, [r7]	@ tmp476, printcounter
 864              	.L74:
 865 028e FFF7FEFF 		bl	LEDoff	@
 866 0292 19B0     		add	sp, sp, #100	@,,
 867              		@ sp needed	@
 868 0294 BDE8F08F 		pop	{r4, r5, r6, r7, r8, r9, r10, fp, pc}	@
 869              	.L115:
 870 0298 002B     		cmp	r3, #0	@ LAKITU_enable
 871 029a B2D1     		bne	.L73	@
 872 029c 224B     		ldr	r3, .L124+116	@ tmp359,
 873 029e 174F     		ldr	r7, .L124+72	@ tmp361,
 874 02a0 9868     		ldr	r0, [r3, #8]	@ float	@, Output
 875 02a2 3968     		ldr	r1, [r7]	@ float	@, yaw_setpoint
 876 02a4 FFF7FEFF 		bl	autoPan	@
 877 02a8 3860     		str	r0, [r7]	@ float	@,
 878 02aa AAE7     		b	.L73	@
 879              	.L86:
 880 02ac DFF828A0 		ldr	r10, .L124+36	@ D.5498,
 881 02b0 82E7     		b	.L70	@
 882              	.L125:
 883 02b2 00BF     		.align	2
 884              	.L124:
 885 02b4 00000000 		.word	.LANCHOR10
 886 02b8 00000000 		.word	.LANCHOR6
 887 02bc 00000000 		.word	.LANCHOR11
 888 02c0 00000000 		.word	CameraOrient
 889 02c4 00000000 		.word	AccAngleSmooth
 890 02c8 00000000 		.word	configData
 891 02cc 00000000 		.word	.LANCHOR13
 892 02d0 00007A44 		.word	1148846080
 893 02d4 33336542 		.word	1113928499
 894 02d8 000080BF 		.word	-1082130432
 895 02dc 00000000 		.word	pitch_angle_correction
 896 02e0 0000B442 		.word	1119092736
 897 02e4 34FA8E3C 		.word	1016003124
 898 02e8 00000000 		.word	.LANCHOR15
 899 02ec 00003443 		.word	1127481344
 900 02f0 00000000 		.word	.LANCHOR16
 901 02f4 00002041 		.word	1092616192
 902 02f8 00000000 		.word	roll_angle_correction
 903 02fc 00000000 		.word	.LANCHOR4
 904 0300 00000000 		.word	.LANCHOR19
 905 0304 00000000 		.word	.LANCHOR20
 906 0308 00000000 		.word	.LANCHOR21
 907 030c 00000000 		.word	.LANCHOR22
 908 0310 00000000 		.word	.LANCHOR23
 909 0314 00000000 		.word	.LANCHOR24
 910 0318 00000000 		.word	.LANCHOR25
 911 031c 00000000 		.word	.LANCHOR26
 912 0320 00000000 		.word	.LANCHOR27
ARM GAS  C:\cygwin64\tmp\cc2nsY31.s 			page 17


 913 0324 00000000 		.word	.LANCHOR28
 914 0328 00000000 		.word	Output
 915 032c 00000000 		.word	.LANCHOR12
 916 0330 00000000 		.word	.LANCHOR17
 917 0334 00000000 		.word	.LANCHOR2
 918 0338 00000000 		.word	LakituAngles
 919 033c 00000000 		.word	.LANCHOR14
 920 0340 00000000 		.word	.LANCHOR18
 921 0344 00000000 		.word	.LANCHOR0
 922 0348 00000000 		.word	tAll
 923              	.L116:
 924 034c 9A4A     		ldr	r2, .L126	@ tmp384,
 925 034e 2B68     		ldr	r3, [r5]	@ loopCounter.11, loopCounter
 926 0350 1268     		ldr	r2, [r2]	@ I2Cerrorcount.38, I2Cerrorcount
 927 0352 2068     		ldr	r0, [r4]	@ float	@, CameraOrient
 928 0354 CDF834C0 		str	ip, [sp, #52]	@,
 929 0358 0F92     		str	r2, [sp, #60]	@,
 930 035a 0E93     		str	r3, [sp, #56]	@,
 931 035c FFF7FEFF 		bl	Rad2Deg	@
 932 0360 0146     		mov	r1, r0	@ D.5498,
 933 0362 6068     		ldr	r0, [r4, #4]	@ float	@, CameraOrient
 934 0364 1091     		str	r1, [sp, #64]	@,
 935 0366 FFF7FEFF 		bl	Rad2Deg	@
 936 036a 0546     		mov	r5, r0	@ D.5498,
 937 036c A068     		ldr	r0, [r4, #8]	@ float	@, CameraOrient
 938 036e FFF7FEFF 		bl	Rad2Deg	@
 939 0372 1099     		ldr	r1, [sp, #64]	@,
 940 0374 0446     		mov	r4, r0	@ D.5498,
 941 0376 0846     		mov	r0, r1	@, D.5498
 942 0378 FFF7FEFF 		bl	__aeabi_f2d	@
 943 037c CDE90001 		strd	r0, [sp]	@,
 944 0380 2846     		mov	r0, r5	@, D.5498
 945 0382 FFF7FEFF 		bl	__aeabi_f2d	@
 946 0386 CDE90201 		strd	r0, [sp, #8]	@,,
 947 038a 2046     		mov	r0, r4	@, D.5498
 948 038c FFF7FEFF 		bl	__aeabi_f2d	@
 949 0390 0E9B     		ldr	r3, [sp, #56]	@,
 950 0392 CDE90401 		strd	r0, [sp, #16]	@,,
 951 0396 0F9A     		ldr	r2, [sp, #60]	@,
 952 0398 1946     		mov	r1, r3	@, loopCounter.11
 953 039a 8848     		ldr	r0, .L126+4	@,
 954 039c FFF7FEFF 		bl	print	@
 955 03a0 874B     		ldr	r3, .L126+8	@ tmp395,
 956 03a2 DDF834C0 		ldr	ip, [sp, #52]	@,
 957 03a6 1B68     		ldr	r3, [r3]	@ debugSense, debugSense
 958 03a8 002B     		cmp	r3, #0	@ debugSense
 959 03aa 3FF450AF 		beq	.L76	@
 960              	.L117:
 961 03ae 1198     		ldr	r0, [sp, #68]	@ float	@, %sfp
 962 03b0 CDF834C0 		str	ip, [sp, #52]	@,
 963 03b4 FFF7FEFF 		bl	__aeabi_f2d	@
 964 03b8 824C     		ldr	r4, .L126+12	@ tmp399,
 965 03ba 0246     		mov	r2, r0	@ D.5500,
 966 03bc 2068     		ldr	r0, [r4]	@ float	@, AccData
 967 03be 0F92     		str	r2, [sp, #60]	@,
 968 03c0 0E91     		str	r1, [sp, #56]	@ tmp3,
 969 03c2 FFF7FEFF 		bl	__aeabi_f2d	@
ARM GAS  C:\cygwin64\tmp\cc2nsY31.s 			page 18


 970 03c6 CDE90001 		strd	r0, [sp]	@,
 971 03ca 6068     		ldr	r0, [r4, #4]	@ float	@, AccData
 972 03cc FFF7FEFF 		bl	__aeabi_f2d	@
 973 03d0 CDE90201 		strd	r0, [sp, #8]	@,,
 974 03d4 A068     		ldr	r0, [r4, #8]	@ float	@, AccData
 975 03d6 FFF7FEFF 		bl	__aeabi_f2d	@
 976 03da CDE90401 		strd	r0, [sp, #16]	@,,
 977 03de 7A4C     		ldr	r4, .L126+16	@ tmp405,
 978 03e0 2068     		ldr	r0, [r4]	@ float	@, GyroData
 979 03e2 FFF7FEFF 		bl	__aeabi_f2d	@
 980 03e6 CDE90601 		strd	r0, [sp, #24]	@,,
 981 03ea 6068     		ldr	r0, [r4, #4]	@ float	@, GyroData
 982 03ec FFF7FEFF 		bl	__aeabi_f2d	@
 983 03f0 CDE90801 		strd	r0, [sp, #32]	@,,
 984 03f4 A068     		ldr	r0, [r4, #8]	@ float	@, GyroData
 985 03f6 FFF7FEFF 		bl	__aeabi_f2d	@
 986 03fa 0E9B     		ldr	r3, [sp, #56]	@,
 987 03fc CDE90A01 		strd	r0, [sp, #40]	@,,
 988 0400 0F9A     		ldr	r2, [sp, #60]	@,
 989 0402 7248     		ldr	r0, .L126+20	@,
 990 0404 FFF7FEFF 		bl	print	@
 991 0408 714B     		ldr	r3, .L126+24	@ tmp411,
 992 040a DDF834C0 		ldr	ip, [sp, #52]	@,
 993 040e 1B68     		ldr	r3, [r3]	@ debugPerf, debugPerf
 994 0410 002B     		cmp	r3, #0	@ debugPerf
 995 0412 3FF421AF 		beq	.L77	@
 996              	.L118:
 997 0416 CDF834C0 		str	ip, [sp, #52]	@,
 998 041a FFF7FEFF 		bl	GetIdlePerf	@
 999 041e FFF7FEFF 		bl	__aeabi_f2d	@
 1000 0422 DDF834C0 		ldr	ip, [sp, #52]	@,
 1001 0426 0B46     		mov	r3, r1	@ D.5500,
 1002 0428 DCF80010 		ldr	r1, [ip]	@ tAll, tAll
 1003 042c 0246     		mov	r2, r0	@ D.5500,
 1004 042e 0091     		str	r1, [sp]	@ tAll,
 1005 0430 1299     		ldr	r1, [sp, #72]	@, %sfp
 1006 0432 CDF810B0 		str	fp, [sp, #16]	@ tCalc,
 1007 0436 0191     		str	r1, [sp, #4]	@,
 1008 0438 1399     		ldr	r1, [sp, #76]	@, %sfp
 1009 043a 6648     		ldr	r0, .L126+28	@,
 1010 043c 0291     		str	r1, [sp, #8]	@,
 1011 043e 1499     		ldr	r1, [sp, #80]	@, %sfp
 1012 0440 0391     		str	r1, [sp, #12]	@,
 1013 0442 1599     		ldr	r1, [sp, #84]	@, %sfp
 1014 0444 0591     		str	r1, [sp, #20]	@,
 1015 0446 FFF7FEFF 		bl	print	@
 1016 044a 634B     		ldr	r3, .L126+32	@ tmp417,
 1017 044c 1B68     		ldr	r3, [r3]	@ debugRC, debugRC
 1018 044e 002B     		cmp	r3, #0	@ debugRC
 1019 0450 3FF407AF 		beq	.L78	@
 1020              	.L119:
 1021 0454 DFF8CCA1 		ldr	r10, .L126+108	@ tmp420,
 1022 0458 DAF80000 		ldr	r0, [r10]	@ float	@, RCSmooth
 1023 045c FFF7FEFF 		bl	__aeabi_f2d	@
 1024 0460 0446     		mov	r4, r0	@ D.5500,
 1025 0462 DAF80400 		ldr	r0, [r10, #4]	@ float	@, RCSmooth
 1026 0466 0D46     		mov	r5, r1	@ D.5500,
ARM GAS  C:\cygwin64\tmp\cc2nsY31.s 			page 19


 1027 0468 FFF7FEFF 		bl	__aeabi_f2d	@
 1028 046c CDE90001 		strd	r0, [sp]	@,
 1029 0470 DAF80800 		ldr	r0, [r10, #8]	@ float	@, RCSmooth
 1030 0474 FFF7FEFF 		bl	__aeabi_f2d	@
 1031 0478 CDE90201 		strd	r0, [sp, #8]	@,,
 1032 047c 3068     		ldr	r0, [r6]	@ float	@, Step
 1033 047e FFF7FEFF 		bl	__aeabi_f2d	@
 1034 0482 CDE90401 		strd	r0, [sp, #16]	@,,
 1035 0486 7068     		ldr	r0, [r6, #4]	@ float	@, Step
 1036 0488 FFF7FEFF 		bl	__aeabi_f2d	@
 1037 048c CDE90601 		strd	r0, [sp, #24]	@,,
 1038 0490 B068     		ldr	r0, [r6, #8]	@ float	@, Step
 1039 0492 FFF7FEFF 		bl	__aeabi_f2d	@
 1040 0496 2B46     		mov	r3, r5	@, D.5500
 1041 0498 CDE90801 		strd	r0, [sp, #32]	@,,
 1042 049c 2246     		mov	r2, r4	@, D.5500
 1043 049e 4F48     		ldr	r0, .L126+36	@,
 1044 04a0 FFF7FEFF 		bl	print	@
 1045 04a4 4E4B     		ldr	r3, .L126+40	@ tmp432,
 1046 04a6 1B68     		ldr	r3, [r3]	@ debugOrient, debugOrient
 1047 04a8 002B     		cmp	r3, #0	@ debugOrient
 1048 04aa 3FF4DFAE 		beq	.L79	@
 1049              	.L120:
 1050 04ae D9F80000 		ldr	r0, [r9]	@ float	@, roll_setpoint
 1051 04b2 FFF7FEFF 		bl	__aeabi_f2d	@
 1052 04b6 0446     		mov	r4, r0	@ D.5500,
 1053 04b8 D8F80000 		ldr	r0, [r8]	@ float	@, pitch_setpoint
 1054 04bc 0D46     		mov	r5, r1	@ D.5500,
 1055 04be FFF7FEFF 		bl	__aeabi_f2d	@
 1056 04c2 CDE90001 		strd	r0, [sp]	@,
 1057 04c6 474B     		ldr	r3, .L126+44	@ tmp439,
 1058 04c8 1868     		ldr	r0, [r3]	@ float	@, yaw_setpoint
 1059 04ca FFF7FEFF 		bl	__aeabi_f2d	@
 1060 04ce 2B46     		mov	r3, r5	@, D.5500
 1061 04d0 CDE90201 		strd	r0, [sp, #8]	@,,
 1062 04d4 2246     		mov	r2, r4	@, D.5500
 1063 04d6 4448     		ldr	r0, .L126+48	@,
 1064 04d8 FFF7FEFF 		bl	print	@
 1065 04dc 434B     		ldr	r3, .L126+52	@ tmp441,
 1066 04de 1B68     		ldr	r3, [r3]	@ debugCnt, debugCnt
 1067 04e0 002B     		cmp	r3, #0	@ debugCnt
 1068 04e2 3FF4C8AE 		beq	.L80	@
 1069              	.L121:
 1070 04e6 424C     		ldr	r4, .L126+56	@ tmp446,
 1071 04e8 424B     		ldr	r3, .L126+60	@ tmp443,
 1072 04ea A268     		ldr	r2, [r4, #8]	@ D.5499, MaxCnt
 1073 04ec 4248     		ldr	r0, .L126+64	@ tmp449,
 1074 04ee D3F80080 		ldr	r8, [r3]	@ D.5499, MinCnt
 1075 04f2 5E68     		ldr	r6, [r3, #4]	@ D.5499, MinCnt
 1076 04f4 9D68     		ldr	r5, [r3, #8]	@ D.5499, MinCnt
 1077 04f6 D0F800A0 		ldr	r10, [r0]	@ D.5499, IrqCnt
 1078 04fa 94E80808 		ldmia	r4, {r3, fp}	@ tmp446,,
 1079 04fe D0F80490 		ldr	r9, [r0, #4]	@ D.5499, IrqCnt
 1080 0502 8468     		ldr	r4, [r0, #8]	@ D.5499, IrqCnt
 1081 0504 0F92     		str	r2, [sp, #60]	@,
 1082 0506 0E93     		str	r3, [sp, #56]	@,
 1083 0508 FFF7FEFF 		bl	usbOverrun	@
ARM GAS  C:\cygwin64\tmp\cc2nsY31.s 			page 20


 1084 050c 0E9B     		ldr	r3, [sp, #56]	@,
 1085 050e 0F9A     		ldr	r2, [sp, #60]	@,
 1086 0510 8DE80808 		stmia	sp, {r3, fp}	@,,
 1087 0514 0292     		str	r2, [sp, #8]	@ D.5499,
 1088 0516 2B46     		mov	r3, r5	@, D.5499
 1089 0518 0690     		str	r0, [sp, #24]	@,
 1090 051a CDF80CA0 		str	r10, [sp, #12]	@ D.5499,
 1091 051e CDF81090 		str	r9, [sp, #16]	@ D.5499,
 1092 0522 0594     		str	r4, [sp, #20]	@ D.5499,
 1093 0524 4146     		mov	r1, r8	@, D.5499
 1094 0526 3246     		mov	r2, r6	@, D.5499
 1095 0528 3448     		ldr	r0, .L126+68	@,
 1096 052a FFF7FEFF 		bl	print	@
 1097 052e 344B     		ldr	r3, .L126+72	@ tmp453,
 1098 0530 1B68     		ldr	r3, [r3]	@ debugAutoPan, debugAutoPan
 1099 0532 002B     		cmp	r3, #0	@ debugAutoPan
 1100 0534 3FF4A4AE 		beq	.L81	@
 1101              	.L122:
 1102 0538 324E     		ldr	r6, .L126+76	@ tmp456,
 1103 053a 7068     		ldr	r0, [r6, #4]	@ float	@, Output
 1104 053c FFF7FEFF 		bl	__aeabi_f2d	@
 1105 0540 0446     		mov	r4, r0	@ D.5500,
 1106 0542 3068     		ldr	r0, [r6]	@ float	@, Output
 1107 0544 0D46     		mov	r5, r1	@ D.5500,
 1108 0546 FFF7FEFF 		bl	__aeabi_f2d	@
 1109 054a CDE90001 		strd	r0, [sp]	@,
 1110 054e B068     		ldr	r0, [r6, #8]	@ float	@, Output
 1111 0550 FFF7FEFF 		bl	__aeabi_f2d	@
 1112 0554 CDE90201 		strd	r0, [sp, #8]	@,,
 1113 0558 2B4B     		ldr	r3, .L126+80	@ tmp462,
 1114 055a 1868     		ldr	r0, [r3]	@ float	@, centerPoint
 1115 055c FFF7FEFF 		bl	__aeabi_f2d	@
 1116 0560 2B46     		mov	r3, r5	@, D.5500
 1117 0562 CDE90401 		strd	r0, [sp, #16]	@,,
 1118 0566 2246     		mov	r2, r4	@, D.5500
 1119 0568 2848     		ldr	r0, .L126+84	@,
 1120 056a FFF7FEFF 		bl	print	@
 1121 056e 284B     		ldr	r3, .L126+88	@ tmp464,
 1122 0570 1B68     		ldr	r3, [r3]	@ debugLAKITU, debugLAKITU
 1123 0572 002B     		cmp	r3, #0	@ debugLAKITU
 1124 0574 3FF489AE 		beq	.L82	@
 1125              	.L123:
 1126 0578 264E     		ldr	r6, .L126+92	@ tmp467,
 1127 057a 2749     		ldr	r1, .L126+96	@,
 1128 057c 7068     		ldr	r0, [r6, #4]	@ float	@, LakituAngles
 1129 057e FFF7FEFF 		bl	__aeabi_fsub	@
 1130 0582 FFF7FEFF 		bl	__aeabi_f2d	@
 1131 0586 0446     		mov	r4, r0	@ D.5500,
 1132 0588 3068     		ldr	r0, [r6]	@ float	@, LakituAngles
 1133 058a 0D46     		mov	r5, r1	@ D.5500,
 1134 058c FFF7FEFF 		bl	__aeabi_f2d	@
 1135 0590 CDE90001 		strd	r0, [sp]	@,
 1136 0594 2149     		ldr	r1, .L126+100	@,
 1137 0596 B068     		ldr	r0, [r6, #8]	@ float	@, LakituAngles
 1138 0598 FFF7FEFF 		bl	__aeabi_fsub	@
 1139 059c FFF7FEFF 		bl	__aeabi_f2d	@
 1140 05a0 2246     		mov	r2, r4	@, D.5500
ARM GAS  C:\cygwin64\tmp\cc2nsY31.s 			page 21


 1141 05a2 CDE90201 		strd	r0, [sp, #8]	@,,
 1142 05a6 2B46     		mov	r3, r5	@, D.5500
 1143 05a8 1D48     		ldr	r0, .L126+104	@,
 1144 05aa FFF7FEFF 		bl	print	@
 1145 05ae 6CE6     		b	.L82	@
 1146              	.L85:
 1147 05b0 DFF87490 		ldr	r9, .L126+112	@ D.5498,
 1148 05b4 7CE5     		b	.L68	@
 1149              	.L127:
 1150 05b6 00BF     		.align	2
 1151              	.L126:
 1152 05b8 00000000 		.word	I2Cerrorcount
 1153 05bc 00000000 		.word	.LC0
 1154 05c0 00000000 		.word	.LANCHOR22
 1155 05c4 00000000 		.word	.LANCHOR6
 1156 05c8 00000000 		.word	.LANCHOR11
 1157 05cc 48000000 		.word	.LC1
 1158 05d0 00000000 		.word	.LANCHOR23
 1159 05d4 94000000 		.word	.LC2
 1160 05d8 00000000 		.word	.LANCHOR24
 1161 05dc F8000000 		.word	.LC3
 1162 05e0 00000000 		.word	.LANCHOR25
 1163 05e4 00000000 		.word	.LANCHOR4
 1164 05e8 58010000 		.word	.LC4
 1165 05ec 00000000 		.word	.LANCHOR26
 1166 05f0 00000000 		.word	MaxCnt
 1167 05f4 00000000 		.word	MinCnt
 1168 05f8 00000000 		.word	IrqCnt
 1169 05fc A0010000 		.word	.LC5
 1170 0600 00000000 		.word	.LANCHOR27
 1171 0604 00000000 		.word	Output
 1172 0608 00000000 		.word	.LANCHOR7
 1173 060c F8010000 		.word	.LC6
 1174 0610 00000000 		.word	.LANCHOR28
 1175 0614 00000000 		.word	LakituAngles
 1176 0618 0000B442 		.word	1119092736
 1177 061c 00003443 		.word	1127481344
 1178 0620 48020000 		.word	.LC7
 1179 0624 00000000 		.word	.LANCHOR14
 1180 0628 000080BF 		.word	-1082130432
 1181              	.L60:
 1182 062c 104E     		ldr	r6, .L128	@ tmp486,
 1183 062e 1149     		ldr	r1, .L128+4	@,
 1184 0630 3046     		mov	r0, r6	@, tmp486
 1185 0632 FFF7FEFF 		bl	Get_RC_Step	@
 1186 0636 D4F80480 		ldr	r8, [r4, #4]	@ float	@ D.5498, CameraOrient
 1187 063a 0F49     		ldr	r1, .L128+8	@,
 1188 063c 4046     		mov	r0, r8	@, D.5498
 1189 063e D6F80490 		ldr	r9, [r6, #4]	@ float	@ step, Step
 1190 0642 FFF7FEFF 		bl	__aeabi_fcmplt	@
 1191 0646 20B1     		cbz	r0, .L62	@,
 1192 0648 4846     		mov	r0, r9	@, step
 1193 064a 0021     		movs	r1, #0	@,
 1194 064c FFF7FEFF 		bl	__aeabi_fcmpgt	@
 1195 0650 48B9     		cbnz	r0, .L84	@,
 1196              	.L62:
 1197 0652 4046     		mov	r0, r8	@, D.5498
ARM GAS  C:\cygwin64\tmp\cc2nsY31.s 			page 22


 1198 0654 0949     		ldr	r1, .L128+12	@,
 1199 0656 FFF7FEFF 		bl	__aeabi_fcmpgt	@
 1200 065a 30B1     		cbz	r0, .L64	@,
 1201 065c 4846     		mov	r0, r9	@, step
 1202 065e 0021     		movs	r1, #0	@,
 1203 0660 FFF7FEFF 		bl	__aeabi_fcmplt	@
 1204 0664 08B1     		cbz	r0, .L64	@,
 1205              	.L84:
 1206 0666 4FF00009 		mov	r9, #0	@ step,
 1207              	.L64:
 1208 066a C6F80490 		str	r9, [r6, #4]	@ float	@ step, Step
 1209 066e FAE4     		b	.L59	@
 1210              	.L129:
 1211              		.align	2
 1212              	.L128:
 1213 0670 00000000 		.word	.LANCHOR13
 1214 0674 00000000 		.word	.LANCHOR14
 1215 0678 F1665FBF 		.word	-1084266767
 1216 067c D90FC93F 		.word	1070141401
 1217              		.size	engineProcess, .-engineProcess
 1218              		.global	step
 1219              		.global	stepSmooth
 1220              		.global	centerPoint
 1221              		.comm	tAll,4,4
 1222              		.global	current_time
 1223              		.global	Kp_y
 1224              		.global	Kp_p
 1225              		.global	myprint
 1226              		.comm	setpoint,4000,4
 1227              		.comm	control_sig,4000,4
 1228              		.comm	time,4000,4
 1229              		.comm	orientation,4000,4
 1230              		.global	RCSmooth
 1231              		.global	Step
 1232              		.global	GyroData
 1233              		.global	AccData
 1234              		.comm	AccAngleSmooth,12,4
 1235              		.comm	CameraOrient,12,4
 1236              		.comm	LakituAngles,12,4
 1237              		.comm	Output,12,4
 1238              		.comm	yaw_angle_correction,4,4
 1239              		.global	yaw_Error_last
 1240              		.global	yaw_setpoint
 1241              		.comm	roll_angle_correction,4,4
 1242              		.global	roll_Error_last
 1243              		.global	roll_setpoint
 1244              		.comm	pitch_angle_correction,4,4
 1245              		.global	pitch_Error_last
 1246              		.global	pitch_setpoint
 1247              		.global	LAKITU_enable
 1248              		.global	debugLAKITU
 1249              		.global	debugAutoPan
 1250              		.global	debugOrient
 1251              		.global	debugRC
 1252              		.global	debugCnt
 1253              		.global	debugSense
 1254              		.global	debugPerf
ARM GAS  C:\cygwin64\tmp\cc2nsY31.s 			page 23


 1255              		.global	debugPrint
 1256              		.section	.bss.roll_setpoint,"aw",%nobits
 1257              		.align	2
 1258              		.set	.LANCHOR0,. + 0
 1259              		.type	roll_setpoint, %object
 1260              		.size	roll_setpoint, 4
 1261              	roll_setpoint:
 1262 0000 00000000 		.space	4
 1263              		.section	.bss.pitchRCOffset,"aw",%nobits
 1264              		.align	2
 1265              		.set	.LANCHOR17,. + 0
 1266              		.type	pitchRCOffset, %object
 1267              		.size	pitchRCOffset, 4
 1268              	pitchRCOffset:
 1269 0000 00000000 		.space	4
 1270              		.section	.bss.debugCnt,"aw",%nobits
 1271              		.align	2
 1272              		.set	.LANCHOR26,. + 0
 1273              		.type	debugCnt, %object
 1274              		.size	debugCnt, 4
 1275              	debugCnt:
 1276 0000 00000000 		.space	4
 1277              		.section	.bss.debugOrient,"aw",%nobits
 1278              		.align	2
 1279              		.set	.LANCHOR25,. + 0
 1280              		.type	debugOrient, %object
 1281              		.size	debugOrient, 4
 1282              	debugOrient:
 1283 0000 00000000 		.space	4
 1284              		.section	.bss.yaw_setpoint,"aw",%nobits
 1285              		.align	2
 1286              		.set	.LANCHOR4,. + 0
 1287              		.type	yaw_setpoint, %object
 1288              		.size	yaw_setpoint, 4
 1289              	yaw_setpoint:
 1290 0000 00000000 		.space	4
 1291              		.section	.bss.myprint,"aw",%nobits
 1292              		.align	2
 1293              		.type	myprint, %object
 1294              		.size	myprint, 4
 1295              	myprint:
 1296 0000 00000000 		.space	4
 1297              		.section	.bss.centerPoint,"aw",%nobits
 1298              		.align	2
 1299              		.set	.LANCHOR7,. + 0
 1300              		.type	centerPoint, %object
 1301              		.size	centerPoint, 4
 1302              	centerPoint:
 1303 0000 00000000 		.space	4
 1304              		.section	.bss.Step,"aw",%nobits
 1305              		.align	2
 1306              		.set	.LANCHOR13,. + 0
 1307              		.type	Step, %object
 1308              		.size	Step, 12
 1309              	Step:
 1310 0000 00000000 		.space	12
 1310      00000000 
ARM GAS  C:\cygwin64\tmp\cc2nsY31.s 			page 24


 1310      00000000 
 1311              		.section	.data.Kp_p,"aw",%progbits
 1312              		.align	2
 1313              		.set	.LANCHOR15,. + 0
 1314              		.type	Kp_p, %object
 1315              		.size	Kp_p, 4
 1316              	Kp_p:
 1317 0000 00008040 		.word	1082130432
 1318              		.section	.data.LAKITU_enable,"aw",%progbits
 1319              		.align	2
 1320              		.set	.LANCHOR12,. + 0
 1321              		.type	LAKITU_enable, %object
 1322              		.size	LAKITU_enable, 4
 1323              	LAKITU_enable:
 1324 0000 01000000 		.word	1
 1325              		.section	.bss.debugAutoPan,"aw",%nobits
 1326              		.align	2
 1327              		.set	.LANCHOR27,. + 0
 1328              		.type	debugAutoPan, %object
 1329              		.size	debugAutoPan, 4
 1330              	debugAutoPan:
 1331 0000 00000000 		.space	4
 1332              		.section	.bss.pitch_Error_last,"aw",%nobits
 1333              		.align	2
 1334              		.set	.LANCHOR3,. + 0
 1335              		.type	pitch_Error_last, %object
 1336              		.size	pitch_Error_last, 4
 1337              	pitch_Error_last:
 1338 0000 00000000 		.space	4
 1339              		.section	.bss.debugPrint,"aw",%nobits
 1340              		.align	2
 1341              		.set	.LANCHOR21,. + 0
 1342              		.type	debugPrint, %object
 1343              		.size	debugPrint, 4
 1344              	debugPrint:
 1345 0000 00000000 		.space	4
 1346              		.section	.rodata.str1.4,"aMS",%progbits,1
 1347              		.align	2
 1348              	.LC0:
 1349 0000 4C6F6F70 		.ascii	"Loop: %7d, I2CErrors: %d, angles: roll %7.2f, pitch"
 1349      3A202537 
 1349      642C2049 
 1349      32434572 
 1349      726F7273 
 1350 0033 2025372E 		.ascii	" %7.2f, yaw %7.2f\015\012\000"
 1350      32662C20 
 1350      79617720 
 1350      25372E32 
 1350      660D0A00 
 1351 0047 00       		.space	1
 1352              	.LC1:
 1353 0048 20647420 		.ascii	" dt %f, AccData: %8.3f | %8.3f | %8.3f, GyroData %7"
 1353      25662C20 
 1353      41636344 
 1353      6174613A 
 1353      2025382E 
 1354 007b 2E336620 		.ascii	".3f | %7.3f | %7.3f \015\012\000"
ARM GAS  C:\cygwin64\tmp\cc2nsY31.s 			page 25


 1354      7C202537 
 1354      2E336620 
 1354      7C202537 
 1354      2E336620 
 1355 0092 0000     		.space	2
 1356              	.LC2:
 1357 0094 69646C65 		.ascii	"idle: %5.2f%%, time[\302\265s]: attitude est. %4d, "
 1357      3A202535 
 1357      2E326625 
 1357      252C2074 
 1357      696D655B 
 1358 00c1 494D5520 		.ascii	"IMU acc %4d, gyro %4d, angle %4d, calc %4d, PID %4d"
 1358      61636320 
 1358      2534642C 
 1358      20677972 
 1358      6F202534 
 1359 00f4 0D0A00   		.ascii	"\015\012\000"
 1360 00f7 00       		.space	1
 1361              	.LC3:
 1362 00f8 20524332 		.ascii	" RC2avg: %7.2f |  RC3avg: %7.2f |  RC4avg: %7.2f | "
 1362      6176673A 
 1362      2025372E 
 1362      3266207C 
 1362      20205243 
 1363 012b 52537465 		.ascii	"RStep:%7.3f  PStep: %7.3f  YStep: %7.3f\015\012\000"
 1363      703A2537 
 1363      2E336620 
 1363      20505374 
 1363      65703A20 
 1364 0155 000000   		.space	3
 1365              	.LC4:
 1366 0158 526F6C6C 		.ascii	"Roll_setpoint:%12.4f | Pitch_setpoint:%12.4f | Yaw_"
 1366      5F736574 
 1366      706F696E 
 1366      743A2531 
 1366      322E3466 
 1367 018b 73657470 		.ascii	"setpoint:%12.4f\015\012\000"
 1367      6F696E74 
 1367      3A253132 
 1367      2E34660D 
 1367      0A00
 1368 019d 000000   		.space	3
 1369              	.LC5:
 1370 01a0 436F756E 		.ascii	"Counter min %3d, %3d, %3d,  max %4d, %4d, %4d, coun"
 1370      74657220 
 1370      6D696E20 
 1370      2533642C 
 1370      20253364 
 1371 01d3 74202533 		.ascii	"t %3d, %3d, %3d, usbOverrun %4d\015\012\000"
 1371      642C2025 
 1371      33642C20 
 1371      2533642C 
 1371      20757362 
 1372 01f5 000000   		.space	3
 1373              	.LC6:
 1374 01f8 50697463 		.ascii	"Pitch_output:%3.2f | Roll_output:%3.2f | Yaw_output"
 1374      685F6F75 
ARM GAS  C:\cygwin64\tmp\cc2nsY31.s 			page 26


 1374      74707574 
 1374      3A25332E 
 1374      3266207C 
 1375 022b 3A25332E 		.ascii	":%3.2f | centerpoint:%4.4f\012\015\000"
 1375      3266207C 
 1375      2063656E 
 1375      74657270 
 1375      6F696E74 
 1376              	.LC7:
 1377 0248 4C414B49 		.ascii	"LAKITU_pitch:%3.2f | LAKITU_roll:%3.2f | LAKITU_yaw"
 1377      54555F70 
 1377      69746368 
 1377      3A25332E 
 1377      3266207C 
 1378 027b 3A25332E 		.ascii	":%3.2f\012\015\000"
 1378      32660A0D 
 1378      00
 1379              		.section	.bss.AccData,"aw",%nobits
 1380              		.align	2
 1381              		.set	.LANCHOR6,. + 0
 1382              		.type	AccData, %object
 1383              		.size	AccData, 12
 1384              	AccData:
 1385 0000 00000000 		.space	12
 1385      00000000 
 1385      00000000 
 1386              		.section	.bss.stepSmooth,"aw",%nobits
 1387              		.align	2
 1388              		.set	.LANCHOR9,. + 0
 1389              		.type	stepSmooth, %object
 1390              		.size	stepSmooth, 4
 1391              	stepSmooth:
 1392 0000 00000000 		.space	4
 1393              		.section	.bss.GyroData,"aw",%nobits
 1394              		.align	2
 1395              		.set	.LANCHOR11,. + 0
 1396              		.type	GyroData, %object
 1397              		.size	GyroData, 12
 1398              	GyroData:
 1399 0000 00000000 		.space	12
 1399      00000000 
 1399      00000000 
 1400              		.section	.bss.roll_Error_last,"aw",%nobits
 1401              		.align	2
 1402              		.set	.LANCHOR1,. + 0
 1403              		.type	roll_Error_last, %object
 1404              		.size	roll_Error_last, 4
 1405              	roll_Error_last:
 1406 0000 00000000 		.space	4
 1407              		.section	.bss.printcounter,"aw",%nobits
 1408              		.align	2
 1409              		.set	.LANCHOR20,. + 0
 1410              		.type	printcounter, %object
 1411              		.size	printcounter, 4
 1412              	printcounter:
 1413 0000 00000000 		.space	4
 1414              		.section	.bss.pitch_setpoint,"aw",%nobits
ARM GAS  C:\cygwin64\tmp\cc2nsY31.s 			page 27


 1415              		.align	2
 1416              		.set	.LANCHOR2,. + 0
 1417              		.type	pitch_setpoint, %object
 1418              		.size	pitch_setpoint, 4
 1419              	pitch_setpoint:
 1420 0000 00000000 		.space	4
 1421              		.section	.bss.yawRCOffset,"aw",%nobits
 1422              		.align	2
 1423              		.set	.LANCHOR19,. + 0
 1424              		.type	yawRCOffset, %object
 1425              		.size	yawRCOffset, 4
 1426              	yawRCOffset:
 1427 0000 00000000 		.space	4
 1428              		.section	.bss.step,"aw",%nobits
 1429              		.align	2
 1430              		.set	.LANCHOR8,. + 0
 1431              		.type	step, %object
 1432              		.size	step, 4
 1433              	step:
 1434 0000 00000000 		.space	4
 1435              		.section	.bss.loopCounter.5068,"aw",%nobits
 1436              		.align	2
 1437              		.set	.LANCHOR10,. + 0
 1438              		.type	loopCounter.5068, %object
 1439              		.size	loopCounter.5068, 4
 1440              	loopCounter.5068:
 1441 0000 00000000 		.space	4
 1442              		.section	.bss.rollRCOffset,"aw",%nobits
 1443              		.align	2
 1444              		.set	.LANCHOR18,. + 0
 1445              		.type	rollRCOffset, %object
 1446              		.size	rollRCOffset, 4
 1447              	rollRCOffset:
 1448 0000 00000000 		.space	4
 1449              		.section	.data.Kp_y,"aw",%progbits
 1450              		.align	2
 1451              		.set	.LANCHOR16,. + 0
 1452              		.type	Kp_y, %object
 1453              		.size	Kp_y, 4
 1454              	Kp_y:
 1455 0000 00008040 		.word	1082130432
 1456              		.section	.bss.debugSense,"aw",%nobits
 1457              		.align	2
 1458              		.set	.LANCHOR22,. + 0
 1459              		.type	debugSense, %object
 1460              		.size	debugSense, 4
 1461              	debugSense:
 1462 0000 00000000 		.space	4
 1463              		.section	.bss.current_time,"aw",%nobits
 1464              		.align	2
 1465              		.type	current_time, %object
 1466              		.size	current_time, 4
 1467              	current_time:
 1468 0000 00000000 		.space	4
 1469              		.section	.bss.debugLAKITU,"aw",%nobits
 1470              		.align	2
 1471              		.set	.LANCHOR28,. + 0
ARM GAS  C:\cygwin64\tmp\cc2nsY31.s 			page 28


 1472              		.type	debugLAKITU, %object
 1473              		.size	debugLAKITU, 4
 1474              	debugLAKITU:
 1475 0000 00000000 		.space	4
 1476              		.section	.bss.RCSmooth,"aw",%nobits
 1477              		.align	2
 1478              		.set	.LANCHOR14,. + 0
 1479              		.type	RCSmooth, %object
 1480              		.size	RCSmooth, 12
 1481              	RCSmooth:
 1482 0000 00000000 		.space	12
 1482      00000000 
 1482      00000000 
 1483              		.section	.bss.yaw_Error_last,"aw",%nobits
 1484              		.align	2
 1485              		.set	.LANCHOR5,. + 0
 1486              		.type	yaw_Error_last, %object
 1487              		.size	yaw_Error_last, 4
 1488              	yaw_Error_last:
 1489 0000 00000000 		.space	4
 1490              		.section	.bss.debugRC,"aw",%nobits
 1491              		.align	2
 1492              		.set	.LANCHOR24,. + 0
 1493              		.type	debugRC, %object
 1494              		.size	debugRC, 4
 1495              	debugRC:
 1496 0000 00000000 		.space	4
 1497              		.section	.bss.debugPerf,"aw",%nobits
 1498              		.align	2
 1499              		.set	.LANCHOR23,. + 0
 1500              		.type	debugPerf, %object
 1501              		.size	debugPerf, 4
 1502              	debugPerf:
 1503 0000 00000000 		.space	4
 1504              		.ident	"GCC: (GNU Tools for ARM Embedded Processors) 4.8.4 20140526 (release) [ARM/embedded-4_8-br
ARM GAS  C:\cygwin64\tmp\cc2nsY31.s 			page 29

