ARM GAS  C:\cygwin64\tmp\ccxOlZKJ.s 			page 1


   1              		.syntax unified
   2              		.cpu cortex-m3
   3              		.fpu softvfp
   4              		.eabi_attribute 20, 1	@ Tag_ABI_FP_denormal
   5              		.eabi_attribute 21, 1	@ Tag_ABI_FP_exceptions
   6              		.eabi_attribute 23, 3	@ Tag_ABI_FP_number_model
   7              		.eabi_attribute 24, 1	@ Tag_ABI_align8_needed
   8              		.eabi_attribute 25, 1	@ Tag_ABI_align8_preserved
   9              		.eabi_attribute 26, 1	@ Tag_ABI_enum_size
  10              		.eabi_attribute 30, 2	@ Tag_ABI_optimization_goals
  11              		.eabi_attribute 34, 1	@ Tag_CPU_unaligned_access
  12              		.eabi_attribute 18, 4	@ Tag_ABI_PCS_wchar_t
  13              		.file	"pins.c"
  14              	@ GNU C (GNU Tools for ARM Embedded Processors) version 4.8.4 20140526 (release) [ARM/embedded-4_8-
  15              	@	compiled by GNU C version 4.6.4, GMP version 4.3.2, MPFR version 2.4.2, MPC version 0.8.1
  16              	@ GGC heuristics: --param ggc-min-expand=99 --param ggc-min-heapsize=131015
  17              	@ options passed:  -I . -I src -I Libraries -I Libraries/CMSIS/Include
  18              	@ -I Libraries/CMSIS/Device/ST/STM32F10x/Include
  19              	@ -I Libraries/STM32F10x_StdPeriph_Driver/inc
  20              	@ -I Libraries/STM32_USB-FS-Device_Driver/inc -I src/VCP/inc
  21              	@ -imultilib armv7-m
  22              	@ -iprefix c:\program files (x86)\gnu tools arm embedded\4.8 2014q2\bin\../lib/gcc/arm-none-eabi/4.
  23              	@ -isysroot c:\program files (x86)\gnu tools arm embedded\4.8 2014q2\bin\../arm-none-eabi
  24              	@ -MD out/pins.d -MF out/pins.d -MP -MQ out/pins.o -D__USES_INITFINI__
  25              	@ -D STM32F10X_HD -D USE_STDPERIPH_DRIVER src/pins.c -mcpu=cortex-m3
  26              	@ -mthumb -auxbase-strip out/pins.o -O2 -Wall -Wstrict-prototypes -Wextra
  27              	@ -std=gnu99 -ffunction-sections -fdata-sections -fverbose-asm
  28              	@ -fsingle-precision-constant
  29              	@ options enabled:  -faggressive-loop-optimizations -fauto-inc-dec
  30              	@ -fbranch-count-reg -fcaller-saves -fcombine-stack-adjustments -fcommon
  31              	@ -fcompare-elim -fcprop-registers -fcrossjumping -fcse-follow-jumps
  32              	@ -fdata-sections -fdefer-pop -fdelete-null-pointer-checks -fdevirtualize
  33              	@ -fdwarf2-cfi-asm -fearly-inlining -feliminate-unused-debug-types
  34              	@ -fexpensive-optimizations -fforward-propagate -ffunction-cse
  35              	@ -ffunction-sections -fgcse -fgcse-lm -fgnu-runtime
  36              	@ -fguess-branch-probability -fhoist-adjacent-loads -fident -fif-conversion
  37              	@ -fif-conversion2 -findirect-inlining -finline -finline-atomics
  38              	@ -finline-functions-called-once -finline-small-functions -fipa-cp
  39              	@ -fipa-profile -fipa-pure-const -fipa-reference -fipa-sra
  40              	@ -fira-hoist-pressure -fira-share-save-slots -fira-share-spill-slots
  41              	@ -fivopts -fkeep-static-consts -fleading-underscore -fmath-errno
  42              	@ -fmerge-constants -fmerge-debug-strings -fmove-loop-invariants
  43              	@ -fomit-frame-pointer -foptimize-register-move -foptimize-sibling-calls
  44              	@ -foptimize-strlen -fpartial-inlining -fpeephole -fpeephole2
  45              	@ -fprefetch-loop-arrays -freg-struct-return -fregmove -freorder-blocks
  46              	@ -freorder-functions -frerun-cse-after-loop
  47              	@ -fsched-critical-path-heuristic -fsched-dep-count-heuristic
  48              	@ -fsched-group-heuristic -fsched-interblock -fsched-last-insn-heuristic
  49              	@ -fsched-pressure -fsched-rank-heuristic -fsched-spec
  50              	@ -fsched-spec-insn-heuristic -fsched-stalled-insns-dep -fschedule-insns
  51              	@ -fschedule-insns2 -fsection-anchors -fshow-column -fshrink-wrap
  52              	@ -fsigned-zeros -fsingle-precision-constant -fsplit-ivs-in-unroller
  53              	@ -fsplit-wide-types -fstrict-aliasing -fstrict-overflow
  54              	@ -fstrict-volatile-bitfields -fsync-libcalls -fthread-jumps
  55              	@ -ftoplevel-reorder -ftrapping-math -ftree-bit-ccp -ftree-builtin-call-dce
  56              	@ -ftree-ccp -ftree-ch -ftree-coalesce-vars -ftree-copy-prop
  57              	@ -ftree-copyrename -ftree-cselim -ftree-dce -ftree-dominator-opts
ARM GAS  C:\cygwin64\tmp\ccxOlZKJ.s 			page 2


  58              	@ -ftree-dse -ftree-forwprop -ftree-fre -ftree-loop-if-convert
  59              	@ -ftree-loop-im -ftree-loop-ivcanon -ftree-loop-optimize
  60              	@ -ftree-parallelize-loops= -ftree-phiprop -ftree-pre -ftree-pta
  61              	@ -ftree-reassoc -ftree-scev-cprop -ftree-sink -ftree-slp-vectorize
  62              	@ -ftree-slsr -ftree-sra -ftree-switch-conversion -ftree-tail-merge
  63              	@ -ftree-ter -ftree-vect-loop-version -ftree-vrp -funit-at-a-time
  64              	@ -fverbose-asm -fzero-initialized-in-bss -mfix-cortex-m3-ldrd
  65              	@ -mlittle-endian -mpic-data-is-text-relative -msched-prolog -mthumb
  66              	@ -munaligned-access -mvectorize-with-neon-quad
  67              	
  68              		.section	.text.GPIO_Config,"ax",%progbits
  69              		.align	2
  70              		.global	GPIO_Config
  71              		.thumb
  72              		.thumb_func
  73              		.type	GPIO_Config, %function
  74              	GPIO_Config:
  75              		@ args = 0, pretend = 0, frame = 8
  76              		@ frame_needed = 0, uses_anonymous_args = 0
  77 0000 2DE9F043 		push	{r4, r5, r6, r7, r8, r9, lr}	@
  78 0004 DFF80081 		ldr	r8, .L2+8	@ tmp116,
  79 0008 83B0     		sub	sp, sp, #12	@,,
  80 000a 3D4E     		ldr	r6, .L2	@ tmp124,
  81 000c 1825     		movs	r5, #24	@ tmp112,
  82 000e 0224     		movs	r4, #2	@ tmp114,
  83 0010 4046     		mov	r0, r8	@, tmp116
  84 0012 01A9     		add	r1, sp, #4	@,,
  85 0014 4FF4E063 		mov	r3, #1792	@ tmp111,
  86 0018 ADF80430 		strh	r3, [sp, #4]	@ movhi	@ tmp111, GPIO_InitStructure.GPIO_Pin
  87 001c 8DF80640 		strb	r4, [sp, #6]	@ tmp114, GPIO_InitStructure.GPIO_Speed
  88 0020 8DF80750 		strb	r5, [sp, #7]	@ tmp112, GPIO_InitStructure.GPIO_Mode
  89 0024 FFF7FEFF 		bl	GPIO_Init	@
  90 0028 4FF46043 		mov	r3, #57344	@ tmp119,
  91 002c 01A9     		add	r1, sp, #4	@,,
  92 002e 3046     		mov	r0, r6	@, tmp124
  93 0030 ADF80430 		strh	r3, [sp, #4]	@ movhi	@ tmp119, GPIO_InitStructure.GPIO_Pin
  94 0034 8DF80640 		strb	r4, [sp, #6]	@ tmp114, GPIO_InitStructure.GPIO_Speed
  95 0038 4FF4E079 		mov	r9, #448	@ tmp127,
  96 003c 8DF80750 		strb	r5, [sp, #7]	@ tmp112, GPIO_InitStructure.GPIO_Mode
  97 0040 FFF7FEFF 		bl	GPIO_Init	@
  98 0044 01A9     		add	r1, sp, #4	@,,
  99 0046 2F48     		ldr	r0, .L2+4	@,
 100 0048 8DF80640 		strb	r4, [sp, #6]	@ tmp114, GPIO_InitStructure.GPIO_Speed
 101 004c 8DF80750 		strb	r5, [sp, #7]	@ tmp112, GPIO_InitStructure.GPIO_Mode
 102 0050 ADF80490 		strh	r9, [sp, #4]	@ movhi	@ tmp127, GPIO_InitStructure.GPIO_Pin
 103 0054 FFF7FEFF 		bl	GPIO_Init	@
 104 0058 8023     		movs	r3, #128	@ tmp135,
 105 005a 4046     		mov	r0, r8	@, tmp116
 106 005c 01A9     		add	r1, sp, #4	@,,
 107 005e 0327     		movs	r7, #3	@ tmp143,
 108 0060 ADF80430 		strh	r3, [sp, #4]	@ movhi	@ tmp135, GPIO_InitStructure.GPIO_Pin
 109 0064 8DF80640 		strb	r4, [sp, #6]	@ tmp114, GPIO_InitStructure.GPIO_Speed
 110 0068 8DF80750 		strb	r5, [sp, #7]	@ tmp112, GPIO_InitStructure.GPIO_Mode
 111 006c FFF7FEFF 		bl	GPIO_Init	@
 112 0070 3046     		mov	r0, r6	@, tmp124
 113 0072 01A9     		add	r1, sp, #4	@,,
 114 0074 8DF80640 		strb	r4, [sp, #6]	@ tmp114, GPIO_InitStructure.GPIO_Speed
ARM GAS  C:\cygwin64\tmp\ccxOlZKJ.s 			page 3


 115 0078 8DF80750 		strb	r5, [sp, #7]	@ tmp112, GPIO_InitStructure.GPIO_Mode
 116 007c ADF80470 		strh	r7, [sp, #4]	@ movhi	@ tmp143, GPIO_InitStructure.GPIO_Pin
 117 0080 FFF7FEFF 		bl	GPIO_Init	@
 118 0084 0723     		movs	r3, #7	@ tmp151,
 119 0086 4046     		mov	r0, r8	@, tmp116
 120 0088 01A9     		add	r1, sp, #4	@,,
 121 008a ADF80430 		strh	r3, [sp, #4]	@ movhi	@ tmp151, GPIO_InitStructure.GPIO_Pin
 122 008e 8DF80640 		strb	r4, [sp, #6]	@ tmp114, GPIO_InitStructure.GPIO_Speed
 123 0092 8DF80750 		strb	r5, [sp, #7]	@ tmp112, GPIO_InitStructure.GPIO_Mode
 124 0096 FFF7FEFF 		bl	GPIO_Init	@
 125 009a 3046     		mov	r0, r6	@, tmp124
 126 009c 01A9     		add	r1, sp, #4	@,,
 127 009e 8DF80640 		strb	r4, [sp, #6]	@ tmp114, GPIO_InitStructure.GPIO_Speed
 128 00a2 ADF80490 		strh	r9, [sp, #4]	@ movhi	@ tmp127, GPIO_InitStructure.GPIO_Pin
 129 00a6 1024     		movs	r4, #16	@ tmp168,
 130 00a8 8DF80750 		strb	r5, [sp, #7]	@ tmp112, GPIO_InitStructure.GPIO_Mode
 131 00ac FFF7FEFF 		bl	GPIO_Init	@
 132 00b0 3046     		mov	r0, r6	@, tmp124
 133 00b2 01A9     		add	r1, sp, #4	@,,
 134 00b4 4FF48053 		mov	r3, #4096	@ tmp167,
 135 00b8 ADF80430 		strh	r3, [sp, #4]	@ movhi	@ tmp167, GPIO_InitStructure.GPIO_Pin
 136 00bc 8DF80670 		strb	r7, [sp, #6]	@ tmp143, GPIO_InitStructure.GPIO_Speed
 137 00c0 8DF80740 		strb	r4, [sp, #7]	@ tmp168, GPIO_InitStructure.GPIO_Mode
 138 00c4 FFF7FEFF 		bl	GPIO_Init	@
 139 00c8 4046     		mov	r0, r8	@, tmp116
 140 00ca 01A9     		add	r1, sp, #4	@,,
 141 00cc 0823     		movs	r3, #8	@ tmp175,
 142 00ce ADF80430 		strh	r3, [sp, #4]	@ movhi	@ tmp175, GPIO_InitStructure.GPIO_Pin
 143 00d2 8DF80740 		strb	r4, [sp, #7]	@ tmp168, GPIO_InitStructure.GPIO_Mode
 144 00d6 8DF80670 		strb	r7, [sp, #6]	@ tmp143, GPIO_InitStructure.GPIO_Speed
 145 00da FFF7FEFF 		bl	GPIO_Init	@
 146 00de 4FF44062 		mov	r2, #3072	@ tmp183,
 147 00e2 1423     		movs	r3, #20	@ tmp184,
 148 00e4 3046     		mov	r0, r6	@, tmp124
 149 00e6 01A9     		add	r1, sp, #4	@,,
 150 00e8 8DF80670 		strb	r7, [sp, #6]	@ tmp143, GPIO_InitStructure.GPIO_Speed
 151 00ec ADF80420 		strh	r2, [sp, #4]	@ movhi	@ tmp183, GPIO_InitStructure.GPIO_Pin
 152 00f0 8DF80730 		strb	r3, [sp, #7]	@ tmp184, GPIO_InitStructure.GPIO_Mode
 153 00f4 FFF7FEFF 		bl	GPIO_Init	@
 154 00f8 03B0     		add	sp, sp, #12	@,,
 155              		@ sp needed	@
 156 00fa BDE8F083 		pop	{r4, r5, r6, r7, r8, r9, pc}	@
 157              	.L3:
 158 00fe 00BF     		.align	2
 159              	.L2:
 160 0100 000C0140 		.word	1073810432
 161 0104 00100140 		.word	1073811456
 162 0108 00080140 		.word	1073809408
 163              		.size	GPIO_Config, .-GPIO_Config
 164              		.ident	"GCC: (GNU Tools for ARM Embedded Processors) 4.8.4 20140526 (release) [ARM/embedded-4_8-br
ARM GAS  C:\cygwin64\tmp\ccxOlZKJ.s 			page 4


DEFINED SYMBOLS
                            *ABS*:00000000 pins.c
C:\cygwin64\tmp\ccxOlZKJ.s:69     .text.GPIO_Config:00000000 $t
C:\cygwin64\tmp\ccxOlZKJ.s:74     .text.GPIO_Config:00000000 GPIO_Config
C:\cygwin64\tmp\ccxOlZKJ.s:160    .text.GPIO_Config:00000100 $d

UNDEFINED SYMBOLS
GPIO_Init
