Archive member included because of file (symbol)

c:/program files (x86)/gnu tools arm embedded/4.8 2014q2/bin/../lib/gcc/arm-none-eabi/4.8.4/../../../../arm-none-eabi/lib/armv7-m\libm.a(lib_a-s_sin.o)
                              out/pwm.o (sin)
c:/program files (x86)/gnu tools arm embedded/4.8 2014q2/bin/../lib/gcc/arm-none-eabi/4.8.4/../../../../arm-none-eabi/lib/armv7-m\libm.a(lib_a-sf_cos.o)
                              out/engine.o (cosf)
c:/program files (x86)/gnu tools arm embedded/4.8 2014q2/bin/../lib/gcc/arm-none-eabi/4.8.4/../../../../arm-none-eabi/lib/armv7-m\libm.a(lib_a-sf_sin.o)
                              out/engine.o (sinf)
c:/program files (x86)/gnu tools arm embedded/4.8 2014q2/bin/../lib/gcc/arm-none-eabi/4.8.4/../../../../arm-none-eabi/lib/armv7-m\libm.a(lib_a-wf_atan2.o)
                              out/engine.o (atan2f)
c:/program files (x86)/gnu tools arm embedded/4.8 2014q2/bin/../lib/gcc/arm-none-eabi/4.8.4/../../../../arm-none-eabi/lib/armv7-m\libm.a(lib_a-wf_fmod.o)
                              out/pwm.o (fmodf)
c:/program files (x86)/gnu tools arm embedded/4.8 2014q2/bin/../lib/gcc/arm-none-eabi/4.8.4/../../../../arm-none-eabi/lib/armv7-m\libm.a(lib_a-wf_sqrt.o)
                              out/engine.o (sqrtf)
c:/program files (x86)/gnu tools arm embedded/4.8 2014q2/bin/../lib/gcc/arm-none-eabi/4.8.4/../../../../arm-none-eabi/lib/armv7-m\libm.a(lib_a-e_rem_pio2.o)
                              c:/program files (x86)/gnu tools arm embedded/4.8 2014q2/bin/../lib/gcc/arm-none-eabi/4.8.4/../../../../arm-none-eabi/lib/armv7-m\libm.a(lib_a-s_sin.o) (__ieee754_rem_pio2)
c:/program files (x86)/gnu tools arm embedded/4.8 2014q2/bin/../lib/gcc/arm-none-eabi/4.8.4/../../../../arm-none-eabi/lib/armv7-m\libm.a(lib_a-ef_atan2.o)
                              c:/program files (x86)/gnu tools arm embedded/4.8 2014q2/bin/../lib/gcc/arm-none-eabi/4.8.4/../../../../arm-none-eabi/lib/armv7-m\libm.a(lib_a-wf_atan2.o) (__ieee754_atan2f)
c:/program files (x86)/gnu tools arm embedded/4.8 2014q2/bin/../lib/gcc/arm-none-eabi/4.8.4/../../../../arm-none-eabi/lib/armv7-m\libm.a(lib_a-ef_fmod.o)
                              c:/program files (x86)/gnu tools arm embedded/4.8 2014q2/bin/../lib/gcc/arm-none-eabi/4.8.4/../../../../arm-none-eabi/lib/armv7-m\libm.a(lib_a-wf_fmod.o) (__ieee754_fmodf)
c:/program files (x86)/gnu tools arm embedded/4.8 2014q2/bin/../lib/gcc/arm-none-eabi/4.8.4/../../../../arm-none-eabi/lib/armv7-m\libm.a(lib_a-ef_rem_pio2.o)
                              c:/program files (x86)/gnu tools arm embedded/4.8 2014q2/bin/../lib/gcc/arm-none-eabi/4.8.4/../../../../arm-none-eabi/lib/armv7-m\libm.a(lib_a-sf_cos.o) (__ieee754_rem_pio2f)
c:/program files (x86)/gnu tools arm embedded/4.8 2014q2/bin/../lib/gcc/arm-none-eabi/4.8.4/../../../../arm-none-eabi/lib/armv7-m\libm.a(lib_a-ef_sqrt.o)
                              c:/program files (x86)/gnu tools arm embedded/4.8 2014q2/bin/../lib/gcc/arm-none-eabi/4.8.4/../../../../arm-none-eabi/lib/armv7-m\libm.a(lib_a-wf_sqrt.o) (__ieee754_sqrtf)
c:/program files (x86)/gnu tools arm embedded/4.8 2014q2/bin/../lib/gcc/arm-none-eabi/4.8.4/../../../../arm-none-eabi/lib/armv7-m\libm.a(lib_a-k_cos.o)
                              c:/program files (x86)/gnu tools arm embedded/4.8 2014q2/bin/../lib/gcc/arm-none-eabi/4.8.4/../../../../arm-none-eabi/lib/armv7-m\libm.a(lib_a-s_sin.o) (__kernel_cos)
c:/program files (x86)/gnu tools arm embedded/4.8 2014q2/bin/../lib/gcc/arm-none-eabi/4.8.4/../../../../arm-none-eabi/lib/armv7-m\libm.a(lib_a-k_rem_pio2.o)
                              c:/program files (x86)/gnu tools arm embedded/4.8 2014q2/bin/../lib/gcc/arm-none-eabi/4.8.4/../../../../arm-none-eabi/lib/armv7-m\libm.a(lib_a-e_rem_pio2.o) (__kernel_rem_pio2)
c:/program files (x86)/gnu tools arm embedded/4.8 2014q2/bin/../lib/gcc/arm-none-eabi/4.8.4/../../../../arm-none-eabi/lib/armv7-m\libm.a(lib_a-k_sin.o)
                              c:/program files (x86)/gnu tools arm embedded/4.8 2014q2/bin/../lib/gcc/arm-none-eabi/4.8.4/../../../../arm-none-eabi/lib/armv7-m\libm.a(lib_a-s_sin.o) (__kernel_sin)
c:/program files (x86)/gnu tools arm embedded/4.8 2014q2/bin/../lib/gcc/arm-none-eabi/4.8.4/../../../../arm-none-eabi/lib/armv7-m\libm.a(lib_a-kf_cos.o)
                              c:/program files (x86)/gnu tools arm embedded/4.8 2014q2/bin/../lib/gcc/arm-none-eabi/4.8.4/../../../../arm-none-eabi/lib/armv7-m\libm.a(lib_a-sf_cos.o) (__kernel_cosf)
c:/program files (x86)/gnu tools arm embedded/4.8 2014q2/bin/../lib/gcc/arm-none-eabi/4.8.4/../../../../arm-none-eabi/lib/armv7-m\libm.a(lib_a-kf_rem_pio2.o)
                              c:/program files (x86)/gnu tools arm embedded/4.8 2014q2/bin/../lib/gcc/arm-none-eabi/4.8.4/../../../../arm-none-eabi/lib/armv7-m\libm.a(lib_a-ef_rem_pio2.o) (__kernel_rem_pio2f)
c:/program files (x86)/gnu tools arm embedded/4.8 2014q2/bin/../lib/gcc/arm-none-eabi/4.8.4/../../../../arm-none-eabi/lib/armv7-m\libm.a(lib_a-kf_sin.o)
                              c:/program files (x86)/gnu tools arm embedded/4.8 2014q2/bin/../lib/gcc/arm-none-eabi/4.8.4/../../../../arm-none-eabi/lib/armv7-m\libm.a(lib_a-sf_cos.o) (__kernel_sinf)
c:/program files (x86)/gnu tools arm embedded/4.8 2014q2/bin/../lib/gcc/arm-none-eabi/4.8.4/../../../../arm-none-eabi/lib/armv7-m\libm.a(lib_a-s_fabs.o)
                              c:/program files (x86)/gnu tools arm embedded/4.8 2014q2/bin/../lib/gcc/arm-none-eabi/4.8.4/../../../../arm-none-eabi/lib/armv7-m\libm.a(lib_a-e_rem_pio2.o) (fabs)
c:/program files (x86)/gnu tools arm embedded/4.8 2014q2/bin/../lib/gcc/arm-none-eabi/4.8.4/../../../../arm-none-eabi/lib/armv7-m\libm.a(lib_a-s_floor.o)
                              c:/program files (x86)/gnu tools arm embedded/4.8 2014q2/bin/../lib/gcc/arm-none-eabi/4.8.4/../../../../arm-none-eabi/lib/armv7-m\libm.a(lib_a-k_rem_pio2.o) (floor)
c:/program files (x86)/gnu tools arm embedded/4.8 2014q2/bin/../lib/gcc/arm-none-eabi/4.8.4/../../../../arm-none-eabi/lib/armv7-m\libm.a(lib_a-s_lib_ver.o)
                              c:/program files (x86)/gnu tools arm embedded/4.8 2014q2/bin/../lib/gcc/arm-none-eabi/4.8.4/../../../../arm-none-eabi/lib/armv7-m\libm.a(lib_a-wf_fmod.o) (__fdlib_version)
c:/program files (x86)/gnu tools arm embedded/4.8 2014q2/bin/../lib/gcc/arm-none-eabi/4.8.4/../../../../arm-none-eabi/lib/armv7-m\libm.a(lib_a-s_matherr.o)
                              c:/program files (x86)/gnu tools arm embedded/4.8 2014q2/bin/../lib/gcc/arm-none-eabi/4.8.4/../../../../arm-none-eabi/lib/armv7-m\libm.a(lib_a-wf_fmod.o) (matherr)
c:/program files (x86)/gnu tools arm embedded/4.8 2014q2/bin/../lib/gcc/arm-none-eabi/4.8.4/../../../../arm-none-eabi/lib/armv7-m\libm.a(lib_a-s_scalbn.o)
                              c:/program files (x86)/gnu tools arm embedded/4.8 2014q2/bin/../lib/gcc/arm-none-eabi/4.8.4/../../../../arm-none-eabi/lib/armv7-m\libm.a(lib_a-k_rem_pio2.o) (scalbn)
c:/program files (x86)/gnu tools arm embedded/4.8 2014q2/bin/../lib/gcc/arm-none-eabi/4.8.4/../../../../arm-none-eabi/lib/armv7-m\libm.a(lib_a-sf_atan.o)
                              c:/program files (x86)/gnu tools arm embedded/4.8 2014q2/bin/../lib/gcc/arm-none-eabi/4.8.4/../../../../arm-none-eabi/lib/armv7-m\libm.a(lib_a-ef_atan2.o) (atanf)
c:/program files (x86)/gnu tools arm embedded/4.8 2014q2/bin/../lib/gcc/arm-none-eabi/4.8.4/../../../../arm-none-eabi/lib/armv7-m\libm.a(lib_a-sf_fabs.o)
                              c:/program files (x86)/gnu tools arm embedded/4.8 2014q2/bin/../lib/gcc/arm-none-eabi/4.8.4/../../../../arm-none-eabi/lib/armv7-m\libm.a(lib_a-ef_atan2.o) (fabsf)
c:/program files (x86)/gnu tools arm embedded/4.8 2014q2/bin/../lib/gcc/arm-none-eabi/4.8.4/../../../../arm-none-eabi/lib/armv7-m\libm.a(lib_a-sf_floor.o)
                              c:/program files (x86)/gnu tools arm embedded/4.8 2014q2/bin/../lib/gcc/arm-none-eabi/4.8.4/../../../../arm-none-eabi/lib/armv7-m\libm.a(lib_a-kf_rem_pio2.o) (floorf)
c:/program files (x86)/gnu tools arm embedded/4.8 2014q2/bin/../lib/gcc/arm-none-eabi/4.8.4/../../../../arm-none-eabi/lib/armv7-m\libm.a(lib_a-sf_fpclassify.o)
                              c:/program files (x86)/gnu tools arm embedded/4.8 2014q2/bin/../lib/gcc/arm-none-eabi/4.8.4/../../../../arm-none-eabi/lib/armv7-m\libm.a(lib_a-wf_fmod.o) (__fpclassifyf)
c:/program files (x86)/gnu tools arm embedded/4.8 2014q2/bin/../lib/gcc/arm-none-eabi/4.8.4/../../../../arm-none-eabi/lib/armv7-m\libm.a(lib_a-sf_scalbn.o)
                              c:/program files (x86)/gnu tools arm embedded/4.8 2014q2/bin/../lib/gcc/arm-none-eabi/4.8.4/../../../../arm-none-eabi/lib/armv7-m\libm.a(lib_a-kf_rem_pio2.o) (scalbnf)
c:/program files (x86)/gnu tools arm embedded/4.8 2014q2/bin/../lib/gcc/arm-none-eabi/4.8.4/../../../../arm-none-eabi/lib/armv7-m\libm.a(lib_a-s_copysign.o)
                              c:/program files (x86)/gnu tools arm embedded/4.8 2014q2/bin/../lib/gcc/arm-none-eabi/4.8.4/../../../../arm-none-eabi/lib/armv7-m\libm.a(lib_a-s_scalbn.o) (copysign)
c:/program files (x86)/gnu tools arm embedded/4.8 2014q2/bin/../lib/gcc/arm-none-eabi/4.8.4/../../../../arm-none-eabi/lib/armv7-m\libm.a(lib_a-sf_copysign.o)
                              c:/program files (x86)/gnu tools arm embedded/4.8 2014q2/bin/../lib/gcc/arm-none-eabi/4.8.4/../../../../arm-none-eabi/lib/armv7-m\libm.a(lib_a-sf_scalbn.o) (copysignf)
c:/program files (x86)/gnu tools arm embedded/4.8 2014q2/bin/../lib/gcc/arm-none-eabi/4.8.4/armv7-m\libgcc.a(_arm_addsubdf3.o)
                              c:/program files (x86)/gnu tools arm embedded/4.8 2014q2/bin/../lib/gcc/arm-none-eabi/4.8.4/../../../../arm-none-eabi/lib/armv7-m\libm.a(lib_a-s_sin.o) (__aeabi_dsub)
c:/program files (x86)/gnu tools arm embedded/4.8 2014q2/bin/../lib/gcc/arm-none-eabi/4.8.4/armv7-m\libgcc.a(_arm_muldivdf3.o)
                              out/pwm.o (__aeabi_dmul)
c:/program files (x86)/gnu tools arm embedded/4.8 2014q2/bin/../lib/gcc/arm-none-eabi/4.8.4/armv7-m\libgcc.a(_arm_cmpdf2.o)
                              c:/program files (x86)/gnu tools arm embedded/4.8 2014q2/bin/../lib/gcc/arm-none-eabi/4.8.4/../../../../arm-none-eabi/lib/armv7-m\libm.a(lib_a-e_rem_pio2.o) (__aeabi_dcmpeq)
c:/program files (x86)/gnu tools arm embedded/4.8 2014q2/bin/../lib/gcc/arm-none-eabi/4.8.4/armv7-m\libgcc.a(_arm_fixdfsi.o)
                              out/pwm.o (__aeabi_d2iz)
c:/program files (x86)/gnu tools arm embedded/4.8 2014q2/bin/../lib/gcc/arm-none-eabi/4.8.4/armv7-m\libgcc.a(_arm_truncdfsf2.o)
                              c:/program files (x86)/gnu tools arm embedded/4.8 2014q2/bin/../lib/gcc/arm-none-eabi/4.8.4/../../../../arm-none-eabi/lib/armv7-m\libm.a(lib_a-wf_fmod.o) (__aeabi_d2f)
c:/program files (x86)/gnu tools arm embedded/4.8 2014q2/bin/../lib/gcc/arm-none-eabi/4.8.4/armv7-m\libgcc.a(_arm_addsubsf3.o)
                              out/engine.o (__aeabi_fsub)
c:/program files (x86)/gnu tools arm embedded/4.8 2014q2/bin/../lib/gcc/arm-none-eabi/4.8.4/armv7-m\libgcc.a(_arm_muldivsf3.o)
                              out/engine.o (__aeabi_fmul)
c:/program files (x86)/gnu tools arm embedded/4.8 2014q2/bin/../lib/gcc/arm-none-eabi/4.8.4/armv7-m\libgcc.a(_arm_cmpsf2.o)
                              c:/program files (x86)/gnu tools arm embedded/4.8 2014q2/bin/../lib/gcc/arm-none-eabi/4.8.4/../../../../arm-none-eabi/lib/armv7-m\libm.a(lib_a-wf_fmod.o) (__aeabi_fcmpeq)
c:/program files (x86)/gnu tools arm embedded/4.8 2014q2/bin/../lib/gcc/arm-none-eabi/4.8.4/armv7-m\libgcc.a(_arm_fixsfsi.o)
                              out/pwm.o (__aeabi_f2iz)
c:/program files (x86)/gnu tools arm embedded/4.8 2014q2/bin/../lib/gcc/arm-none-eabi/4.8.4/../../../../arm-none-eabi/lib/armv7-m\libc.a(lib_a-errno.o)
                              c:/program files (x86)/gnu tools arm embedded/4.8 2014q2/bin/../lib/gcc/arm-none-eabi/4.8.4/../../../../arm-none-eabi/lib/armv7-m\libm.a(lib_a-wf_fmod.o) (__errno)
c:/program files (x86)/gnu tools arm embedded/4.8 2014q2/bin/../lib/gcc/arm-none-eabi/4.8.4/../../../../arm-none-eabi/lib/armv7-m\libc.a(lib_a-impure.o)
                              c:/program files (x86)/gnu tools arm embedded/4.8 2014q2/bin/../lib/gcc/arm-none-eabi/4.8.4/../../../../arm-none-eabi/lib/armv7-m\libc.a(lib_a-errno.o) (_impure_ptr)
c:/program files (x86)/gnu tools arm embedded/4.8 2014q2/bin/../lib/gcc/arm-none-eabi/4.8.4/../../../../arm-none-eabi/lib/armv7-m\libc.a(lib_a-init.o)
                              out/startup_stm32f10x_hd.o (__libc_init_array)
c:/program files (x86)/gnu tools arm embedded/4.8 2014q2/bin/../lib/gcc/arm-none-eabi/4.8.4/../../../../arm-none-eabi/lib/armv7-m\libc.a(lib_a-memcpy.o)
                              out/ringbuffer.o (memcpy)
c:/program files (x86)/gnu tools arm embedded/4.8 2014q2/bin/../lib/gcc/arm-none-eabi/4.8.4/../../../../arm-none-eabi/lib/armv7-m\libc.a(lib_a-reent.o)
                              out/newlib_stubs.o (errno)
c:/program files (x86)/gnu tools arm embedded/4.8 2014q2/bin/../lib/gcc/arm-none-eabi/4.8.4/../../../../arm-none-eabi/lib/armv7-m\libc.a(lib_a-strlen.o)
                              out/comio.o (strlen)
c:/program files (x86)/gnu tools arm embedded/4.8 2014q2/bin/../lib/gcc/arm-none-eabi/4.8.4/../../../../arm-none-eabi/lib/armv7-m\libc.a(lib_a-vsnprintf.o)
                              out/comio.o (vsnprintf)
c:/program files (x86)/gnu tools arm embedded/4.8 2014q2/bin/../lib/gcc/arm-none-eabi/4.8.4/../../../../arm-none-eabi/lib/armv7-m\libc.a(lib_a-freer.o)
                              c:/program files (x86)/gnu tools arm embedded/4.8 2014q2/bin/../lib/gcc/arm-none-eabi/4.8.4/../../../../arm-none-eabi/lib/armv7-m\libc.a(lib_a-reent.o) (_free_r)
c:/program files (x86)/gnu tools arm embedded/4.8 2014q2/bin/../lib/gcc/arm-none-eabi/4.8.4/../../../../arm-none-eabi/lib/armv7-m\libc.a(lib_a-mallocr.o)
                              c:/program files (x86)/gnu tools arm embedded/4.8 2014q2/bin/../lib/gcc/arm-none-eabi/4.8.4/../../../../arm-none-eabi/lib/armv7-m\libc.a(lib_a-freer.o) (__malloc_current_mallinfo)
c:/program files (x86)/gnu tools arm embedded/4.8 2014q2/bin/../lib/gcc/arm-none-eabi/4.8.4/../../../../arm-none-eabi/lib/armv7-m\libc.a(lib_a-mlock.o)
                              c:/program files (x86)/gnu tools arm embedded/4.8 2014q2/bin/../lib/gcc/arm-none-eabi/4.8.4/../../../../arm-none-eabi/lib/armv7-m\libc.a(lib_a-freer.o) (__malloc_lock)
c:/program files (x86)/gnu tools arm embedded/4.8 2014q2/bin/../lib/gcc/arm-none-eabi/4.8.4/../../../../arm-none-eabi/lib/armv7-m\libc.a(lib_a-sbrkr.o)
                              c:/program files (x86)/gnu tools arm embedded/4.8 2014q2/bin/../lib/gcc/arm-none-eabi/4.8.4/../../../../arm-none-eabi/lib/armv7-m\libc.a(lib_a-freer.o) (_sbrk_r)
c:/program files (x86)/gnu tools arm embedded/4.8 2014q2/bin/../lib/gcc/arm-none-eabi/4.8.4/../../../../arm-none-eabi/lib/armv7-m\libc.a(lib_a-svfprintf.o)
                              c:/program files (x86)/gnu tools arm embedded/4.8 2014q2/bin/../lib/gcc/arm-none-eabi/4.8.4/../../../../arm-none-eabi/lib/armv7-m\libc.a(lib_a-vsnprintf.o) (_svfprintf_r)
c:/program files (x86)/gnu tools arm embedded/4.8 2014q2/bin/../lib/gcc/arm-none-eabi/4.8.4/../../../../arm-none-eabi/lib/armv7-m\libc.a(lib_a-dtoa.o)
                              c:/program files (x86)/gnu tools arm embedded/4.8 2014q2/bin/../lib/gcc/arm-none-eabi/4.8.4/../../../../arm-none-eabi/lib/armv7-m\libc.a(lib_a-svfprintf.o) (_dtoa_r)
c:/program files (x86)/gnu tools arm embedded/4.8 2014q2/bin/../lib/gcc/arm-none-eabi/4.8.4/../../../../arm-none-eabi/lib/armv7-m\libc.a(lib_a-locale.o)
                              c:/program files (x86)/gnu tools arm embedded/4.8 2014q2/bin/../lib/gcc/arm-none-eabi/4.8.4/../../../../arm-none-eabi/lib/armv7-m\libc.a(lib_a-svfprintf.o) (_localeconv_r)
c:/program files (x86)/gnu tools arm embedded/4.8 2014q2/bin/../lib/gcc/arm-none-eabi/4.8.4/../../../../arm-none-eabi/lib/armv7-m\libc.a(lib_a-memchr-stub.o)
                              c:/program files (x86)/gnu tools arm embedded/4.8 2014q2/bin/../lib/gcc/arm-none-eabi/4.8.4/../../../../arm-none-eabi/lib/armv7-m\libc.a(lib_a-svfprintf.o) (memchr)
c:/program files (x86)/gnu tools arm embedded/4.8 2014q2/bin/../lib/gcc/arm-none-eabi/4.8.4/../../../../arm-none-eabi/lib/armv7-m\libc.a(lib_a-mprec.o)
                              c:/program files (x86)/gnu tools arm embedded/4.8 2014q2/bin/../lib/gcc/arm-none-eabi/4.8.4/../../../../arm-none-eabi/lib/armv7-m\libc.a(lib_a-dtoa.o) (_Balloc)
c:/program files (x86)/gnu tools arm embedded/4.8 2014q2/bin/../lib/gcc/arm-none-eabi/4.8.4/../../../../arm-none-eabi/lib/armv7-m\libc.a(lib_a-s_fpclassify.o)
                              c:/program files (x86)/gnu tools arm embedded/4.8 2014q2/bin/../lib/gcc/arm-none-eabi/4.8.4/../../../../arm-none-eabi/lib/armv7-m\libc.a(lib_a-svfprintf.o) (__fpclassifyd)
c:/program files (x86)/gnu tools arm embedded/4.8 2014q2/bin/../lib/gcc/arm-none-eabi/4.8.4/../../../../arm-none-eabi/lib/armv7-m\libc.a(lib_a-strcmp.o)
                              c:/program files (x86)/gnu tools arm embedded/4.8 2014q2/bin/../lib/gcc/arm-none-eabi/4.8.4/../../../../arm-none-eabi/lib/armv7-m\libc.a(lib_a-locale.o) (strcmp)
c:/program files (x86)/gnu tools arm embedded/4.8 2014q2/bin/../lib/gcc/arm-none-eabi/4.8.4/../../../../arm-none-eabi/lib/armv7-m\libc.a(lib_a-svfiprintf.o)
                              c:/program files (x86)/gnu tools arm embedded/4.8 2014q2/bin/../lib/gcc/arm-none-eabi/4.8.4/../../../../arm-none-eabi/lib/armv7-m\libc.a(lib_a-svfprintf.o) (__ssprint_r)
c:/program files (x86)/gnu tools arm embedded/4.8 2014q2/bin/../lib/gcc/arm-none-eabi/4.8.4/../../../../arm-none-eabi/lib/armv7-m\libc.a(lib_a-callocr.o)
                              c:/program files (x86)/gnu tools arm embedded/4.8 2014q2/bin/../lib/gcc/arm-none-eabi/4.8.4/../../../../arm-none-eabi/lib/armv7-m\libc.a(lib_a-mprec.o) (_calloc_r)
c:/program files (x86)/gnu tools arm embedded/4.8 2014q2/bin/../lib/gcc/arm-none-eabi/4.8.4/../../../../arm-none-eabi/lib/armv7-m\libc.a(lib_a-memmove.o)
                              c:/program files (x86)/gnu tools arm embedded/4.8 2014q2/bin/../lib/gcc/arm-none-eabi/4.8.4/../../../../arm-none-eabi/lib/armv7-m\libc.a(lib_a-svfiprintf.o) (memmove)
c:/program files (x86)/gnu tools arm embedded/4.8 2014q2/bin/../lib/gcc/arm-none-eabi/4.8.4/../../../../arm-none-eabi/lib/armv7-m\libc.a(lib_a-memset.o)
                              c:/program files (x86)/gnu tools arm embedded/4.8 2014q2/bin/../lib/gcc/arm-none-eabi/4.8.4/../../../../arm-none-eabi/lib/armv7-m\libc.a(lib_a-callocr.o) (memset)
c:/program files (x86)/gnu tools arm embedded/4.8 2014q2/bin/../lib/gcc/arm-none-eabi/4.8.4/../../../../arm-none-eabi/lib/armv7-m\libc.a(lib_a-reallocr.o)
                              c:/program files (x86)/gnu tools arm embedded/4.8 2014q2/bin/../lib/gcc/arm-none-eabi/4.8.4/../../../../arm-none-eabi/lib/armv7-m\libc.a(lib_a-svfiprintf.o) (_realloc_r)
c:/program files (x86)/gnu tools arm embedded/4.8 2014q2/bin/../lib/gcc/arm-none-eabi/4.8.4/armv7-m\libgcc.a(_aeabi_uldivmod.o)
                              c:/program files (x86)/gnu tools arm embedded/4.8 2014q2/bin/../lib/gcc/arm-none-eabi/4.8.4/../../../../arm-none-eabi/lib/armv7-m\libc.a(lib_a-svfprintf.o) (__aeabi_uldivmod)
c:/program files (x86)/gnu tools arm embedded/4.8 2014q2/bin/../lib/gcc/arm-none-eabi/4.8.4/armv7-m\libgcc.a(bpabi.o)
                              c:/program files (x86)/gnu tools arm embedded/4.8 2014q2/bin/../lib/gcc/arm-none-eabi/4.8.4/armv7-m\libgcc.a(_aeabi_uldivmod.o) (__gnu_uldivmod_helper)
c:/program files (x86)/gnu tools arm embedded/4.8 2014q2/bin/../lib/gcc/arm-none-eabi/4.8.4/armv7-m\libgcc.a(_dvmd_tls.o)
                              c:/program files (x86)/gnu tools arm embedded/4.8 2014q2/bin/../lib/gcc/arm-none-eabi/4.8.4/armv7-m\libgcc.a(_aeabi_uldivmod.o) (__aeabi_ldiv0)
c:/program files (x86)/gnu tools arm embedded/4.8 2014q2/bin/../lib/gcc/arm-none-eabi/4.8.4/armv7-m\libgcc.a(_divdi3.o)
                              c:/program files (x86)/gnu tools arm embedded/4.8 2014q2/bin/../lib/gcc/arm-none-eabi/4.8.4/armv7-m\libgcc.a(bpabi.o) (__divdi3)
c:/program files (x86)/gnu tools arm embedded/4.8 2014q2/bin/../lib/gcc/arm-none-eabi/4.8.4/armv7-m\libgcc.a(_udivdi3.o)
                              c:/program files (x86)/gnu tools arm embedded/4.8 2014q2/bin/../lib/gcc/arm-none-eabi/4.8.4/armv7-m\libgcc.a(bpabi.o) (__udivdi3)

Allocating common symbols
Common symbol       size              file

sendLength          0x4               out/hw_config.o
SaveRState          0x2               out/usb_int.o
sinDataI16          0x800             out/fasttrig.o
I2Cerrorcount       0x4               out/i2c.o
HSEStartUpStatus    0x1               out/hw_config.o
CameraOrient        0xc               out/engine.o
receiveLength       0x4               out/usb_endp.o
SaveState           0x2               out/usb_init.o
errno               0x4               c:/program files (x86)/gnu tools arm embedded/4.8 2014q2/bin/../lib/gcc/arm-none-eabi/4.8.4/../../../../arm-none-eabi/lib/armv7-m\libc.a(lib_a-reent.o)
packetSent          0x4               out/hw_config.o
LakituAngles        0xc               out/engine.o
wIstr               0x2               out/usb_istr.o
pProperty           0x4               out/usb_init.o
ConfigMode          0x4               out/commhandler.o
EPindex             0x1               out/usb_init.o
AccAngleSmooth      0xc               out/engine.o
MaxCnt              0xc               out/pwm.o
IrqCntUart4         0x4               out/usart.o
SaveTState          0x2               out/usb_int.o
MinCnt              0xc               out/pwm.o
Output              0xc               out/engine.o
Device_Info         0x1c              out/usb_init.o
roll_angle_correction
                    0x4               out/engine.o
pUser_Standard_Requests
                    0x4               out/usb_init.o
IrqCnt              0xc               out/pwm.o
StatusInfo          0x2               out/usb_core.o
pInformation        0x4               out/usb_init.o
ResumeS             0x2               out/usb_pwr.o
RingBufferUSBTX     0x210             out/usb.o
I2Cerror            0x4               out/i2c.o
EP                  0x20              out/usb_pwr.o
EXTI_InitStructure  0x8               out/hw_config.o
yaw_angle_correction
                    0x4               out/engine.o
receiveBuffer       0x40              out/hw_config.o
pitch_angle_correction
                    0x4               out/engine.o
wInterrupt_Mask     0x2               out/usb_init.o

Discarded input sections

 .text          0x00000000       0x14 out/startup_stm32f10x_hd.o
 .data          0x00000000        0x0 out/startup_stm32f10x_hd.o
 .bss           0x00000000        0x0 out/startup_stm32f10x_hd.o
 .text          0x00000000        0x0 out/stm32f10x_gpio.o
 .data          0x00000000        0x0 out/stm32f10x_gpio.o
 .bss           0x00000000        0x0 out/stm32f10x_gpio.o
 .text.GPIO_DeInit
                0x00000000       0xdc out/stm32f10x_gpio.o
 .text.GPIO_AFIODeInit
                0x00000000       0x18 out/stm32f10x_gpio.o
 .text.GPIO_StructInit
                0x00000000       0x10 out/stm32f10x_gpio.o
 .text.GPIO_ReadInputData
                0x00000000        0x8 out/stm32f10x_gpio.o
 .text.GPIO_ReadOutputDataBit
                0x00000000        0xc out/stm32f10x_gpio.o
 .text.GPIO_ReadOutputData
                0x00000000        0x8 out/stm32f10x_gpio.o
 .text.GPIO_Write
                0x00000000        0x4 out/stm32f10x_gpio.o
 .text.GPIO_PinLockConfig
                0x00000000       0x10 out/stm32f10x_gpio.o
 .text.GPIO_EventOutputConfig
                0x00000000       0x20 out/stm32f10x_gpio.o
 .text.GPIO_EventOutputCmd
                0x00000000        0xc out/stm32f10x_gpio.o
 .text.GPIO_ETH_MediaInterfaceConfig
                0x00000000        0xc out/stm32f10x_gpio.o
 .text          0x00000000        0x0 out/stm32f10x_fsmc.o
 .data          0x00000000        0x0 out/stm32f10x_fsmc.o
 .bss           0x00000000        0x0 out/stm32f10x_fsmc.o
 .text.FSMC_NORSRAMDeInit
                0x00000000       0x38 out/stm32f10x_fsmc.o
 .text.FSMC_NANDDeInit
                0x00000000       0x24 out/stm32f10x_fsmc.o
 .text.FSMC_PCCARDDeInit
                0x00000000       0x1c out/stm32f10x_fsmc.o
 .text.FSMC_NORSRAMInit
                0x00000000       0xc0 out/stm32f10x_fsmc.o
 .text.FSMC_NANDInit
                0x00000000       0x7c out/stm32f10x_fsmc.o
 .text.FSMC_PCCARDInit
                0x00000000       0x68 out/stm32f10x_fsmc.o
 .text.FSMC_NORSRAMStructInit
                0x00000000       0x54 out/stm32f10x_fsmc.o
 .text.FSMC_NANDStructInit
                0x00000000       0x30 out/stm32f10x_fsmc.o
 .text.FSMC_PCCARDStructInit
                0x00000000       0x30 out/stm32f10x_fsmc.o
 .text.FSMC_NORSRAMCmd
                0x00000000       0x20 out/stm32f10x_fsmc.o
 .text.FSMC_NANDCmd
                0x00000000       0x34 out/stm32f10x_fsmc.o
 .text.FSMC_PCCARDCmd
                0x00000000       0x24 out/stm32f10x_fsmc.o
 .text.FSMC_NANDECCCmd
                0x00000000       0x34 out/stm32f10x_fsmc.o
 .text.FSMC_GetECC
                0x00000000       0x14 out/stm32f10x_fsmc.o
 .text.FSMC_ITConfig
                0x00000000       0x54 out/stm32f10x_fsmc.o
 .text.FSMC_GetFlagStatus
                0x00000000       0x2c out/stm32f10x_fsmc.o
 .text.FSMC_ClearFlag
                0x00000000       0x30 out/stm32f10x_fsmc.o
 .text.FSMC_GetITStatus
                0x00000000       0x34 out/stm32f10x_fsmc.o
 .text.FSMC_ClearITPendingBit
                0x00000000       0x30 out/stm32f10x_fsmc.o
 .comment       0x00000000       0x71 out/stm32f10x_fsmc.o
 .ARM.attributes
                0x00000000       0x33 out/stm32f10x_fsmc.o
 .text          0x00000000        0x0 out/stm32f10x_exti.o
 .data          0x00000000        0x0 out/stm32f10x_exti.o
 .bss           0x00000000        0x0 out/stm32f10x_exti.o
 .text.EXTI_DeInit
                0x00000000       0x1c out/stm32f10x_exti.o
 .text.EXTI_StructInit
                0x00000000       0x10 out/stm32f10x_exti.o
 .text.EXTI_GetFlagStatus
                0x00000000       0x14 out/stm32f10x_exti.o
 .text.EXTI_ClearFlag
                0x00000000        0xc out/stm32f10x_exti.o
 .text.EXTI_GetITStatus
                0x00000000       0x1c out/stm32f10x_exti.o
 .text          0x00000000        0x0 out/stm32f10x_bkp.o
 .data          0x00000000        0x0 out/stm32f10x_bkp.o
 .bss           0x00000000        0x0 out/stm32f10x_bkp.o
 .text.BKP_DeInit
                0x00000000       0x14 out/stm32f10x_bkp.o
 .text.BKP_TamperPinLevelConfig
                0x00000000        0xc out/stm32f10x_bkp.o
 .text.BKP_TamperPinCmd
                0x00000000        0xc out/stm32f10x_bkp.o
 .text.BKP_ITConfig
                0x00000000        0xc out/stm32f10x_bkp.o
 .text.BKP_RTCOutputConfig
                0x00000000       0x18 out/stm32f10x_bkp.o
 .text.BKP_SetRTCCalibrationValue
                0x00000000       0x18 out/stm32f10x_bkp.o
 .text.BKP_WriteBackupRegister
                0x00000000       0x1c out/stm32f10x_bkp.o
 .text.BKP_ReadBackupRegister
                0x00000000       0x20 out/stm32f10x_bkp.o
 .text.BKP_GetFlagStatus
                0x00000000        0xc out/stm32f10x_bkp.o
 .text.BKP_ClearFlag
                0x00000000       0x14 out/stm32f10x_bkp.o
 .text.BKP_GetITStatus
                0x00000000        0xc out/stm32f10x_bkp.o
 .text.BKP_ClearITPendingBit
                0x00000000       0x14 out/stm32f10x_bkp.o
 .comment       0x00000000       0x71 out/stm32f10x_bkp.o
 .ARM.attributes
                0x00000000       0x33 out/stm32f10x_bkp.o
 .text          0x00000000        0x0 out/stm32f10x_spi.o
 .data          0x00000000        0x0 out/stm32f10x_spi.o
 .bss           0x00000000        0x0 out/stm32f10x_spi.o
 .text.SPI_I2S_DeInit
                0x00000000       0x6c out/stm32f10x_spi.o
 .text.SPI_Init
                0x00000000       0x40 out/stm32f10x_spi.o
 .text.I2S_Init
                0x00000000       0xb0 out/stm32f10x_spi.o
 .text.SPI_StructInit
                0x00000000       0x18 out/stm32f10x_spi.o
 .text.I2S_StructInit
                0x00000000       0x14 out/stm32f10x_spi.o
 .text.SPI_Cmd  0x00000000       0x1c out/stm32f10x_spi.o
 .text.I2S_Cmd  0x00000000       0x1c out/stm32f10x_spi.o
 .text.SPI_I2S_ITConfig
                0x00000000       0x20 out/stm32f10x_spi.o
 .text.SPI_I2S_DMACmd
                0x00000000       0x14 out/stm32f10x_spi.o
 .text.SPI_I2S_SendData
                0x00000000        0x4 out/stm32f10x_spi.o
 .text.SPI_I2S_ReceiveData
                0x00000000        0x8 out/stm32f10x_spi.o
 .text.SPI_NSSInternalSoftwareConfig
                0x00000000       0x20 out/stm32f10x_spi.o
 .text.SPI_SSOutputCmd
                0x00000000       0x1c out/stm32f10x_spi.o
 .text.SPI_DataSizeConfig
                0x00000000       0x18 out/stm32f10x_spi.o
 .text.SPI_TransmitCRC
                0x00000000        0xc out/stm32f10x_spi.o
 .text.SPI_CalculateCRC
                0x00000000       0x1c out/stm32f10x_spi.o
 .text.SPI_GetCRC
                0x00000000        0xc out/stm32f10x_spi.o
 .text.SPI_GetCRCPolynomial
                0x00000000        0x8 out/stm32f10x_spi.o
 .text.SPI_BiDirectionalLineConfig
                0x00000000       0x20 out/stm32f10x_spi.o
 .text.SPI_I2S_GetFlagStatus
                0x00000000        0xc out/stm32f10x_spi.o
 .text.SPI_I2S_ClearFlag
                0x00000000        0x8 out/stm32f10x_spi.o
 .text.SPI_I2S_GetITStatus
                0x00000000       0x2c out/stm32f10x_spi.o
 .text.SPI_I2S_ClearITPendingBit
                0x00000000       0x10 out/stm32f10x_spi.o
 .comment       0x00000000       0x71 out/stm32f10x_spi.o
 .ARM.attributes
                0x00000000       0x33 out/stm32f10x_spi.o
 .text          0x00000000        0x0 out/stm32f10x_adc.o
 .data          0x00000000        0x0 out/stm32f10x_adc.o
 .bss           0x00000000        0x0 out/stm32f10x_adc.o
 .text.ADC_StructInit
                0x00000000       0x14 out/stm32f10x_adc.o
 .text.ADC_DMACmd
                0x00000000       0x14 out/stm32f10x_adc.o
 .text.ADC_ITConfig
                0x00000000       0x14 out/stm32f10x_adc.o
 .text.ADC_SoftwareStartConvCmd
                0x00000000       0x14 out/stm32f10x_adc.o
 .text.ADC_GetSoftwareStartConvStatus
                0x00000000        0x8 out/stm32f10x_adc.o
 .text.ADC_DiscModeChannelCountConfig
                0x00000000       0x10 out/stm32f10x_adc.o
 .text.ADC_DiscModeCmd
                0x00000000       0x14 out/stm32f10x_adc.o
 .text.ADC_RegularChannelConfig
                0x00000000       0x9c out/stm32f10x_adc.o
 .text.ADC_ExternalTrigConvCmd
                0x00000000       0x14 out/stm32f10x_adc.o
 .text.ADC_GetConversionValue
                0x00000000        0x8 out/stm32f10x_adc.o
 .text.ADC_GetDualModeConversionValue
                0x00000000        0xc out/stm32f10x_adc.o
 .text.ADC_AutoInjectedConvCmd
                0x00000000       0x14 out/stm32f10x_adc.o
 .text.ADC_InjectedDiscModeCmd
                0x00000000       0x14 out/stm32f10x_adc.o
 .text.ADC_ExternalTrigInjectedConvConfig
                0x00000000        0xc out/stm32f10x_adc.o
 .text.ADC_ExternalTrigInjectedConvCmd
                0x00000000       0x14 out/stm32f10x_adc.o
 .text.ADC_SoftwareStartInjectedConvCmd
                0x00000000       0x14 out/stm32f10x_adc.o
 .text.ADC_GetSoftwareStartInjectedConvCmdStatus
                0x00000000        0x8 out/stm32f10x_adc.o
 .text.ADC_InjectedChannelConfig
                0x00000000       0x5c out/stm32f10x_adc.o
 .text.ADC_InjectedSequencerLengthConfig
                0x00000000       0x10 out/stm32f10x_adc.o
 .text.ADC_SetInjectedOffset
                0x00000000       0x18 out/stm32f10x_adc.o
 .text.ADC_GetInjectedConversionValue
                0x00000000       0x1c out/stm32f10x_adc.o
 .text.ADC_AnalogWatchdogCmd
                0x00000000       0x10 out/stm32f10x_adc.o
 .text.ADC_AnalogWatchdogThresholdsConfig
                0x00000000        0x8 out/stm32f10x_adc.o
 .text.ADC_AnalogWatchdogSingleChannelConfig
                0x00000000        0xc out/stm32f10x_adc.o
 .text.ADC_TempSensorVrefintCmd
                0x00000000       0x1c out/stm32f10x_adc.o
 .text.ADC_GetFlagStatus
                0x00000000        0xc out/stm32f10x_adc.o
 .text.ADC_ClearFlag
                0x00000000        0x8 out/stm32f10x_adc.o
 .text.ADC_GetITStatus
                0x00000000       0x18 out/stm32f10x_adc.o
 .text.ADC_ClearITPendingBit
                0x00000000        0x8 out/stm32f10x_adc.o
 .text          0x00000000        0x0 out/stm32f10x_iwdg.o
 .data          0x00000000        0x0 out/stm32f10x_iwdg.o
 .bss           0x00000000        0x0 out/stm32f10x_iwdg.o
 .text.IWDG_WriteAccessCmd
                0x00000000        0xc out/stm32f10x_iwdg.o
 .text.IWDG_SetPrescaler
                0x00000000        0xc out/stm32f10x_iwdg.o
 .text.IWDG_SetReload
                0x00000000        0xc out/stm32f10x_iwdg.o
 .text.IWDG_ReloadCounter
                0x00000000       0x10 out/stm32f10x_iwdg.o
 .text.IWDG_Enable
                0x00000000       0x10 out/stm32f10x_iwdg.o
 .text.IWDG_GetFlagStatus
                0x00000000       0x14 out/stm32f10x_iwdg.o
 .comment       0x00000000       0x71 out/stm32f10x_iwdg.o
 .ARM.attributes
                0x00000000       0x33 out/stm32f10x_iwdg.o
 .text          0x00000000        0x0 out/misc.o
 .data          0x00000000        0x0 out/misc.o
 .bss           0x00000000        0x0 out/misc.o
 .text.NVIC_SetVectorTable
                0x00000000       0x14 out/misc.o
 .text.NVIC_SystemLPConfig
                0x00000000       0x18 out/misc.o
 .text.SysTick_CLKSourceConfig
                0x00000000       0x18 out/misc.o
 .text          0x00000000        0x0 out/stm32f10x_cec.o
 .data          0x00000000        0x0 out/stm32f10x_cec.o
 .bss           0x00000000        0x0 out/stm32f10x_cec.o
 .text.CEC_DeInit
                0x00000000       0x1c out/stm32f10x_cec.o
 .text.CEC_Init
                0x00000000       0x20 out/stm32f10x_cec.o
 .text.CEC_Cmd  0x00000000       0x18 out/stm32f10x_cec.o
 .text.CEC_ITConfig
                0x00000000        0xc out/stm32f10x_cec.o
 .text.CEC_OwnAddressConfig
                0x00000000        0xc out/stm32f10x_cec.o
 .text.CEC_SetPrescaler
                0x00000000        0xc out/stm32f10x_cec.o
 .text.CEC_SendDataByte
                0x00000000        0xc out/stm32f10x_cec.o
 .text.CEC_ReceiveDataByte
                0x00000000        0xc out/stm32f10x_cec.o
 .text.CEC_StartOfMessage
                0x00000000        0xc out/stm32f10x_cec.o
 .text.CEC_EndOfMessageCmd
                0x00000000        0xc out/stm32f10x_cec.o
 .text.CEC_GetFlagStatus
                0x00000000       0x24 out/stm32f10x_cec.o
 .text.CEC_ClearFlag
                0x00000000       0x1c out/stm32f10x_cec.o
 .text.CEC_GetITStatus
                0x00000000       0x14 out/stm32f10x_cec.o
 .text.CEC_ClearITPendingBit
                0x00000000       0x1c out/stm32f10x_cec.o
 .comment       0x00000000       0x71 out/stm32f10x_cec.o
 .ARM.attributes
                0x00000000       0x33 out/stm32f10x_cec.o
 .text          0x00000000        0x0 out/stm32f10x_wwdg.o
 .data          0x00000000        0x0 out/stm32f10x_wwdg.o
 .bss           0x00000000        0x0 out/stm32f10x_wwdg.o
 .text.WWDG_DeInit
                0x00000000       0x1c out/stm32f10x_wwdg.o
 .text.WWDG_SetPrescaler
                0x00000000       0x14 out/stm32f10x_wwdg.o
 .text.WWDG_SetWindowValue
                0x00000000       0x28 out/stm32f10x_wwdg.o
 .text.WWDG_EnableIT
                0x00000000        0xc out/stm32f10x_wwdg.o
 .text.WWDG_SetCounter
                0x00000000       0x10 out/stm32f10x_wwdg.o
 .text.WWDG_Enable
                0x00000000       0x10 out/stm32f10x_wwdg.o
 .text.WWDG_GetFlagStatus
                0x00000000        0xc out/stm32f10x_wwdg.o
 .text.WWDG_ClearFlag
                0x00000000        0xc out/stm32f10x_wwdg.o
 .comment       0x00000000       0x71 out/stm32f10x_wwdg.o
 .ARM.attributes
                0x00000000       0x33 out/stm32f10x_wwdg.o
 .text          0x00000000        0x0 out/stm32f10x_tim.o
 .data          0x00000000        0x0 out/stm32f10x_tim.o
 .bss           0x00000000        0x0 out/stm32f10x_tim.o
 .text.TI1_Config
                0x00000000       0x78 out/stm32f10x_tim.o
 .text.TI2_Config
                0x00000000       0x80 out/stm32f10x_tim.o
 .text.TIM_DeInit
                0x00000000      0x234 out/stm32f10x_tim.o
 .text.TIM_OC4Init
                0x00000000       0x6c out/stm32f10x_tim.o
 .text.TIM_ICInit
                0x00000000      0x180 out/stm32f10x_tim.o
 .text.TIM_PWMIConfig
                0x00000000       0xac out/stm32f10x_tim.o
 .text.TIM_TimeBaseStructInit
                0x00000000       0x14 out/stm32f10x_tim.o
 .text.TIM_OCStructInit
                0x00000000       0x14 out/stm32f10x_tim.o
 .text.TIM_ICStructInit
                0x00000000       0x10 out/stm32f10x_tim.o
 .text.TIM_BDTRStructInit
                0x00000000       0x14 out/stm32f10x_tim.o
 .text.TIM_ITConfig
                0x00000000       0x14 out/stm32f10x_tim.o
 .text.TIM_GenerateEvent
                0x00000000        0x4 out/stm32f10x_tim.o
 .text.TIM_DMAConfig
                0x00000000        0x8 out/stm32f10x_tim.o
 .text.TIM_DMACmd
                0x00000000       0x14 out/stm32f10x_tim.o
 .text.TIM_InternalClockConfig
                0x00000000       0x10 out/stm32f10x_tim.o
 .text.TIM_ITRxExternalClockConfig
                0x00000000       0x1c out/stm32f10x_tim.o
 .text.TIM_TIxExternalClockConfig
                0x00000000       0x34 out/stm32f10x_tim.o
 .text.TIM_ETRClockMode1Config
                0x00000000       0x28 out/stm32f10x_tim.o
 .text.TIM_ETRClockMode2Config
                0x00000000       0x24 out/stm32f10x_tim.o
 .text.TIM_ETRConfig
                0x00000000       0x18 out/stm32f10x_tim.o
 .text.TIM_PrescalerConfig
                0x00000000        0x8 out/stm32f10x_tim.o
 .text.TIM_CounterModeConfig
                0x00000000       0x10 out/stm32f10x_tim.o
 .text.TIM_SelectInputTrigger
                0x00000000       0x10 out/stm32f10x_tim.o
 .text.TIM_EncoderInterfaceConfig
                0x00000000       0x40 out/stm32f10x_tim.o
 .text.TIM_ForcedOC1Config
                0x00000000       0x10 out/stm32f10x_tim.o
 .text.TIM_ForcedOC2Config
                0x00000000       0x14 out/stm32f10x_tim.o
 .text.TIM_ForcedOC3Config
                0x00000000       0x10 out/stm32f10x_tim.o
 .text.TIM_ForcedOC4Config
                0x00000000       0x14 out/stm32f10x_tim.o
 .text.TIM_ARRPreloadConfig
                0x00000000       0x1c out/stm32f10x_tim.o
 .text.TIM_SelectCOM
                0x00000000       0x1c out/stm32f10x_tim.o
 .text.TIM_SelectCCDMA
                0x00000000       0x1c out/stm32f10x_tim.o
 .text.TIM_CCPreloadControl
                0x00000000       0x1c out/stm32f10x_tim.o
 .text.TIM_OC4PreloadConfig
                0x00000000       0x14 out/stm32f10x_tim.o
 .text.TIM_OC1FastConfig
                0x00000000       0x10 out/stm32f10x_tim.o
 .text.TIM_OC2FastConfig
                0x00000000       0x14 out/stm32f10x_tim.o
 .text.TIM_OC3FastConfig
                0x00000000       0x10 out/stm32f10x_tim.o
 .text.TIM_OC4FastConfig
                0x00000000       0x14 out/stm32f10x_tim.o
 .text.TIM_ClearOC1Ref
                0x00000000       0x10 out/stm32f10x_tim.o
 .text.TIM_ClearOC2Ref
                0x00000000       0x10 out/stm32f10x_tim.o
 .text.TIM_ClearOC3Ref
                0x00000000       0x10 out/stm32f10x_tim.o
 .text.TIM_ClearOC4Ref
                0x00000000       0x10 out/stm32f10x_tim.o
 .text.TIM_OC1PolarityConfig
                0x00000000       0x10 out/stm32f10x_tim.o
 .text.TIM_OC1NPolarityConfig
                0x00000000       0x10 out/stm32f10x_tim.o
 .text.TIM_OC2PolarityConfig
                0x00000000       0x14 out/stm32f10x_tim.o
 .text.TIM_OC2NPolarityConfig
                0x00000000       0x14 out/stm32f10x_tim.o
 .text.TIM_OC3PolarityConfig
                0x00000000       0x14 out/stm32f10x_tim.o
 .text.TIM_OC3NPolarityConfig
                0x00000000       0x14 out/stm32f10x_tim.o
 .text.TIM_OC4PolarityConfig
                0x00000000       0x14 out/stm32f10x_tim.o
 .text.TIM_CCxCmd
                0x00000000       0x1c out/stm32f10x_tim.o
 .text.TIM_CCxNCmd
                0x00000000       0x1c out/stm32f10x_tim.o
 .text.TIM_SelectOCxM
                0x00000000       0x48 out/stm32f10x_tim.o
 .text.TIM_UpdateDisableConfig
                0x00000000       0x1c out/stm32f10x_tim.o
 .text.TIM_UpdateRequestConfig
                0x00000000       0x1c out/stm32f10x_tim.o
 .text.TIM_SelectHallSensor
                0x00000000       0x1c out/stm32f10x_tim.o
 .text.TIM_SelectOnePulseMode
                0x00000000       0x18 out/stm32f10x_tim.o
 .text.TIM_SelectOutputTrigger
                0x00000000       0x18 out/stm32f10x_tim.o
 .text.TIM_SelectSlaveMode
                0x00000000       0x18 out/stm32f10x_tim.o
 .text.TIM_SelectMasterSlaveMode
                0x00000000       0x18 out/stm32f10x_tim.o
 .text.TIM_SetCounter
                0x00000000        0x4 out/stm32f10x_tim.o
 .text.TIM_SetAutoreload
                0x00000000        0x4 out/stm32f10x_tim.o
 .text.TIM_SetCompare1
                0x00000000        0x4 out/stm32f10x_tim.o
 .text.TIM_SetCompare2
                0x00000000        0x4 out/stm32f10x_tim.o
 .text.TIM_SetCompare3
                0x00000000        0x4 out/stm32f10x_tim.o
 .text.TIM_SetCompare4
                0x00000000        0x8 out/stm32f10x_tim.o
 .text.TIM_SetIC1Prescaler
                0x00000000       0x18 out/stm32f10x_tim.o
 .text.TIM_SetIC2Prescaler
                0x00000000       0x1c out/stm32f10x_tim.o
 .text.TIM_SetIC3Prescaler
                0x00000000       0x18 out/stm32f10x_tim.o
 .text.TIM_SetIC4Prescaler
                0x00000000       0x1c out/stm32f10x_tim.o
 .text.TIM_SetClockDivision
                0x00000000       0x18 out/stm32f10x_tim.o
 .text.TIM_GetCapture1
                0x00000000        0x8 out/stm32f10x_tim.o
 .text.TIM_GetCapture2
                0x00000000        0x8 out/stm32f10x_tim.o
 .text.TIM_GetCapture3
                0x00000000        0x8 out/stm32f10x_tim.o
 .text.TIM_GetCapture4
                0x00000000        0x8 out/stm32f10x_tim.o
 .text.TIM_GetCounter
                0x00000000        0x8 out/stm32f10x_tim.o
 .text.TIM_GetPrescaler
                0x00000000        0x8 out/stm32f10x_tim.o
 .text.TIM_GetFlagStatus
                0x00000000        0xc out/stm32f10x_tim.o
 .text.TIM_ClearFlag
                0x00000000        0x8 out/stm32f10x_tim.o
 .text.TIM_GetITStatus
                0x00000000       0x18 out/stm32f10x_tim.o
 .text.TIM_ClearITPendingBit
                0x00000000        0x8 out/stm32f10x_tim.o
 .text          0x00000000        0x0 out/stm32f10x_usart.o
 .data          0x00000000        0x0 out/stm32f10x_usart.o
 .bss           0x00000000        0x0 out/stm32f10x_usart.o
 .text.USART_DeInit
                0x00000000       0xb0 out/stm32f10x_usart.o
 .text.USART_StructInit
                0x00000000       0x18 out/stm32f10x_usart.o
 .text.USART_DMACmd
                0x00000000       0x14 out/stm32f10x_usart.o
 .text.USART_SetAddress
                0x00000000       0x18 out/stm32f10x_usart.o
 .text.USART_WakeUpConfig
                0x00000000       0x18 out/stm32f10x_usart.o
 .text.USART_ReceiverWakeUpCmd
                0x00000000       0x1c out/stm32f10x_usart.o
 .text.USART_LINBreakDetectLengthConfig
                0x00000000       0x18 out/stm32f10x_usart.o
 .text.USART_LINCmd
                0x00000000       0x1c out/stm32f10x_usart.o
 .text.USART_SendData
                0x00000000        0x8 out/stm32f10x_usart.o
 .text.USART_ReceiveData
                0x00000000        0x8 out/stm32f10x_usart.o
 .text.USART_SendBreak
                0x00000000        0xc out/stm32f10x_usart.o
 .text.USART_SetGuardTime
                0x00000000       0x14 out/stm32f10x_usart.o
 .text.USART_SetPrescaler
                0x00000000       0x14 out/stm32f10x_usart.o
 .text.USART_SmartCardCmd
                0x00000000       0x1c out/stm32f10x_usart.o
 .text.USART_SmartCardNACKCmd
                0x00000000       0x1c out/stm32f10x_usart.o
 .text.USART_HalfDuplexCmd
                0x00000000       0x1c out/stm32f10x_usart.o
 .text.USART_OverSampling8Cmd
                0x00000000       0x1c out/stm32f10x_usart.o
 .text.USART_OneBitMethodCmd
                0x00000000       0x1c out/stm32f10x_usart.o
 .text.USART_IrDAConfig
                0x00000000       0x18 out/stm32f10x_usart.o
 .text.USART_IrDACmd
                0x00000000       0x1c out/stm32f10x_usart.o
 .text.USART_GetFlagStatus
                0x00000000        0xc out/stm32f10x_usart.o
 .text.USART_ClearFlag
                0x00000000        0x8 out/stm32f10x_usart.o
 .text.USART_GetITStatus
                0x00000000       0x4c out/stm32f10x_usart.o
 .text.USART_ClearITPendingBit
                0x00000000       0x10 out/stm32f10x_usart.o
 .text          0x00000000        0x0 out/stm32f10x_crc.o
 .data          0x00000000        0x0 out/stm32f10x_crc.o
 .bss           0x00000000        0x0 out/stm32f10x_crc.o
 .text.CRC_ResetDR
                0x00000000        0xc out/stm32f10x_crc.o
 .text.CRC_CalcCRC
                0x00000000        0xc out/stm32f10x_crc.o
 .text.CRC_CalcBlockCRC
                0x00000000       0x1c out/stm32f10x_crc.o
 .text.CRC_GetCRC
                0x00000000        0xc out/stm32f10x_crc.o
 .text.CRC_SetIDRegister
                0x00000000        0xc out/stm32f10x_crc.o
 .text.CRC_GetIDRegister
                0x00000000        0xc out/stm32f10x_crc.o
 .comment       0x00000000       0x71 out/stm32f10x_crc.o
 .ARM.attributes
                0x00000000       0x33 out/stm32f10x_crc.o
 .text          0x00000000        0x0 out/stm32f10x_flash.o
 .data          0x00000000        0x0 out/stm32f10x_flash.o
 .bss           0x00000000        0x0 out/stm32f10x_flash.o
 .text.FLASH_SetLatency
                0x00000000       0x14 out/stm32f10x_flash.o
 .text.FLASH_HalfCycleAccessCmd
                0x00000000       0x18 out/stm32f10x_flash.o
 .text.FLASH_PrefetchBufferCmd
                0x00000000       0x18 out/stm32f10x_flash.o
 .text.FLASH_Unlock
                0x00000000       0x18 out/stm32f10x_flash.o
 .text.FLASH_UnlockBank1
                0x00000000       0x18 out/stm32f10x_flash.o
 .text.FLASH_Lock
                0x00000000       0x10 out/stm32f10x_flash.o
 .text.FLASH_LockBank1
                0x00000000       0x10 out/stm32f10x_flash.o
 .text.FLASH_GetUserOptionByte
                0x00000000        0xc out/stm32f10x_flash.o
 .text.FLASH_GetWriteProtectionOptionByte
                0x00000000        0xc out/stm32f10x_flash.o
 .text.FLASH_GetReadOutProtectionStatus
                0x00000000       0x10 out/stm32f10x_flash.o
 .text.FLASH_GetPrefetchBufferStatus
                0x00000000       0x10 out/stm32f10x_flash.o
 .text.FLASH_ITConfig
                0x00000000       0x18 out/stm32f10x_flash.o
 .text.FLASH_GetFlagStatus
                0x00000000       0x20 out/stm32f10x_flash.o
 .text.FLASH_ClearFlag
                0x00000000        0xc out/stm32f10x_flash.o
 .text.FLASH_GetStatus
                0x00000000       0x28 out/stm32f10x_flash.o
 .text.FLASH_GetBank1Status
                0x00000000       0x28 out/stm32f10x_flash.o
 .text.FLASH_WaitForLastOperation
                0x00000000       0x24 out/stm32f10x_flash.o
 .text.FLASH_ErasePage
                0x00000000       0x40 out/stm32f10x_flash.o
 .text.FLASH_EraseAllPages
                0x00000000       0x3c out/stm32f10x_flash.o
 .text.FLASH_EraseOptionBytes
                0x00000000       0x88 out/stm32f10x_flash.o
 .text.FLASH_ProgramWord
                0x00000000       0x68 out/stm32f10x_flash.o
 .text.FLASH_ProgramHalfWord
                0x00000000       0x38 out/stm32f10x_flash.o
 .text.FLASH_ProgramOptionByteData
                0x00000000       0x4c out/stm32f10x_flash.o
 .text.FLASH_EnableWriteProtection
                0x00000000       0xac out/stm32f10x_flash.o
 .text.FLASH_ReadOutProtection
                0x00000000       0x94 out/stm32f10x_flash.o
 .text.FLASH_UserOptionByteConfig
                0x00000000       0x5c out/stm32f10x_flash.o
 .text.FLASH_WaitForLastBank1Operation
                0x00000000       0x24 out/stm32f10x_flash.o
 .text.FLASH_EraseAllBank1Pages
                0x00000000       0x3c out/stm32f10x_flash.o
 .comment       0x00000000       0x71 out/stm32f10x_flash.o
 .ARM.attributes
                0x00000000       0x33 out/stm32f10x_flash.o
 .text          0x00000000        0x0 out/stm32f10x_rcc.o
 .data          0x00000000        0x0 out/stm32f10x_rcc.o
 .bss           0x00000000        0x0 out/stm32f10x_rcc.o
 .text.RCC_DeInit
                0x00000000       0x40 out/stm32f10x_rcc.o
 .text.RCC_HSEConfig
                0x00000000       0x38 out/stm32f10x_rcc.o
 .text.RCC_WaitForHSEStartUp
                0x00000000       0x38 out/stm32f10x_rcc.o
 .text.RCC_AdjustHSICalibrationValue
                0x00000000       0x14 out/stm32f10x_rcc.o
 .text.RCC_HSICmd
                0x00000000        0xc out/stm32f10x_rcc.o
 .text.RCC_PLLConfig
                0x00000000       0x14 out/stm32f10x_rcc.o
 .text.RCC_PLLCmd
                0x00000000        0xc out/stm32f10x_rcc.o
 .text.RCC_SYSCLKConfig
                0x00000000       0x14 out/stm32f10x_rcc.o
 .text.RCC_GetSYSCLKSource
                0x00000000       0x10 out/stm32f10x_rcc.o
 .text.RCC_HCLKConfig
                0x00000000       0x14 out/stm32f10x_rcc.o
 .text.RCC_PCLK1Config
                0x00000000       0x14 out/stm32f10x_rcc.o
 .text.RCC_PCLK2Config
                0x00000000       0x14 out/stm32f10x_rcc.o
 .text.RCC_ITConfig
                0x00000000       0x18 out/stm32f10x_rcc.o
 .text.RCC_LSEConfig
                0x00000000       0x20 out/stm32f10x_rcc.o
 .text.RCC_LSICmd
                0x00000000        0xc out/stm32f10x_rcc.o
 .text.RCC_RTCCLKConfig
                0x00000000       0x10 out/stm32f10x_rcc.o
 .text.RCC_RTCCLKCmd
                0x00000000        0xc out/stm32f10x_rcc.o
 .text.RCC_APB1PeriphResetCmd
                0x00000000       0x18 out/stm32f10x_rcc.o
 .text.RCC_BackupResetCmd
                0x00000000        0xc out/stm32f10x_rcc.o
 .text.RCC_ClockSecuritySystemCmd
                0x00000000        0xc out/stm32f10x_rcc.o
 .text.RCC_MCOConfig
                0x00000000        0xc out/stm32f10x_rcc.o
 .text.RCC_GetFlagStatus
                0x00000000       0x34 out/stm32f10x_rcc.o
 .text.RCC_ClearFlag
                0x00000000       0x10 out/stm32f10x_rcc.o
 .text.RCC_GetITStatus
                0x00000000       0x14 out/stm32f10x_rcc.o
 .text.RCC_ClearITPendingBit
                0x00000000        0xc out/stm32f10x_rcc.o
 .text          0x00000000        0x0 out/stm32f10x_sdio.o
 .data          0x00000000        0x0 out/stm32f10x_sdio.o
 .bss           0x00000000        0x0 out/stm32f10x_sdio.o
 .text.SDIO_DeInit
                0x00000000       0x24 out/stm32f10x_sdio.o
 .text.SDIO_Init
                0x00000000       0x30 out/stm32f10x_sdio.o
 .text.SDIO_StructInit
                0x00000000       0x10 out/stm32f10x_sdio.o
 .text.SDIO_ClockCmd
                0x00000000        0xc out/stm32f10x_sdio.o
 .text.SDIO_SetPowerState
                0x00000000        0xc out/stm32f10x_sdio.o
 .text.SDIO_GetPowerState
                0x00000000       0x10 out/stm32f10x_sdio.o
 .text.SDIO_ITConfig
                0x00000000       0x18 out/stm32f10x_sdio.o
 .text.SDIO_DMACmd
                0x00000000        0xc out/stm32f10x_sdio.o
 .text.SDIO_SendCommand
                0x00000000       0x2c out/stm32f10x_sdio.o
 .text.SDIO_CmdStructInit
                0x00000000       0x10 out/stm32f10x_sdio.o
 .text.SDIO_GetCommandResponse
                0x00000000        0xc out/stm32f10x_sdio.o
 .text.SDIO_GetResponse
                0x00000000       0x18 out/stm32f10x_sdio.o
 .text.SDIO_DataConfig
                0x00000000       0x2c out/stm32f10x_sdio.o
 .text.SDIO_DataStructInit
                0x00000000       0x14 out/stm32f10x_sdio.o
 .text.SDIO_GetDataCounter
                0x00000000        0xc out/stm32f10x_sdio.o
 .text.SDIO_ReadData
                0x00000000        0xc out/stm32f10x_sdio.o
 .text.SDIO_WriteData
                0x00000000        0xc out/stm32f10x_sdio.o
 .text.SDIO_GetFIFOCount
                0x00000000        0xc out/stm32f10x_sdio.o
 .text.SDIO_StartSDIOReadWait
                0x00000000        0xc out/stm32f10x_sdio.o
 .text.SDIO_StopSDIOReadWait
                0x00000000        0xc out/stm32f10x_sdio.o
 .text.SDIO_SetSDIOReadWaitMode
                0x00000000        0xc out/stm32f10x_sdio.o
 .text.SDIO_SetSDIOOperation
                0x00000000        0xc out/stm32f10x_sdio.o
 .text.SDIO_SendSDIOSuspendCmd
                0x00000000        0xc out/stm32f10x_sdio.o
 .text.SDIO_CommandCompletionCmd
                0x00000000        0xc out/stm32f10x_sdio.o
 .text.SDIO_CEATAITCmd
                0x00000000       0x14 out/stm32f10x_sdio.o
 .text.SDIO_SendCEATACmd
                0x00000000        0xc out/stm32f10x_sdio.o
 .text.SDIO_GetFlagStatus
                0x00000000       0x14 out/stm32f10x_sdio.o
 .text.SDIO_ClearFlag
                0x00000000        0xc out/stm32f10x_sdio.o
 .text.SDIO_GetITStatus
                0x00000000       0x14 out/stm32f10x_sdio.o
 .text.SDIO_ClearITPendingBit
                0x00000000        0xc out/stm32f10x_sdio.o
 .comment       0x00000000       0x71 out/stm32f10x_sdio.o
 .ARM.attributes
                0x00000000       0x33 out/stm32f10x_sdio.o
 .text          0x00000000        0x0 out/stm32f10x_i2c.o
 .data          0x00000000        0x0 out/stm32f10x_i2c.o
 .bss           0x00000000        0x0 out/stm32f10x_i2c.o
 .text.I2C_DeInit
                0x00000000       0x3c out/stm32f10x_i2c.o
 .text.I2C_Init
                0x00000000       0xdc out/stm32f10x_i2c.o
 .text.I2C_StructInit
                0x00000000       0x24 out/stm32f10x_i2c.o
 .text.I2C_Cmd  0x00000000       0x1c out/stm32f10x_i2c.o
 .text.I2C_DMACmd
                0x00000000       0x1c out/stm32f10x_i2c.o
 .text.I2C_DMALastTransferCmd
                0x00000000       0x1c out/stm32f10x_i2c.o
 .text.I2C_GenerateSTART
                0x00000000       0x1c out/stm32f10x_i2c.o
 .text.I2C_GenerateSTOP
                0x00000000       0x1c out/stm32f10x_i2c.o
 .text.I2C_AcknowledgeConfig
                0x00000000       0x1c out/stm32f10x_i2c.o
 .text.I2C_OwnAddress2Config
                0x00000000       0x14 out/stm32f10x_i2c.o
 .text.I2C_DualAddressCmd
                0x00000000       0x1c out/stm32f10x_i2c.o
 .text.I2C_GeneralCallCmd
                0x00000000       0x1c out/stm32f10x_i2c.o
 .text.I2C_ITConfig
                0x00000000       0x14 out/stm32f10x_i2c.o
 .text.I2C_SendData
                0x00000000        0x4 out/stm32f10x_i2c.o
 .text.I2C_ReceiveData
                0x00000000        0x8 out/stm32f10x_i2c.o
 .text.I2C_Send7bitAddress
                0x00000000       0x14 out/stm32f10x_i2c.o
 .text.I2C_ReadRegister
                0x00000000       0x18 out/stm32f10x_i2c.o
 .text.I2C_SoftwareResetCmd
                0x00000000       0x1c out/stm32f10x_i2c.o
 .text.I2C_NACKPositionConfig
                0x00000000       0x20 out/stm32f10x_i2c.o
 .text.I2C_SMBusAlertConfig
                0x00000000       0x20 out/stm32f10x_i2c.o
 .text.I2C_TransmitPEC
                0x00000000       0x1c out/stm32f10x_i2c.o
 .text.I2C_PECPositionConfig
                0x00000000       0x20 out/stm32f10x_i2c.o
 .text.I2C_CalculatePEC
                0x00000000       0x1c out/stm32f10x_i2c.o
 .text.I2C_GetPEC
                0x00000000        0x8 out/stm32f10x_i2c.o
 .text.I2C_ARPCmd
                0x00000000       0x1c out/stm32f10x_i2c.o
 .text.I2C_StretchClockCmd
                0x00000000       0x1c out/stm32f10x_i2c.o
 .text.I2C_FastModeDutyCycleConfig
                0x00000000       0x20 out/stm32f10x_i2c.o
 .text.I2C_CheckEvent
                0x00000000       0x18 out/stm32f10x_i2c.o
 .text.I2C_GetLastEvent
                0x00000000       0x10 out/stm32f10x_i2c.o
 .text.I2C_GetFlagStatus
                0x00000000       0x38 out/stm32f10x_i2c.o
 .text.I2C_ClearFlag
                0x00000000        0x8 out/stm32f10x_i2c.o
 .text.I2C_GetITStatus
                0x00000000       0x1c out/stm32f10x_i2c.o
 .text.I2C_ClearITPendingBit
                0x00000000        0x8 out/stm32f10x_i2c.o
 .comment       0x00000000       0x71 out/stm32f10x_i2c.o
 .ARM.attributes
                0x00000000       0x33 out/stm32f10x_i2c.o
 .text          0x00000000        0x0 out/stm32f10x_pwr.o
 .data          0x00000000        0x0 out/stm32f10x_pwr.o
 .bss           0x00000000        0x0 out/stm32f10x_pwr.o
 .text.PWR_DeInit
                0x00000000       0x1c out/stm32f10x_pwr.o
 .text.PWR_BackupAccessCmd
                0x00000000        0xc out/stm32f10x_pwr.o
 .text.PWR_PVDCmd
                0x00000000        0xc out/stm32f10x_pwr.o
 .text.PWR_PVDLevelConfig
                0x00000000       0x14 out/stm32f10x_pwr.o
 .text.PWR_WakeUpPinCmd
                0x00000000        0xc out/stm32f10x_pwr.o
 .text.PWR_EnterSTOPMode
                0x00000000       0x3c out/stm32f10x_pwr.o
 .text.PWR_EnterSTANDBYMode
                0x00000000       0x28 out/stm32f10x_pwr.o
 .text.PWR_GetFlagStatus
                0x00000000       0x14 out/stm32f10x_pwr.o
 .text.PWR_ClearFlag
                0x00000000       0x10 out/stm32f10x_pwr.o
 .comment       0x00000000       0x71 out/stm32f10x_pwr.o
 .ARM.attributes
                0x00000000       0x33 out/stm32f10x_pwr.o
 .text          0x00000000        0x0 out/stm32f10x_rtc.o
 .data          0x00000000        0x0 out/stm32f10x_rtc.o
 .bss           0x00000000        0x0 out/stm32f10x_rtc.o
 .text.RTC_ITConfig
                0x00000000       0x1c out/stm32f10x_rtc.o
 .text.RTC_EnterConfigMode
                0x00000000       0x14 out/stm32f10x_rtc.o
 .text.RTC_ExitConfigMode
                0x00000000       0x14 out/stm32f10x_rtc.o
 .text.RTC_GetCounter
                0x00000000       0x24 out/stm32f10x_rtc.o
 .text.RTC_SetCounter
                0x00000000       0x28 out/stm32f10x_rtc.o
 .text.RTC_SetPrescaler
                0x00000000       0x28 out/stm32f10x_rtc.o
 .text.RTC_SetAlarm
                0x00000000       0x28 out/stm32f10x_rtc.o
 .text.RTC_GetDivider
                0x00000000       0x18 out/stm32f10x_rtc.o
 .text.RTC_WaitForLastTask
                0x00000000       0x10 out/stm32f10x_rtc.o
 .text.RTC_WaitForSynchro
                0x00000000       0x1c out/stm32f10x_rtc.o
 .text.RTC_GetFlagStatus
                0x00000000       0x14 out/stm32f10x_rtc.o
 .text.RTC_ClearFlag
                0x00000000       0x14 out/stm32f10x_rtc.o
 .text.RTC_GetITStatus
                0x00000000       0x20 out/stm32f10x_rtc.o
 .text.RTC_ClearITPendingBit
                0x00000000       0x14 out/stm32f10x_rtc.o
 .comment       0x00000000       0x71 out/stm32f10x_rtc.o
 .ARM.attributes
                0x00000000       0x33 out/stm32f10x_rtc.o
 .text          0x00000000        0x0 out/stm32f10x_can.o
 .data          0x00000000        0x0 out/stm32f10x_can.o
 .bss           0x00000000        0x0 out/stm32f10x_can.o
 .text.CAN_DeInit
                0x00000000       0x3c out/stm32f10x_can.o
 .text.CAN_Init
                0x00000000       0xec out/stm32f10x_can.o
 .text.CAN_FilterInit
                0x00000000       0xf4 out/stm32f10x_can.o
 .text.CAN_StructInit
                0x00000000       0x28 out/stm32f10x_can.o
 .text.CAN_SlaveStartBank
                0x00000000       0x3c out/stm32f10x_can.o
 .text.CAN_DBGFreeze
                0x00000000       0x14 out/stm32f10x_can.o
 .text.CAN_TTComModeCmd
                0x00000000       0x5c out/stm32f10x_can.o
 .text.CAN_Transmit
                0x00000000       0xd0 out/stm32f10x_can.o
 .text.CAN_TransmitStatus
                0x00000000       0x50 out/stm32f10x_can.o
 .text.CAN_CancelTransmit
                0x00000000       0x2c out/stm32f10x_can.o
 .text.CAN_Receive
                0x00000000       0x9c out/stm32f10x_can.o
 .text.CAN_FIFORelease
                0x00000000       0x18 out/stm32f10x_can.o
 .text.CAN_MessagePending
                0x00000000       0x18 out/stm32f10x_can.o
 .text.CAN_OperatingModeRequest
                0x00000000       0xb0 out/stm32f10x_can.o
 .text.CAN_Sleep
                0x00000000       0x1c out/stm32f10x_can.o
 .text.CAN_WakeUp
                0x00000000       0x2c out/stm32f10x_can.o
 .text.CAN_GetLastErrorCode
                0x00000000        0x8 out/stm32f10x_can.o
 .text.CAN_GetReceiveErrorCounter
                0x00000000        0x8 out/stm32f10x_can.o
 .text.CAN_GetLSBTransmitErrorCounter
                0x00000000        0x8 out/stm32f10x_can.o
 .text.CAN_ITConfig
                0x00000000       0x14 out/stm32f10x_can.o
 .text.CAN_GetFlagStatus
                0x00000000       0x54 out/stm32f10x_can.o
 .text.CAN_ClearFlag
                0x00000000       0x30 out/stm32f10x_can.o
 .text.CAN_GetITStatus
                0x00000000       0xe4 out/stm32f10x_can.o
 .text.CAN_ClearITPendingBit
                0x00000000       0x8c out/stm32f10x_can.o
 .comment       0x00000000       0x71 out/stm32f10x_can.o
 .ARM.attributes
                0x00000000       0x33 out/stm32f10x_can.o
 .text          0x00000000        0x0 out/stm32f10x_dac.o
 .data          0x00000000        0x0 out/stm32f10x_dac.o
 .bss           0x00000000        0x0 out/stm32f10x_dac.o
 .text.DAC_DeInit
                0x00000000       0x1c out/stm32f10x_dac.o
 .text.DAC_Init
                0x00000000       0x30 out/stm32f10x_dac.o
 .text.DAC_StructInit
                0x00000000        0xc out/stm32f10x_dac.o
 .text.DAC_Cmd  0x00000000       0x20 out/stm32f10x_dac.o
 .text.DAC_DMACmd
                0x00000000       0x20 out/stm32f10x_dac.o
 .text.DAC_SoftwareTriggerCmd
                0x00000000       0x20 out/stm32f10x_dac.o
 .text.DAC_DualSoftwareTriggerCmd
                0x00000000       0x1c out/stm32f10x_dac.o
 .text.DAC_WaveGenerationCmd
                0x00000000       0x1c out/stm32f10x_dac.o
 .text.DAC_SetChannel1Data
                0x00000000       0x20 out/stm32f10x_dac.o
 .text.DAC_SetChannel2Data
                0x00000000       0x20 out/stm32f10x_dac.o
 .text.DAC_SetDualChannelData
                0x00000000       0x18 out/stm32f10x_dac.o
 .text.DAC_GetDataOutputValue
                0x00000000       0x24 out/stm32f10x_dac.o
 .comment       0x00000000       0x71 out/stm32f10x_dac.o
 .ARM.attributes
                0x00000000       0x33 out/stm32f10x_dac.o
 .text          0x00000000        0x0 out/stm32f10x_dbgmcu.o
 .data          0x00000000        0x0 out/stm32f10x_dbgmcu.o
 .bss           0x00000000        0x0 out/stm32f10x_dbgmcu.o
 .text.DBGMCU_GetREVID
                0x00000000        0xc out/stm32f10x_dbgmcu.o
 .text.DBGMCU_GetDEVID
                0x00000000       0x10 out/stm32f10x_dbgmcu.o
 .text.DBGMCU_Config
                0x00000000       0x18 out/stm32f10x_dbgmcu.o
 .comment       0x00000000       0x71 out/stm32f10x_dbgmcu.o
 .ARM.attributes
                0x00000000       0x33 out/stm32f10x_dbgmcu.o
 .text          0x00000000        0x0 out/stm32f10x_dma.o
 .data          0x00000000        0x0 out/stm32f10x_dma.o
 .bss           0x00000000        0x0 out/stm32f10x_dma.o
 .text.DMA_DeInit
                0x00000000      0x104 out/stm32f10x_dma.o
 .text.DMA_Init
                0x00000000       0x40 out/stm32f10x_dma.o
 .text.DMA_StructInit
                0x00000000       0x1c out/stm32f10x_dma.o
 .text.DMA_Cmd  0x00000000       0x18 out/stm32f10x_dma.o
 .text.DMA_ITConfig
                0x00000000       0x14 out/stm32f10x_dma.o
 .text.DMA_SetCurrDataCounter
                0x00000000        0x4 out/stm32f10x_dma.o
 .text.DMA_GetCurrDataCounter
                0x00000000        0x8 out/stm32f10x_dma.o
 .text.DMA_GetFlagStatus
                0x00000000       0x1c out/stm32f10x_dma.o
 .text.DMA_ClearFlag
                0x00000000       0x14 out/stm32f10x_dma.o
 .text.DMA_GetITStatus
                0x00000000       0x1c out/stm32f10x_dma.o
 .text.DMA_ClearITPendingBit
                0x00000000       0x14 out/stm32f10x_dma.o
 .comment       0x00000000       0x71 out/stm32f10x_dma.o
 .ARM.attributes
                0x00000000       0x33 out/stm32f10x_dma.o
 .text          0x00000000        0x0 out/adc.o
 .data          0x00000000        0x0 out/adc.o
 .bss           0x00000000        0x0 out/adc.o
 .text.readADC1
                0x00000000       0x30 out/adc.o
 .text          0x00000000        0x0 out/systick.o
 .data          0x00000000        0x0 out/systick.o
 .bss           0x00000000        0x0 out/systick.o
 .text          0x00000000        0x0 out/i2c.o
 .data          0x00000000        0x0 out/i2c.o
 .bss           0x00000000        0x0 out/i2c.o
 .text.I2C_delay
                0x00000000        0x8 out/i2c.o
 .text          0x00000000        0x0 out/usart.o
 .data          0x00000000        0x0 out/usart.o
 .bss           0x00000000        0x0 out/usart.o
 .text.USART_Peek
                0x00000000        0xc out/usart.o
 .text.USART_PutCharDirect
                0x00000000       0x14 out/usart.o
 .text.USART_PutStringDirect
                0x00000000       0x24 out/usart.o
 .text          0x00000000        0x0 out/usb.o
 .data          0x00000000        0x0 out/usb.o
 .bss           0x00000000        0x0 out/usb.o
 .text.usbEnableBlockingTx
                0x00000000        0x4 out/usb.o
 .text.usbDisableBlockingTx
                0x00000000        0x4 out/usb.o
 .text.usbDsbISR
                0x00000000        0x4 out/usb.o
 .text          0x00000000        0x0 out/stopwatch.o
 .data          0x00000000        0x0 out/stopwatch.o
 .bss           0x00000000        0x0 out/stopwatch.o
 .text.StopWatchNow
                0x00000000        0x4 out/stopwatch.o
 .text          0x00000000        0x0 out/engine.o
 .data          0x00000000        0x0 out/engine.o
 .bss           0x00000000        0x0 out/engine.o
 .text.constrain
                0x00000000       0x24 out/engine.o
 .text.Limit_Pitch
                0x00000000       0x44 out/engine.o
 .text          0x00000000        0x0 out/commhandler.o
 .data          0x00000000        0x0 out/commhandler.o
 .bss           0x00000000        0x0 out/commhandler.o
 .text          0x00000000        0x0 out/system_stm32f10x.o
 .data          0x00000000        0x0 out/system_stm32f10x.o
 .bss           0x00000000        0x0 out/system_stm32f10x.o
 .text          0x00000000        0x0 out/ringbuffer.o
 .data          0x00000000        0x0 out/ringbuffer.o
 .bss           0x00000000        0x0 out/ringbuffer.o
 .text.RingBufferPeek
                0x00000000       0x14 out/ringbuffer.o
 .text          0x00000000        0x0 out/gyro.o
 .data          0x00000000        0x0 out/gyro.o
 .bss           0x00000000        0x0 out/gyro.o
 .text          0x00000000        0x0 out/utils.o
 .data          0x00000000        0x0 out/utils.o
 .bss           0x00000000        0x0 out/utils.o
 .text          0x00000000        0x0 out/newlib_stubs.o
 .data          0x00000000        0x0 out/newlib_stubs.o
 .bss           0x00000000        0x0 out/newlib_stubs.o
 .text._close   0x00000000        0x8 out/newlib_stubs.o
 .text._execve  0x00000000       0x10 out/newlib_stubs.o
 .text._fork    0x00000000       0x10 out/newlib_stubs.o
 .text._fstat   0x00000000        0xc out/newlib_stubs.o
 .text._getpid  0x00000000        0x4 out/newlib_stubs.o
 .text._isatty  0x00000000       0x18 out/newlib_stubs.o
 .text._kill    0x00000000       0x10 out/newlib_stubs.o
 .text._link    0x00000000       0x10 out/newlib_stubs.o
 .text._lseek   0x00000000        0x4 out/newlib_stubs.o
 .text._read    0x00000000       0x38 out/newlib_stubs.o
 .text._stat    0x00000000        0xc out/newlib_stubs.o
 .text._times   0x00000000        0x8 out/newlib_stubs.o
 .text._unlink  0x00000000       0x10 out/newlib_stubs.o
 .text._wait    0x00000000       0x10 out/newlib_stubs.o
 .text._exit    0x00000000       0x14 out/newlib_stubs.o
 .data.environ  0x00000000        0x4 out/newlib_stubs.o
 .bss.__env     0x00000000        0x4 out/newlib_stubs.o
 .text          0x00000000        0x0 out/reboot.o
 .data          0x00000000        0x0 out/reboot.o
 .bss           0x00000000        0x0 out/reboot.o
 .text.BKPInit  0x00000000       0x10 out/reboot.o
 .text.BKPRead  0x00000000       0x2c out/reboot.o
 .text.BKPWrite
                0x00000000       0x30 out/reboot.o
 .text          0x00000000        0x0 out/pwm.o
 .data          0x00000000        0x0 out/pwm.o
 .bss           0x00000000        0x0 out/pwm.o
 .text.MaxCntClear
                0x00000000       0x34 out/pwm.o
 .text.SetPWMData
                0x00000000       0x14 out/pwm.o
 .text.dist     0x00000000       0x14 out/pwm.o
 .text.SetPWMOrg
                0x00000000       0xdc out/pwm.o
 .text.SetPWMOrgFaster
                0x00000000       0xa8 out/pwm.o
 .text.SetPWM   0x00000000        0x4 out/pwm.o
 .text.ActivateIRQ
                0x00000000       0x18 out/pwm.o
 .text          0x00000000        0x0 out/stm32_it.o
 .data          0x00000000        0x0 out/stm32_it.o
 .bss           0x00000000        0x0 out/stm32_it.o
 .text          0x00000000        0x0 out/eeprom.o
 .data          0x00000000        0x0 out/eeprom.o
 .bss           0x00000000        0x0 out/eeprom.o
 .text          0x00000000        0x0 out/comio.o
 .data          0x00000000        0x0 out/comio.o
 .bss           0x00000000        0x0 out/comio.o
 .text.printDirect
                0x00000000       0x28 out/comio.o
 .text.DEBUG_PutString
                0x00000000       0x10 out/comio.o
 .text          0x00000000        0x0 out/main.o
 .data          0x00000000        0x0 out/main.o
 .bss           0x00000000        0x0 out/main.o
 .text          0x00000000        0x0 out/rc.o
 .data          0x00000000        0x0 out/rc.o
 .bss           0x00000000        0x0 out/rc.o
 .text.GetAUX3  0x00000000        0xc out/rc.o
 .text.GetAUX2  0x00000000        0xc out/rc.o
 .text.GetAUX4  0x00000000        0xc out/rc.o
 .text          0x00000000        0x0 out/pins.o
 .data          0x00000000        0x0 out/pins.o
 .bss           0x00000000        0x0 out/pins.o
 .text          0x00000000        0x0 out/fasttrig.o
 .data          0x00000000        0x0 out/fasttrig.o
 .bss           0x00000000        0x0 out/fasttrig.o
 .text.fastSin  0x00000000       0x98 out/fasttrig.o
 .text          0x00000000        0x0 out/config.o
 .data          0x00000000        0x0 out/config.o
 .bss           0x00000000        0x0 out/config.o
 .text          0x00000000        0x0 out/itoa.o
 .data          0x00000000        0x0 out/itoa.o
 .bss           0x00000000        0x0 out/itoa.o
 .text.itoa     0x00000000       0x70 out/itoa.o
 .rodata.digits.4118
                0x00000000       0x14 out/itoa.o
 .comment       0x00000000       0x71 out/itoa.o
 .ARM.attributes
                0x00000000       0x33 out/itoa.o
 .text          0x00000000        0x0 out/printf.o
 .data          0x00000000        0x0 out/printf.o
 .bss           0x00000000        0x0 out/printf.o
 .text.sprintf_
                0x00000000       0xb4 out/printf.o
 .comment       0x00000000       0x71 out/printf.o
 .ARM.attributes
                0x00000000       0x33 out/printf.o
 .text          0x00000000        0x0 out/usb_int.o
 .data          0x00000000        0x0 out/usb_int.o
 .bss           0x00000000        0x0 out/usb_int.o
 .text.CTR_HP   0x00000000       0x74 out/usb_int.o
 .text          0x00000000        0x0 out/usb_regs.o
 .data          0x00000000        0x0 out/usb_regs.o
 .bss           0x00000000        0x0 out/usb_regs.o
 .text.SetCNTR  0x00000000        0xc out/usb_regs.o
 .text.GetCNTR  0x00000000        0xc out/usb_regs.o
 .text.SetISTR  0x00000000        0xc out/usb_regs.o
 .text.GetISTR  0x00000000        0xc out/usb_regs.o
 .text.GetFNR   0x00000000        0xc out/usb_regs.o
 .text.SetDADDR
                0x00000000        0xc out/usb_regs.o
 .text.GetDADDR
                0x00000000        0xc out/usb_regs.o
 .text.GetBTABLE
                0x00000000        0xc out/usb_regs.o
 .text.SetENDPOINT
                0x00000000       0x10 out/usb_regs.o
 .text.GetENDPOINT
                0x00000000       0x10 out/usb_regs.o
 .text.GetEPType
                0x00000000       0x14 out/usb_regs.o
 .text.SetDouBleBuffEPStall
                0x00000000       0x2c out/usb_regs.o
 .text.GetEPTxStatus
                0x00000000       0x14 out/usb_regs.o
 .text.GetEPRxStatus
                0x00000000       0x14 out/usb_regs.o
 .text.SetEP_KIND
                0x00000000       0x20 out/usb_regs.o
 .text.ClearEP_KIND
                0x00000000       0x20 out/usb_regs.o
 .text.Set_Status_Out
                0x00000000       0x20 out/usb_regs.o
 .text.SetEPDoubleBuff
                0x00000000       0x20 out/usb_regs.o
 .text.ClearEPDoubleBuff
                0x00000000       0x20 out/usb_regs.o
 .text.GetTxStallStatus
                0x00000000       0x1c out/usb_regs.o
 .text.GetRxStallStatus
                0x00000000       0x1c out/usb_regs.o
 .text.ClearEP_CTR_RX
                0x00000000       0x18 out/usb_regs.o
 .text.ClearEP_CTR_TX
                0x00000000       0x18 out/usb_regs.o
 .text.ToggleDTOG_RX
                0x00000000       0x20 out/usb_regs.o
 .text.ToggleDTOG_TX
                0x00000000       0x20 out/usb_regs.o
 .text.SetEPAddress
                0x00000000       0x20 out/usb_regs.o
 .text.GetEPAddress
                0x00000000       0x14 out/usb_regs.o
 .text.SetEPCountRxReg
                0x00000000       0x28 out/usb_regs.o
 .text.GetEPTxCount
                0x00000000       0x20 out/usb_regs.o
 .text.SetEPDblBuffAddr
                0x00000000       0x3c out/usb_regs.o
 .text.SetEPDblBuf0Addr
                0x00000000       0x20 out/usb_regs.o
 .text.SetEPDblBuf1Addr
                0x00000000       0x20 out/usb_regs.o
 .text.GetEPDblBuf0Addr
                0x00000000       0x1c out/usb_regs.o
 .text.GetEPDblBuf1Addr
                0x00000000       0x1c out/usb_regs.o
 .text.SetEPDblBuffCount
                0x00000000       0xb8 out/usb_regs.o
 .text.SetEPDblBuf0Count
                0x00000000       0x60 out/usb_regs.o
 .text.SetEPDblBuf1Count
                0x00000000       0x60 out/usb_regs.o
 .text.GetEPDblBuf0Count
                0x00000000       0x20 out/usb_regs.o
 .text.GetEPDblBuf1Count
                0x00000000       0x20 out/usb_regs.o
 .text.GetEPDblBufDir
                0x00000000       0x44 out/usb_regs.o
 .text.FreeUserBuffer
                0x00000000       0x48 out/usb_regs.o
 .text.ToWord   0x00000000        0x8 out/usb_regs.o
 .text          0x00000000        0x0 out/usb_core.o
 .data          0x00000000        0x0 out/usb_core.o
 .bss           0x00000000        0x0 out/usb_core.o
 .text.Standard_SetDeviceFeature
                0x00000000       0x24 out/usb_core.o
 .text          0x00000000        0x0 out/usb_sil.o
 .data          0x00000000        0x0 out/usb_sil.o
 .bss           0x00000000        0x0 out/usb_sil.o
 .text.USB_SIL_Write
                0x00000000       0x28 out/usb_sil.o
 .text.USB_SIL_Read
                0x00000000       0x24 out/usb_sil.o
 .text          0x00000000        0x0 out/usb_init.o
 .data          0x00000000        0x0 out/usb_init.o
 .bss           0x00000000        0x0 out/usb_init.o
 .text          0x00000000        0x0 out/usb_mem.o
 .data          0x00000000        0x0 out/usb_mem.o
 .bss           0x00000000        0x0 out/usb_mem.o
 .text          0x00000000        0x0 out/usb_pwr.o
 .data          0x00000000        0x0 out/usb_pwr.o
 .bss           0x00000000        0x0 out/usb_pwr.o
 .text.PowerOff
                0x00000000       0x24 out/usb_pwr.o
 .text.Suspend  0x00000000       0xe4 out/usb_pwr.o
 .text.Resume_Init
                0x00000000       0x20 out/usb_pwr.o
 .data.fSuspendEnabled
                0x00000000        0x1 out/usb_pwr.o
 .text          0x00000000        0x0 out/usb_istr.o
 .data          0x00000000        0x0 out/usb_istr.o
 .bss           0x00000000        0x0 out/usb_istr.o
 .bss.wCNTR     0x00000000        0x4 out/usb_istr.o
 .bss.esof_counter
                0x00000000        0x4 out/usb_istr.o
 .text          0x00000000        0x0 out/hw_config.o
 .data          0x00000000        0x0 out/hw_config.o
 .bss           0x00000000        0x0 out/hw_config.o
 .text.Enter_LowPowerMode
                0x00000000        0xc out/hw_config.o
 .text.usbIsConfigured
                0x00000000       0x10 out/hw_config.o
 .text          0x00000000        0x0 out/usb_prop.o
 .data          0x00000000        0x0 out/usb_prop.o
 .bss           0x00000000        0x0 out/usb_prop.o
 .text          0x00000000        0x0 out/usb_endp.o
 .data          0x00000000        0x0 out/usb_endp.o
 .bss           0x00000000        0x0 out/usb_endp.o
 .text.EP1_IN_Callback
                0x00000000        0xc out/usb_endp.o
 .text          0x00000000        0x0 out/usb_desc.o
 .data          0x00000000        0x0 out/usb_desc.o
 .bss           0x00000000        0x0 out/usb_desc.o
 .text          0x00000000        0x0 c:/program files (x86)/gnu tools arm embedded/4.8 2014q2/bin/../lib/gcc/arm-none-eabi/4.8.4/../../../../arm-none-eabi/lib/armv7-m\libm.a(lib_a-s_sin.o)
 .data          0x00000000        0x0 c:/program files (x86)/gnu tools arm embedded/4.8 2014q2/bin/../lib/gcc/arm-none-eabi/4.8.4/../../../../arm-none-eabi/lib/armv7-m\libm.a(lib_a-s_sin.o)
 .bss           0x00000000        0x0 c:/program files (x86)/gnu tools arm embedded/4.8 2014q2/bin/../lib/gcc/arm-none-eabi/4.8.4/../../../../arm-none-eabi/lib/armv7-m\libm.a(lib_a-s_sin.o)
 .text.sin      0x00000000       0x94 c:/program files (x86)/gnu tools arm embedded/4.8 2014q2/bin/../lib/gcc/arm-none-eabi/4.8.4/../../../../arm-none-eabi/lib/armv7-m\libm.a(lib_a-s_sin.o)
 .ARM.attributes
                0x00000000       0x2d c:/program files (x86)/gnu tools arm embedded/4.8 2014q2/bin/../lib/gcc/arm-none-eabi/4.8.4/../../../../arm-none-eabi/lib/armv7-m\libm.a(lib_a-s_sin.o)
 .debug_frame   0x00000000       0x30 c:/program files (x86)/gnu tools arm embedded/4.8 2014q2/bin/../lib/gcc/arm-none-eabi/4.8.4/../../../../arm-none-eabi/lib/armv7-m\libm.a(lib_a-s_sin.o)
 .text          0x00000000        0x0 c:/program files (x86)/gnu tools arm embedded/4.8 2014q2/bin/../lib/gcc/arm-none-eabi/4.8.4/../../../../arm-none-eabi/lib/armv7-m\libm.a(lib_a-sf_cos.o)
 .data          0x00000000        0x0 c:/program files (x86)/gnu tools arm embedded/4.8 2014q2/bin/../lib/gcc/arm-none-eabi/4.8.4/../../../../arm-none-eabi/lib/armv7-m\libm.a(lib_a-sf_cos.o)
 .bss           0x00000000        0x0 c:/program files (x86)/gnu tools arm embedded/4.8 2014q2/bin/../lib/gcc/arm-none-eabi/4.8.4/../../../../arm-none-eabi/lib/armv7-m\libm.a(lib_a-sf_cos.o)
 .text          0x00000000        0x0 c:/program files (x86)/gnu tools arm embedded/4.8 2014q2/bin/../lib/gcc/arm-none-eabi/4.8.4/../../../../arm-none-eabi/lib/armv7-m\libm.a(lib_a-sf_sin.o)
 .data          0x00000000        0x0 c:/program files (x86)/gnu tools arm embedded/4.8 2014q2/bin/../lib/gcc/arm-none-eabi/4.8.4/../../../../arm-none-eabi/lib/armv7-m\libm.a(lib_a-sf_sin.o)
 .bss           0x00000000        0x0 c:/program files (x86)/gnu tools arm embedded/4.8 2014q2/bin/../lib/gcc/arm-none-eabi/4.8.4/../../../../arm-none-eabi/lib/armv7-m\libm.a(lib_a-sf_sin.o)
 .text          0x00000000        0x0 c:/program files (x86)/gnu tools arm embedded/4.8 2014q2/bin/../lib/gcc/arm-none-eabi/4.8.4/../../../../arm-none-eabi/lib/armv7-m\libm.a(lib_a-wf_atan2.o)
 .data          0x00000000        0x0 c:/program files (x86)/gnu tools arm embedded/4.8 2014q2/bin/../lib/gcc/arm-none-eabi/4.8.4/../../../../arm-none-eabi/lib/armv7-m\libm.a(lib_a-wf_atan2.o)
 .bss           0x00000000        0x0 c:/program files (x86)/gnu tools arm embedded/4.8 2014q2/bin/../lib/gcc/arm-none-eabi/4.8.4/../../../../arm-none-eabi/lib/armv7-m\libm.a(lib_a-wf_atan2.o)
 .text          0x00000000        0x0 c:/program files (x86)/gnu tools arm embedded/4.8 2014q2/bin/../lib/gcc/arm-none-eabi/4.8.4/../../../../arm-none-eabi/lib/armv7-m\libm.a(lib_a-wf_fmod.o)
 .data          0x00000000        0x0 c:/program files (x86)/gnu tools arm embedded/4.8 2014q2/bin/../lib/gcc/arm-none-eabi/4.8.4/../../../../arm-none-eabi/lib/armv7-m\libm.a(lib_a-wf_fmod.o)
 .bss           0x00000000        0x0 c:/program files (x86)/gnu tools arm embedded/4.8 2014q2/bin/../lib/gcc/arm-none-eabi/4.8.4/../../../../arm-none-eabi/lib/armv7-m\libm.a(lib_a-wf_fmod.o)
 .text.fmodf    0x00000000       0xb0 c:/program files (x86)/gnu tools arm embedded/4.8 2014q2/bin/../lib/gcc/arm-none-eabi/4.8.4/../../../../arm-none-eabi/lib/armv7-m\libm.a(lib_a-wf_fmod.o)
 .rodata.str1.4
                0x00000000        0x8 c:/program files (x86)/gnu tools arm embedded/4.8 2014q2/bin/../lib/gcc/arm-none-eabi/4.8.4/../../../../arm-none-eabi/lib/armv7-m\libm.a(lib_a-wf_fmod.o)
 .ARM.attributes
                0x00000000       0x2d c:/program files (x86)/gnu tools arm embedded/4.8 2014q2/bin/../lib/gcc/arm-none-eabi/4.8.4/../../../../arm-none-eabi/lib/armv7-m\libm.a(lib_a-wf_fmod.o)
 .debug_frame   0x00000000       0x30 c:/program files (x86)/gnu tools arm embedded/4.8 2014q2/bin/../lib/gcc/arm-none-eabi/4.8.4/../../../../arm-none-eabi/lib/armv7-m\libm.a(lib_a-wf_fmod.o)
 .text          0x00000000        0x0 c:/program files (x86)/gnu tools arm embedded/4.8 2014q2/bin/../lib/gcc/arm-none-eabi/4.8.4/../../../../arm-none-eabi/lib/armv7-m\libm.a(lib_a-wf_sqrt.o)
 .data          0x00000000        0x0 c:/program files (x86)/gnu tools arm embedded/4.8 2014q2/bin/../lib/gcc/arm-none-eabi/4.8.4/../../../../arm-none-eabi/lib/armv7-m\libm.a(lib_a-wf_sqrt.o)
 .bss           0x00000000        0x0 c:/program files (x86)/gnu tools arm embedded/4.8 2014q2/bin/../lib/gcc/arm-none-eabi/4.8.4/../../../../arm-none-eabi/lib/armv7-m\libm.a(lib_a-wf_sqrt.o)
 .text          0x00000000        0x0 c:/program files (x86)/gnu tools arm embedded/4.8 2014q2/bin/../lib/gcc/arm-none-eabi/4.8.4/../../../../arm-none-eabi/lib/armv7-m\libm.a(lib_a-e_rem_pio2.o)
 .data          0x00000000        0x0 c:/program files (x86)/gnu tools arm embedded/4.8 2014q2/bin/../lib/gcc/arm-none-eabi/4.8.4/../../../../arm-none-eabi/lib/armv7-m\libm.a(lib_a-e_rem_pio2.o)
 .bss           0x00000000        0x0 c:/program files (x86)/gnu tools arm embedded/4.8 2014q2/bin/../lib/gcc/arm-none-eabi/4.8.4/../../../../arm-none-eabi/lib/armv7-m\libm.a(lib_a-e_rem_pio2.o)
 .text.__ieee754_rem_pio2
                0x00000000      0x440 c:/program files (x86)/gnu tools arm embedded/4.8 2014q2/bin/../lib/gcc/arm-none-eabi/4.8.4/../../../../arm-none-eabi/lib/armv7-m\libm.a(lib_a-e_rem_pio2.o)
 .rodata.npio2_hw
                0x00000000       0x80 c:/program files (x86)/gnu tools arm embedded/4.8 2014q2/bin/../lib/gcc/arm-none-eabi/4.8.4/../../../../arm-none-eabi/lib/armv7-m\libm.a(lib_a-e_rem_pio2.o)
 .rodata.two_over_pi
                0x00000000      0x108 c:/program files (x86)/gnu tools arm embedded/4.8 2014q2/bin/../lib/gcc/arm-none-eabi/4.8.4/../../../../arm-none-eabi/lib/armv7-m\libm.a(lib_a-e_rem_pio2.o)
 .ARM.attributes
                0x00000000       0x2d c:/program files (x86)/gnu tools arm embedded/4.8 2014q2/bin/../lib/gcc/arm-none-eabi/4.8.4/../../../../arm-none-eabi/lib/armv7-m\libm.a(lib_a-e_rem_pio2.o)
 .debug_frame   0x00000000       0x38 c:/program files (x86)/gnu tools arm embedded/4.8 2014q2/bin/../lib/gcc/arm-none-eabi/4.8.4/../../../../arm-none-eabi/lib/armv7-m\libm.a(lib_a-e_rem_pio2.o)
 .text          0x00000000        0x0 c:/program files (x86)/gnu tools arm embedded/4.8 2014q2/bin/../lib/gcc/arm-none-eabi/4.8.4/../../../../arm-none-eabi/lib/armv7-m\libm.a(lib_a-ef_atan2.o)
 .data          0x00000000        0x0 c:/program files (x86)/gnu tools arm embedded/4.8 2014q2/bin/../lib/gcc/arm-none-eabi/4.8.4/../../../../arm-none-eabi/lib/armv7-m\libm.a(lib_a-ef_atan2.o)
 .bss           0x00000000        0x0 c:/program files (x86)/gnu tools arm embedded/4.8 2014q2/bin/../lib/gcc/arm-none-eabi/4.8.4/../../../../arm-none-eabi/lib/armv7-m\libm.a(lib_a-ef_atan2.o)
 .text          0x00000000        0x0 c:/program files (x86)/gnu tools arm embedded/4.8 2014q2/bin/../lib/gcc/arm-none-eabi/4.8.4/../../../../arm-none-eabi/lib/armv7-m\libm.a(lib_a-ef_fmod.o)
 .data          0x00000000        0x0 c:/program files (x86)/gnu tools arm embedded/4.8 2014q2/bin/../lib/gcc/arm-none-eabi/4.8.4/../../../../arm-none-eabi/lib/armv7-m\libm.a(lib_a-ef_fmod.o)
 .bss           0x00000000        0x0 c:/program files (x86)/gnu tools arm embedded/4.8 2014q2/bin/../lib/gcc/arm-none-eabi/4.8.4/../../../../arm-none-eabi/lib/armv7-m\libm.a(lib_a-ef_fmod.o)
 .text.__ieee754_fmodf
                0x00000000      0x104 c:/program files (x86)/gnu tools arm embedded/4.8 2014q2/bin/../lib/gcc/arm-none-eabi/4.8.4/../../../../arm-none-eabi/lib/armv7-m\libm.a(lib_a-ef_fmod.o)
 .rodata.Zero   0x00000000        0x8 c:/program files (x86)/gnu tools arm embedded/4.8 2014q2/bin/../lib/gcc/arm-none-eabi/4.8.4/../../../../arm-none-eabi/lib/armv7-m\libm.a(lib_a-ef_fmod.o)
 .ARM.attributes
                0x00000000       0x2d c:/program files (x86)/gnu tools arm embedded/4.8 2014q2/bin/../lib/gcc/arm-none-eabi/4.8.4/../../../../arm-none-eabi/lib/armv7-m\libm.a(lib_a-ef_fmod.o)
 .debug_frame   0x00000000       0x30 c:/program files (x86)/gnu tools arm embedded/4.8 2014q2/bin/../lib/gcc/arm-none-eabi/4.8.4/../../../../arm-none-eabi/lib/armv7-m\libm.a(lib_a-ef_fmod.o)
 .text          0x00000000        0x0 c:/program files (x86)/gnu tools arm embedded/4.8 2014q2/bin/../lib/gcc/arm-none-eabi/4.8.4/../../../../arm-none-eabi/lib/armv7-m\libm.a(lib_a-ef_rem_pio2.o)
 .data          0x00000000        0x0 c:/program files (x86)/gnu tools arm embedded/4.8 2014q2/bin/../lib/gcc/arm-none-eabi/4.8.4/../../../../arm-none-eabi/lib/armv7-m\libm.a(lib_a-ef_rem_pio2.o)
 .bss           0x00000000        0x0 c:/program files (x86)/gnu tools arm embedded/4.8 2014q2/bin/../lib/gcc/arm-none-eabi/4.8.4/../../../../arm-none-eabi/lib/armv7-m\libm.a(lib_a-ef_rem_pio2.o)
 .text          0x00000000        0x0 c:/program files (x86)/gnu tools arm embedded/4.8 2014q2/bin/../lib/gcc/arm-none-eabi/4.8.4/../../../../arm-none-eabi/lib/armv7-m\libm.a(lib_a-ef_sqrt.o)
 .data          0x00000000        0x0 c:/program files (x86)/gnu tools arm embedded/4.8 2014q2/bin/../lib/gcc/arm-none-eabi/4.8.4/../../../../arm-none-eabi/lib/armv7-m\libm.a(lib_a-ef_sqrt.o)
 .bss           0x00000000        0x0 c:/program files (x86)/gnu tools arm embedded/4.8 2014q2/bin/../lib/gcc/arm-none-eabi/4.8.4/../../../../arm-none-eabi/lib/armv7-m\libm.a(lib_a-ef_sqrt.o)
 .text          0x00000000        0x0 c:/program files (x86)/gnu tools arm embedded/4.8 2014q2/bin/../lib/gcc/arm-none-eabi/4.8.4/../../../../arm-none-eabi/lib/armv7-m\libm.a(lib_a-k_cos.o)
 .data          0x00000000        0x0 c:/program files (x86)/gnu tools arm embedded/4.8 2014q2/bin/../lib/gcc/arm-none-eabi/4.8.4/../../../../arm-none-eabi/lib/armv7-m\libm.a(lib_a-k_cos.o)
 .bss           0x00000000        0x0 c:/program files (x86)/gnu tools arm embedded/4.8 2014q2/bin/../lib/gcc/arm-none-eabi/4.8.4/../../../../arm-none-eabi/lib/armv7-m\libm.a(lib_a-k_cos.o)
 .text.__kernel_cos
                0x00000000      0x248 c:/program files (x86)/gnu tools arm embedded/4.8 2014q2/bin/../lib/gcc/arm-none-eabi/4.8.4/../../../../arm-none-eabi/lib/armv7-m\libm.a(lib_a-k_cos.o)
 .ARM.attributes
                0x00000000       0x2d c:/program files (x86)/gnu tools arm embedded/4.8 2014q2/bin/../lib/gcc/arm-none-eabi/4.8.4/../../../../arm-none-eabi/lib/armv7-m\libm.a(lib_a-k_cos.o)
 .debug_frame   0x00000000       0x38 c:/program files (x86)/gnu tools arm embedded/4.8 2014q2/bin/../lib/gcc/arm-none-eabi/4.8.4/../../../../arm-none-eabi/lib/armv7-m\libm.a(lib_a-k_cos.o)
 .text          0x00000000        0x0 c:/program files (x86)/gnu tools arm embedded/4.8 2014q2/bin/../lib/gcc/arm-none-eabi/4.8.4/../../../../arm-none-eabi/lib/armv7-m\libm.a(lib_a-k_rem_pio2.o)
 .data          0x00000000        0x0 c:/program files (x86)/gnu tools arm embedded/4.8 2014q2/bin/../lib/gcc/arm-none-eabi/4.8.4/../../../../arm-none-eabi/lib/armv7-m\libm.a(lib_a-k_rem_pio2.o)
 .bss           0x00000000        0x0 c:/program files (x86)/gnu tools arm embedded/4.8 2014q2/bin/../lib/gcc/arm-none-eabi/4.8.4/../../../../arm-none-eabi/lib/armv7-m\libm.a(lib_a-k_rem_pio2.o)
 .text.__kernel_rem_pio2
                0x00000000      0x7bc c:/program files (x86)/gnu tools arm embedded/4.8 2014q2/bin/../lib/gcc/arm-none-eabi/4.8.4/../../../../arm-none-eabi/lib/armv7-m\libm.a(lib_a-k_rem_pio2.o)
 .rodata.init_jk
                0x00000000       0x10 c:/program files (x86)/gnu tools arm embedded/4.8 2014q2/bin/../lib/gcc/arm-none-eabi/4.8.4/../../../../arm-none-eabi/lib/armv7-m\libm.a(lib_a-k_rem_pio2.o)
 .rodata.PIo2   0x00000000       0x40 c:/program files (x86)/gnu tools arm embedded/4.8 2014q2/bin/../lib/gcc/arm-none-eabi/4.8.4/../../../../arm-none-eabi/lib/armv7-m\libm.a(lib_a-k_rem_pio2.o)
 .ARM.attributes
                0x00000000       0x2d c:/program files (x86)/gnu tools arm embedded/4.8 2014q2/bin/../lib/gcc/arm-none-eabi/4.8.4/../../../../arm-none-eabi/lib/armv7-m\libm.a(lib_a-k_rem_pio2.o)
 .debug_frame   0x00000000       0x3c c:/program files (x86)/gnu tools arm embedded/4.8 2014q2/bin/../lib/gcc/arm-none-eabi/4.8.4/../../../../arm-none-eabi/lib/armv7-m\libm.a(lib_a-k_rem_pio2.o)
 .text          0x00000000        0x0 c:/program files (x86)/gnu tools arm embedded/4.8 2014q2/bin/../lib/gcc/arm-none-eabi/4.8.4/../../../../arm-none-eabi/lib/armv7-m\libm.a(lib_a-k_sin.o)
 .data          0x00000000        0x0 c:/program files (x86)/gnu tools arm embedded/4.8 2014q2/bin/../lib/gcc/arm-none-eabi/4.8.4/../../../../arm-none-eabi/lib/armv7-m\libm.a(lib_a-k_sin.o)
 .bss           0x00000000        0x0 c:/program files (x86)/gnu tools arm embedded/4.8 2014q2/bin/../lib/gcc/arm-none-eabi/4.8.4/../../../../arm-none-eabi/lib/armv7-m\libm.a(lib_a-k_sin.o)
 .text.__kernel_sin
                0x00000000      0x170 c:/program files (x86)/gnu tools arm embedded/4.8 2014q2/bin/../lib/gcc/arm-none-eabi/4.8.4/../../../../arm-none-eabi/lib/armv7-m\libm.a(lib_a-k_sin.o)
 .ARM.attributes
                0x00000000       0x2d c:/program files (x86)/gnu tools arm embedded/4.8 2014q2/bin/../lib/gcc/arm-none-eabi/4.8.4/../../../../arm-none-eabi/lib/armv7-m\libm.a(lib_a-k_sin.o)
 .debug_frame   0x00000000       0x38 c:/program files (x86)/gnu tools arm embedded/4.8 2014q2/bin/../lib/gcc/arm-none-eabi/4.8.4/../../../../arm-none-eabi/lib/armv7-m\libm.a(lib_a-k_sin.o)
 .text          0x00000000        0x0 c:/program files (x86)/gnu tools arm embedded/4.8 2014q2/bin/../lib/gcc/arm-none-eabi/4.8.4/../../../../arm-none-eabi/lib/armv7-m\libm.a(lib_a-kf_cos.o)
 .data          0x00000000        0x0 c:/program files (x86)/gnu tools arm embedded/4.8 2014q2/bin/../lib/gcc/arm-none-eabi/4.8.4/../../../../arm-none-eabi/lib/armv7-m\libm.a(lib_a-kf_cos.o)
 .bss           0x00000000        0x0 c:/program files (x86)/gnu tools arm embedded/4.8 2014q2/bin/../lib/gcc/arm-none-eabi/4.8.4/../../../../arm-none-eabi/lib/armv7-m\libm.a(lib_a-kf_cos.o)
 .text          0x00000000        0x0 c:/program files (x86)/gnu tools arm embedded/4.8 2014q2/bin/../lib/gcc/arm-none-eabi/4.8.4/../../../../arm-none-eabi/lib/armv7-m\libm.a(lib_a-kf_rem_pio2.o)
 .data          0x00000000        0x0 c:/program files (x86)/gnu tools arm embedded/4.8 2014q2/bin/../lib/gcc/arm-none-eabi/4.8.4/../../../../arm-none-eabi/lib/armv7-m\libm.a(lib_a-kf_rem_pio2.o)
 .bss           0x00000000        0x0 c:/program files (x86)/gnu tools arm embedded/4.8 2014q2/bin/../lib/gcc/arm-none-eabi/4.8.4/../../../../arm-none-eabi/lib/armv7-m\libm.a(lib_a-kf_rem_pio2.o)
 .text          0x00000000        0x0 c:/program files (x86)/gnu tools arm embedded/4.8 2014q2/bin/../lib/gcc/arm-none-eabi/4.8.4/../../../../arm-none-eabi/lib/armv7-m\libm.a(lib_a-kf_sin.o)
 .data          0x00000000        0x0 c:/program files (x86)/gnu tools arm embedded/4.8 2014q2/bin/../lib/gcc/arm-none-eabi/4.8.4/../../../../arm-none-eabi/lib/armv7-m\libm.a(lib_a-kf_sin.o)
 .bss           0x00000000        0x0 c:/program files (x86)/gnu tools arm embedded/4.8 2014q2/bin/../lib/gcc/arm-none-eabi/4.8.4/../../../../arm-none-eabi/lib/armv7-m\libm.a(lib_a-kf_sin.o)
 .text          0x00000000        0x0 c:/program files (x86)/gnu tools arm embedded/4.8 2014q2/bin/../lib/gcc/arm-none-eabi/4.8.4/../../../../arm-none-eabi/lib/armv7-m\libm.a(lib_a-s_fabs.o)
 .data          0x00000000        0x0 c:/program files (x86)/gnu tools arm embedded/4.8 2014q2/bin/../lib/gcc/arm-none-eabi/4.8.4/../../../../arm-none-eabi/lib/armv7-m\libm.a(lib_a-s_fabs.o)
 .bss           0x00000000        0x0 c:/program files (x86)/gnu tools arm embedded/4.8 2014q2/bin/../lib/gcc/arm-none-eabi/4.8.4/../../../../arm-none-eabi/lib/armv7-m\libm.a(lib_a-s_fabs.o)
 .text.fabs     0x00000000        0x8 c:/program files (x86)/gnu tools arm embedded/4.8 2014q2/bin/../lib/gcc/arm-none-eabi/4.8.4/../../../../arm-none-eabi/lib/armv7-m\libm.a(lib_a-s_fabs.o)
 .ARM.attributes
                0x00000000       0x2d c:/program files (x86)/gnu tools arm embedded/4.8 2014q2/bin/../lib/gcc/arm-none-eabi/4.8.4/../../../../arm-none-eabi/lib/armv7-m\libm.a(lib_a-s_fabs.o)
 .debug_frame   0x00000000       0x20 c:/program files (x86)/gnu tools arm embedded/4.8 2014q2/bin/../lib/gcc/arm-none-eabi/4.8.4/../../../../arm-none-eabi/lib/armv7-m\libm.a(lib_a-s_fabs.o)
 .text          0x00000000        0x0 c:/program files (x86)/gnu tools arm embedded/4.8 2014q2/bin/../lib/gcc/arm-none-eabi/4.8.4/../../../../arm-none-eabi/lib/armv7-m\libm.a(lib_a-s_floor.o)
 .data          0x00000000        0x0 c:/program files (x86)/gnu tools arm embedded/4.8 2014q2/bin/../lib/gcc/arm-none-eabi/4.8.4/../../../../arm-none-eabi/lib/armv7-m\libm.a(lib_a-s_floor.o)
 .bss           0x00000000        0x0 c:/program files (x86)/gnu tools arm embedded/4.8 2014q2/bin/../lib/gcc/arm-none-eabi/4.8.4/../../../../arm-none-eabi/lib/armv7-m\libm.a(lib_a-s_floor.o)
 .text.floor    0x00000000      0x120 c:/program files (x86)/gnu tools arm embedded/4.8 2014q2/bin/../lib/gcc/arm-none-eabi/4.8.4/../../../../arm-none-eabi/lib/armv7-m\libm.a(lib_a-s_floor.o)
 .ARM.attributes
                0x00000000       0x2d c:/program files (x86)/gnu tools arm embedded/4.8 2014q2/bin/../lib/gcc/arm-none-eabi/4.8.4/../../../../arm-none-eabi/lib/armv7-m\libm.a(lib_a-s_floor.o)
 .debug_frame   0x00000000       0x38 c:/program files (x86)/gnu tools arm embedded/4.8 2014q2/bin/../lib/gcc/arm-none-eabi/4.8.4/../../../../arm-none-eabi/lib/armv7-m\libm.a(lib_a-s_floor.o)
 .text          0x00000000        0x0 c:/program files (x86)/gnu tools arm embedded/4.8 2014q2/bin/../lib/gcc/arm-none-eabi/4.8.4/../../../../arm-none-eabi/lib/armv7-m\libm.a(lib_a-s_lib_ver.o)
 .data          0x00000000        0x0 c:/program files (x86)/gnu tools arm embedded/4.8 2014q2/bin/../lib/gcc/arm-none-eabi/4.8.4/../../../../arm-none-eabi/lib/armv7-m\libm.a(lib_a-s_lib_ver.o)
 .bss           0x00000000        0x0 c:/program files (x86)/gnu tools arm embedded/4.8 2014q2/bin/../lib/gcc/arm-none-eabi/4.8.4/../../../../arm-none-eabi/lib/armv7-m\libm.a(lib_a-s_lib_ver.o)
 .text          0x00000000        0x0 c:/program files (x86)/gnu tools arm embedded/4.8 2014q2/bin/../lib/gcc/arm-none-eabi/4.8.4/../../../../arm-none-eabi/lib/armv7-m\libm.a(lib_a-s_matherr.o)
 .data          0x00000000        0x0 c:/program files (x86)/gnu tools arm embedded/4.8 2014q2/bin/../lib/gcc/arm-none-eabi/4.8.4/../../../../arm-none-eabi/lib/armv7-m\libm.a(lib_a-s_matherr.o)
 .bss           0x00000000        0x0 c:/program files (x86)/gnu tools arm embedded/4.8 2014q2/bin/../lib/gcc/arm-none-eabi/4.8.4/../../../../arm-none-eabi/lib/armv7-m\libm.a(lib_a-s_matherr.o)
 .text          0x00000000        0x0 c:/program files (x86)/gnu tools arm embedded/4.8 2014q2/bin/../lib/gcc/arm-none-eabi/4.8.4/../../../../arm-none-eabi/lib/armv7-m\libm.a(lib_a-s_scalbn.o)
 .data          0x00000000        0x0 c:/program files (x86)/gnu tools arm embedded/4.8 2014q2/bin/../lib/gcc/arm-none-eabi/4.8.4/../../../../arm-none-eabi/lib/armv7-m\libm.a(lib_a-s_scalbn.o)
 .bss           0x00000000        0x0 c:/program files (x86)/gnu tools arm embedded/4.8 2014q2/bin/../lib/gcc/arm-none-eabi/4.8.4/../../../../arm-none-eabi/lib/armv7-m\libm.a(lib_a-s_scalbn.o)
 .text.scalbn   0x00000000      0x100 c:/program files (x86)/gnu tools arm embedded/4.8 2014q2/bin/../lib/gcc/arm-none-eabi/4.8.4/../../../../arm-none-eabi/lib/armv7-m\libm.a(lib_a-s_scalbn.o)
 .ARM.attributes
                0x00000000       0x2d c:/program files (x86)/gnu tools arm embedded/4.8 2014q2/bin/../lib/gcc/arm-none-eabi/4.8.4/../../../../arm-none-eabi/lib/armv7-m\libm.a(lib_a-s_scalbn.o)
 .debug_frame   0x00000000       0x30 c:/program files (x86)/gnu tools arm embedded/4.8 2014q2/bin/../lib/gcc/arm-none-eabi/4.8.4/../../../../arm-none-eabi/lib/armv7-m\libm.a(lib_a-s_scalbn.o)
 .text          0x00000000        0x0 c:/program files (x86)/gnu tools arm embedded/4.8 2014q2/bin/../lib/gcc/arm-none-eabi/4.8.4/../../../../arm-none-eabi/lib/armv7-m\libm.a(lib_a-sf_atan.o)
 .data          0x00000000        0x0 c:/program files (x86)/gnu tools arm embedded/4.8 2014q2/bin/../lib/gcc/arm-none-eabi/4.8.4/../../../../arm-none-eabi/lib/armv7-m\libm.a(lib_a-sf_atan.o)
 .bss           0x00000000        0x0 c:/program files (x86)/gnu tools arm embedded/4.8 2014q2/bin/../lib/gcc/arm-none-eabi/4.8.4/../../../../arm-none-eabi/lib/armv7-m\libm.a(lib_a-sf_atan.o)
 .text          0x00000000        0x0 c:/program files (x86)/gnu tools arm embedded/4.8 2014q2/bin/../lib/gcc/arm-none-eabi/4.8.4/../../../../arm-none-eabi/lib/armv7-m\libm.a(lib_a-sf_fabs.o)
 .data          0x00000000        0x0 c:/program files (x86)/gnu tools arm embedded/4.8 2014q2/bin/../lib/gcc/arm-none-eabi/4.8.4/../../../../arm-none-eabi/lib/armv7-m\libm.a(lib_a-sf_fabs.o)
 .bss           0x00000000        0x0 c:/program files (x86)/gnu tools arm embedded/4.8 2014q2/bin/../lib/gcc/arm-none-eabi/4.8.4/../../../../arm-none-eabi/lib/armv7-m\libm.a(lib_a-sf_fabs.o)
 .text          0x00000000        0x0 c:/program files (x86)/gnu tools arm embedded/4.8 2014q2/bin/../lib/gcc/arm-none-eabi/4.8.4/../../../../arm-none-eabi/lib/armv7-m\libm.a(lib_a-sf_floor.o)
 .data          0x00000000        0x0 c:/program files (x86)/gnu tools arm embedded/4.8 2014q2/bin/../lib/gcc/arm-none-eabi/4.8.4/../../../../arm-none-eabi/lib/armv7-m\libm.a(lib_a-sf_floor.o)
 .bss           0x00000000        0x0 c:/program files (x86)/gnu tools arm embedded/4.8 2014q2/bin/../lib/gcc/arm-none-eabi/4.8.4/../../../../arm-none-eabi/lib/armv7-m\libm.a(lib_a-sf_floor.o)
 .text          0x00000000        0x0 c:/program files (x86)/gnu tools arm embedded/4.8 2014q2/bin/../lib/gcc/arm-none-eabi/4.8.4/../../../../arm-none-eabi/lib/armv7-m\libm.a(lib_a-sf_fpclassify.o)
 .data          0x00000000        0x0 c:/program files (x86)/gnu tools arm embedded/4.8 2014q2/bin/../lib/gcc/arm-none-eabi/4.8.4/../../../../arm-none-eabi/lib/armv7-m\libm.a(lib_a-sf_fpclassify.o)
 .bss           0x00000000        0x0 c:/program files (x86)/gnu tools arm embedded/4.8 2014q2/bin/../lib/gcc/arm-none-eabi/4.8.4/../../../../arm-none-eabi/lib/armv7-m\libm.a(lib_a-sf_fpclassify.o)
 .text          0x00000000        0x0 c:/program files (x86)/gnu tools arm embedded/4.8 2014q2/bin/../lib/gcc/arm-none-eabi/4.8.4/../../../../arm-none-eabi/lib/armv7-m\libm.a(lib_a-sf_scalbn.o)
 .data          0x00000000        0x0 c:/program files (x86)/gnu tools arm embedded/4.8 2014q2/bin/../lib/gcc/arm-none-eabi/4.8.4/../../../../arm-none-eabi/lib/armv7-m\libm.a(lib_a-sf_scalbn.o)
 .bss           0x00000000        0x0 c:/program files (x86)/gnu tools arm embedded/4.8 2014q2/bin/../lib/gcc/arm-none-eabi/4.8.4/../../../../arm-none-eabi/lib/armv7-m\libm.a(lib_a-sf_scalbn.o)
 .text          0x00000000        0x0 c:/program files (x86)/gnu tools arm embedded/4.8 2014q2/bin/../lib/gcc/arm-none-eabi/4.8.4/../../../../arm-none-eabi/lib/armv7-m\libm.a(lib_a-s_copysign.o)
 .data          0x00000000        0x0 c:/program files (x86)/gnu tools arm embedded/4.8 2014q2/bin/../lib/gcc/arm-none-eabi/4.8.4/../../../../arm-none-eabi/lib/armv7-m\libm.a(lib_a-s_copysign.o)
 .bss           0x00000000        0x0 c:/program files (x86)/gnu tools arm embedded/4.8 2014q2/bin/../lib/gcc/arm-none-eabi/4.8.4/../../../../arm-none-eabi/lib/armv7-m\libm.a(lib_a-s_copysign.o)
 .text.copysign
                0x00000000       0x14 c:/program files (x86)/gnu tools arm embedded/4.8 2014q2/bin/../lib/gcc/arm-none-eabi/4.8.4/../../../../arm-none-eabi/lib/armv7-m\libm.a(lib_a-s_copysign.o)
 .ARM.attributes
                0x00000000       0x2d c:/program files (x86)/gnu tools arm embedded/4.8 2014q2/bin/../lib/gcc/arm-none-eabi/4.8.4/../../../../arm-none-eabi/lib/armv7-m\libm.a(lib_a-s_copysign.o)
 .debug_frame   0x00000000       0x28 c:/program files (x86)/gnu tools arm embedded/4.8 2014q2/bin/../lib/gcc/arm-none-eabi/4.8.4/../../../../arm-none-eabi/lib/armv7-m\libm.a(lib_a-s_copysign.o)
 .text          0x00000000        0x0 c:/program files (x86)/gnu tools arm embedded/4.8 2014q2/bin/../lib/gcc/arm-none-eabi/4.8.4/../../../../arm-none-eabi/lib/armv7-m\libm.a(lib_a-sf_copysign.o)
 .data          0x00000000        0x0 c:/program files (x86)/gnu tools arm embedded/4.8 2014q2/bin/../lib/gcc/arm-none-eabi/4.8.4/../../../../arm-none-eabi/lib/armv7-m\libm.a(lib_a-sf_copysign.o)
 .bss           0x00000000        0x0 c:/program files (x86)/gnu tools arm embedded/4.8 2014q2/bin/../lib/gcc/arm-none-eabi/4.8.4/../../../../arm-none-eabi/lib/armv7-m\libm.a(lib_a-sf_copysign.o)
 .data          0x00000000        0x0 c:/program files (x86)/gnu tools arm embedded/4.8 2014q2/bin/../lib/gcc/arm-none-eabi/4.8.4/armv7-m\libgcc.a(_arm_addsubdf3.o)
 .bss           0x00000000        0x0 c:/program files (x86)/gnu tools arm embedded/4.8 2014q2/bin/../lib/gcc/arm-none-eabi/4.8.4/armv7-m\libgcc.a(_arm_addsubdf3.o)
 .data          0x00000000        0x0 c:/program files (x86)/gnu tools arm embedded/4.8 2014q2/bin/../lib/gcc/arm-none-eabi/4.8.4/armv7-m\libgcc.a(_arm_muldivdf3.o)
 .bss           0x00000000        0x0 c:/program files (x86)/gnu tools arm embedded/4.8 2014q2/bin/../lib/gcc/arm-none-eabi/4.8.4/armv7-m\libgcc.a(_arm_muldivdf3.o)
 .data          0x00000000        0x0 c:/program files (x86)/gnu tools arm embedded/4.8 2014q2/bin/../lib/gcc/arm-none-eabi/4.8.4/armv7-m\libgcc.a(_arm_cmpdf2.o)
 .bss           0x00000000        0x0 c:/program files (x86)/gnu tools arm embedded/4.8 2014q2/bin/../lib/gcc/arm-none-eabi/4.8.4/armv7-m\libgcc.a(_arm_cmpdf2.o)
 .data          0x00000000        0x0 c:/program files (x86)/gnu tools arm embedded/4.8 2014q2/bin/../lib/gcc/arm-none-eabi/4.8.4/armv7-m\libgcc.a(_arm_fixdfsi.o)
 .bss           0x00000000        0x0 c:/program files (x86)/gnu tools arm embedded/4.8 2014q2/bin/../lib/gcc/arm-none-eabi/4.8.4/armv7-m\libgcc.a(_arm_fixdfsi.o)
 .data          0x00000000        0x0 c:/program files (x86)/gnu tools arm embedded/4.8 2014q2/bin/../lib/gcc/arm-none-eabi/4.8.4/armv7-m\libgcc.a(_arm_truncdfsf2.o)
 .bss           0x00000000        0x0 c:/program files (x86)/gnu tools arm embedded/4.8 2014q2/bin/../lib/gcc/arm-none-eabi/4.8.4/armv7-m\libgcc.a(_arm_truncdfsf2.o)
 .data          0x00000000        0x0 c:/program files (x86)/gnu tools arm embedded/4.8 2014q2/bin/../lib/gcc/arm-none-eabi/4.8.4/armv7-m\libgcc.a(_arm_addsubsf3.o)
 .bss           0x00000000        0x0 c:/program files (x86)/gnu tools arm embedded/4.8 2014q2/bin/../lib/gcc/arm-none-eabi/4.8.4/armv7-m\libgcc.a(_arm_addsubsf3.o)
 .data          0x00000000        0x0 c:/program files (x86)/gnu tools arm embedded/4.8 2014q2/bin/../lib/gcc/arm-none-eabi/4.8.4/armv7-m\libgcc.a(_arm_muldivsf3.o)
 .bss           0x00000000        0x0 c:/program files (x86)/gnu tools arm embedded/4.8 2014q2/bin/../lib/gcc/arm-none-eabi/4.8.4/armv7-m\libgcc.a(_arm_muldivsf3.o)
 .data          0x00000000        0x0 c:/program files (x86)/gnu tools arm embedded/4.8 2014q2/bin/../lib/gcc/arm-none-eabi/4.8.4/armv7-m\libgcc.a(_arm_cmpsf2.o)
 .bss           0x00000000        0x0 c:/program files (x86)/gnu tools arm embedded/4.8 2014q2/bin/../lib/gcc/arm-none-eabi/4.8.4/armv7-m\libgcc.a(_arm_cmpsf2.o)
 .data          0x00000000        0x0 c:/program files (x86)/gnu tools arm embedded/4.8 2014q2/bin/../lib/gcc/arm-none-eabi/4.8.4/armv7-m\libgcc.a(_arm_fixsfsi.o)
 .bss           0x00000000        0x0 c:/program files (x86)/gnu tools arm embedded/4.8 2014q2/bin/../lib/gcc/arm-none-eabi/4.8.4/armv7-m\libgcc.a(_arm_fixsfsi.o)
 .text          0x00000000        0x0 c:/program files (x86)/gnu tools arm embedded/4.8 2014q2/bin/../lib/gcc/arm-none-eabi/4.8.4/../../../../arm-none-eabi/lib/armv7-m\libc.a(lib_a-errno.o)
 .data          0x00000000        0x0 c:/program files (x86)/gnu tools arm embedded/4.8 2014q2/bin/../lib/gcc/arm-none-eabi/4.8.4/../../../../arm-none-eabi/lib/armv7-m\libc.a(lib_a-errno.o)
 .bss           0x00000000        0x0 c:/program files (x86)/gnu tools arm embedded/4.8 2014q2/bin/../lib/gcc/arm-none-eabi/4.8.4/../../../../arm-none-eabi/lib/armv7-m\libc.a(lib_a-errno.o)
 .text          0x00000000        0x0 c:/program files (x86)/gnu tools arm embedded/4.8 2014q2/bin/../lib/gcc/arm-none-eabi/4.8.4/../../../../arm-none-eabi/lib/armv7-m\libc.a(lib_a-impure.o)
 .data          0x00000000        0x0 c:/program files (x86)/gnu tools arm embedded/4.8 2014q2/bin/../lib/gcc/arm-none-eabi/4.8.4/../../../../arm-none-eabi/lib/armv7-m\libc.a(lib_a-impure.o)
 .bss           0x00000000        0x0 c:/program files (x86)/gnu tools arm embedded/4.8 2014q2/bin/../lib/gcc/arm-none-eabi/4.8.4/../../../../arm-none-eabi/lib/armv7-m\libc.a(lib_a-impure.o)
 .rodata._global_impure_ptr
                0x00000000        0x4 c:/program files (x86)/gnu tools arm embedded/4.8 2014q2/bin/../lib/gcc/arm-none-eabi/4.8.4/../../../../arm-none-eabi/lib/armv7-m\libc.a(lib_a-impure.o)
 .text          0x00000000        0x0 c:/program files (x86)/gnu tools arm embedded/4.8 2014q2/bin/../lib/gcc/arm-none-eabi/4.8.4/../../../../arm-none-eabi/lib/armv7-m\libc.a(lib_a-init.o)
 .data          0x00000000        0x0 c:/program files (x86)/gnu tools arm embedded/4.8 2014q2/bin/../lib/gcc/arm-none-eabi/4.8.4/../../../../arm-none-eabi/lib/armv7-m\libc.a(lib_a-init.o)
 .bss           0x00000000        0x0 c:/program files (x86)/gnu tools arm embedded/4.8 2014q2/bin/../lib/gcc/arm-none-eabi/4.8.4/../../../../arm-none-eabi/lib/armv7-m\libc.a(lib_a-init.o)
 .data          0x00000000        0x0 c:/program files (x86)/gnu tools arm embedded/4.8 2014q2/bin/../lib/gcc/arm-none-eabi/4.8.4/../../../../arm-none-eabi/lib/armv7-m\libc.a(lib_a-memcpy.o)
 .bss           0x00000000        0x0 c:/program files (x86)/gnu tools arm embedded/4.8 2014q2/bin/../lib/gcc/arm-none-eabi/4.8.4/../../../../arm-none-eabi/lib/armv7-m\libc.a(lib_a-memcpy.o)
 .text          0x00000000        0x0 c:/program files (x86)/gnu tools arm embedded/4.8 2014q2/bin/../lib/gcc/arm-none-eabi/4.8.4/../../../../arm-none-eabi/lib/armv7-m\libc.a(lib_a-reent.o)
 .data          0x00000000        0x0 c:/program files (x86)/gnu tools arm embedded/4.8 2014q2/bin/../lib/gcc/arm-none-eabi/4.8.4/../../../../arm-none-eabi/lib/armv7-m\libc.a(lib_a-reent.o)
 .bss           0x00000000        0x0 c:/program files (x86)/gnu tools arm embedded/4.8 2014q2/bin/../lib/gcc/arm-none-eabi/4.8.4/../../../../arm-none-eabi/lib/armv7-m\libc.a(lib_a-reent.o)
 .text.cleanup_glue
                0x00000000       0x1c c:/program files (x86)/gnu tools arm embedded/4.8 2014q2/bin/../lib/gcc/arm-none-eabi/4.8.4/../../../../arm-none-eabi/lib/armv7-m\libc.a(lib_a-reent.o)
 .text._reclaim_reent
                0x00000000       0x90 c:/program files (x86)/gnu tools arm embedded/4.8 2014q2/bin/../lib/gcc/arm-none-eabi/4.8.4/../../../../arm-none-eabi/lib/armv7-m\libc.a(lib_a-reent.o)
 .text          0x00000000        0x0 c:/program files (x86)/gnu tools arm embedded/4.8 2014q2/bin/../lib/gcc/arm-none-eabi/4.8.4/../../../../arm-none-eabi/lib/armv7-m\libc.a(lib_a-strlen.o)
 .data          0x00000000        0x0 c:/program files (x86)/gnu tools arm embedded/4.8 2014q2/bin/../lib/gcc/arm-none-eabi/4.8.4/../../../../arm-none-eabi/lib/armv7-m\libc.a(lib_a-strlen.o)
 .bss           0x00000000        0x0 c:/program files (x86)/gnu tools arm embedded/4.8 2014q2/bin/../lib/gcc/arm-none-eabi/4.8.4/../../../../arm-none-eabi/lib/armv7-m\libc.a(lib_a-strlen.o)
 .text          0x00000000        0x0 c:/program files (x86)/gnu tools arm embedded/4.8 2014q2/bin/../lib/gcc/arm-none-eabi/4.8.4/../../../../arm-none-eabi/lib/armv7-m\libc.a(lib_a-vsnprintf.o)
 .data          0x00000000        0x0 c:/program files (x86)/gnu tools arm embedded/4.8 2014q2/bin/../lib/gcc/arm-none-eabi/4.8.4/../../../../arm-none-eabi/lib/armv7-m\libc.a(lib_a-vsnprintf.o)
 .bss           0x00000000        0x0 c:/program files (x86)/gnu tools arm embedded/4.8 2014q2/bin/../lib/gcc/arm-none-eabi/4.8.4/../../../../arm-none-eabi/lib/armv7-m\libc.a(lib_a-vsnprintf.o)
 .text          0x00000000        0x0 c:/program files (x86)/gnu tools arm embedded/4.8 2014q2/bin/../lib/gcc/arm-none-eabi/4.8.4/../../../../arm-none-eabi/lib/armv7-m\libc.a(lib_a-freer.o)
 .data          0x00000000        0x0 c:/program files (x86)/gnu tools arm embedded/4.8 2014q2/bin/../lib/gcc/arm-none-eabi/4.8.4/../../../../arm-none-eabi/lib/armv7-m\libc.a(lib_a-freer.o)
 .bss           0x00000000        0x0 c:/program files (x86)/gnu tools arm embedded/4.8 2014q2/bin/../lib/gcc/arm-none-eabi/4.8.4/../../../../arm-none-eabi/lib/armv7-m\libc.a(lib_a-freer.o)
 .text          0x00000000        0x0 c:/program files (x86)/gnu tools arm embedded/4.8 2014q2/bin/../lib/gcc/arm-none-eabi/4.8.4/../../../../arm-none-eabi/lib/armv7-m\libc.a(lib_a-mallocr.o)
 .data          0x00000000        0x0 c:/program files (x86)/gnu tools arm embedded/4.8 2014q2/bin/../lib/gcc/arm-none-eabi/4.8.4/../../../../arm-none-eabi/lib/armv7-m\libc.a(lib_a-mallocr.o)
 .bss           0x00000000        0x0 c:/program files (x86)/gnu tools arm embedded/4.8 2014q2/bin/../lib/gcc/arm-none-eabi/4.8.4/../../../../arm-none-eabi/lib/armv7-m\libc.a(lib_a-mallocr.o)
 .text          0x00000000        0x0 c:/program files (x86)/gnu tools arm embedded/4.8 2014q2/bin/../lib/gcc/arm-none-eabi/4.8.4/../../../../arm-none-eabi/lib/armv7-m\libc.a(lib_a-mlock.o)
 .data          0x00000000        0x0 c:/program files (x86)/gnu tools arm embedded/4.8 2014q2/bin/../lib/gcc/arm-none-eabi/4.8.4/../../../../arm-none-eabi/lib/armv7-m\libc.a(lib_a-mlock.o)
 .bss           0x00000000        0x0 c:/program files (x86)/gnu tools arm embedded/4.8 2014q2/bin/../lib/gcc/arm-none-eabi/4.8.4/../../../../arm-none-eabi/lib/armv7-m\libc.a(lib_a-mlock.o)
 .text          0x00000000        0x0 c:/program files (x86)/gnu tools arm embedded/4.8 2014q2/bin/../lib/gcc/arm-none-eabi/4.8.4/../../../../arm-none-eabi/lib/armv7-m\libc.a(lib_a-sbrkr.o)
 .data          0x00000000        0x0 c:/program files (x86)/gnu tools arm embedded/4.8 2014q2/bin/../lib/gcc/arm-none-eabi/4.8.4/../../../../arm-none-eabi/lib/armv7-m\libc.a(lib_a-sbrkr.o)
 .bss           0x00000000        0x0 c:/program files (x86)/gnu tools arm embedded/4.8 2014q2/bin/../lib/gcc/arm-none-eabi/4.8.4/../../../../arm-none-eabi/lib/armv7-m\libc.a(lib_a-sbrkr.o)
 .text          0x00000000        0x0 c:/program files (x86)/gnu tools arm embedded/4.8 2014q2/bin/../lib/gcc/arm-none-eabi/4.8.4/../../../../arm-none-eabi/lib/armv7-m\libc.a(lib_a-svfprintf.o)
 .data          0x00000000        0x0 c:/program files (x86)/gnu tools arm embedded/4.8 2014q2/bin/../lib/gcc/arm-none-eabi/4.8.4/../../../../arm-none-eabi/lib/armv7-m\libc.a(lib_a-svfprintf.o)
 .bss           0x00000000        0x0 c:/program files (x86)/gnu tools arm embedded/4.8 2014q2/bin/../lib/gcc/arm-none-eabi/4.8.4/../../../../arm-none-eabi/lib/armv7-m\libc.a(lib_a-svfprintf.o)
 .text          0x00000000        0x0 c:/program files (x86)/gnu tools arm embedded/4.8 2014q2/bin/../lib/gcc/arm-none-eabi/4.8.4/../../../../arm-none-eabi/lib/armv7-m\libc.a(lib_a-dtoa.o)
 .data          0x00000000        0x0 c:/program files (x86)/gnu tools arm embedded/4.8 2014q2/bin/../lib/gcc/arm-none-eabi/4.8.4/../../../../arm-none-eabi/lib/armv7-m\libc.a(lib_a-dtoa.o)
 .bss           0x00000000        0x0 c:/program files (x86)/gnu tools arm embedded/4.8 2014q2/bin/../lib/gcc/arm-none-eabi/4.8.4/../../../../arm-none-eabi/lib/armv7-m\libc.a(lib_a-dtoa.o)
 .text          0x00000000        0x0 c:/program files (x86)/gnu tools arm embedded/4.8 2014q2/bin/../lib/gcc/arm-none-eabi/4.8.4/../../../../arm-none-eabi/lib/armv7-m\libc.a(lib_a-locale.o)
 .data          0x00000000        0x0 c:/program files (x86)/gnu tools arm embedded/4.8 2014q2/bin/../lib/gcc/arm-none-eabi/4.8.4/../../../../arm-none-eabi/lib/armv7-m\libc.a(lib_a-locale.o)
 .bss           0x00000000        0x0 c:/program files (x86)/gnu tools arm embedded/4.8 2014q2/bin/../lib/gcc/arm-none-eabi/4.8.4/../../../../arm-none-eabi/lib/armv7-m\libc.a(lib_a-locale.o)
 .text._setlocale_r
                0x00000000       0x40 c:/program files (x86)/gnu tools arm embedded/4.8 2014q2/bin/../lib/gcc/arm-none-eabi/4.8.4/../../../../arm-none-eabi/lib/armv7-m\libc.a(lib_a-locale.o)
 .text.__locale_charset
                0x00000000        0x8 c:/program files (x86)/gnu tools arm embedded/4.8 2014q2/bin/../lib/gcc/arm-none-eabi/4.8.4/../../../../arm-none-eabi/lib/armv7-m\libc.a(lib_a-locale.o)
 .text.__locale_mb_cur_max
                0x00000000        0xc c:/program files (x86)/gnu tools arm embedded/4.8 2014q2/bin/../lib/gcc/arm-none-eabi/4.8.4/../../../../arm-none-eabi/lib/armv7-m\libc.a(lib_a-locale.o)
 .text.__locale_msgcharset
                0x00000000        0x8 c:/program files (x86)/gnu tools arm embedded/4.8 2014q2/bin/../lib/gcc/arm-none-eabi/4.8.4/../../../../arm-none-eabi/lib/armv7-m\libc.a(lib_a-locale.o)
 .text.__locale_cjk_lang
                0x00000000        0x4 c:/program files (x86)/gnu tools arm embedded/4.8 2014q2/bin/../lib/gcc/arm-none-eabi/4.8.4/../../../../arm-none-eabi/lib/armv7-m\libc.a(lib_a-locale.o)
 .text.setlocale
                0x00000000       0x10 c:/program files (x86)/gnu tools arm embedded/4.8 2014q2/bin/../lib/gcc/arm-none-eabi/4.8.4/../../../../arm-none-eabi/lib/armv7-m\libc.a(lib_a-locale.o)
 .text.localeconv
                0x00000000        0x8 c:/program files (x86)/gnu tools arm embedded/4.8 2014q2/bin/../lib/gcc/arm-none-eabi/4.8.4/../../../../arm-none-eabi/lib/armv7-m\libc.a(lib_a-locale.o)
 .data.lc_message_charset
                0x00000000       0x20 c:/program files (x86)/gnu tools arm embedded/4.8 2014q2/bin/../lib/gcc/arm-none-eabi/4.8.4/../../../../arm-none-eabi/lib/armv7-m\libc.a(lib_a-locale.o)
 .bss._PathLocale
                0x00000000        0x4 c:/program files (x86)/gnu tools arm embedded/4.8 2014q2/bin/../lib/gcc/arm-none-eabi/4.8.4/../../../../arm-none-eabi/lib/armv7-m\libc.a(lib_a-locale.o)
 .bss.__nlocale_changed
                0x00000000        0x4 c:/program files (x86)/gnu tools arm embedded/4.8 2014q2/bin/../lib/gcc/arm-none-eabi/4.8.4/../../../../arm-none-eabi/lib/armv7-m\libc.a(lib_a-locale.o)
 .bss.__mlocale_changed
                0x00000000        0x4 c:/program files (x86)/gnu tools arm embedded/4.8 2014q2/bin/../lib/gcc/arm-none-eabi/4.8.4/../../../../arm-none-eabi/lib/armv7-m\libc.a(lib_a-locale.o)
 .data.lc_ctype_charset
                0x00000000       0x20 c:/program files (x86)/gnu tools arm embedded/4.8 2014q2/bin/../lib/gcc/arm-none-eabi/4.8.4/../../../../arm-none-eabi/lib/armv7-m\libc.a(lib_a-locale.o)
 .data.__mb_cur_max
                0x00000000        0x4 c:/program files (x86)/gnu tools arm embedded/4.8 2014q2/bin/../lib/gcc/arm-none-eabi/4.8.4/../../../../arm-none-eabi/lib/armv7-m\libc.a(lib_a-locale.o)
 .text          0x00000000        0x0 c:/program files (x86)/gnu tools arm embedded/4.8 2014q2/bin/../lib/gcc/arm-none-eabi/4.8.4/../../../../arm-none-eabi/lib/armv7-m\libc.a(lib_a-memchr-stub.o)
 .data          0x00000000        0x0 c:/program files (x86)/gnu tools arm embedded/4.8 2014q2/bin/../lib/gcc/arm-none-eabi/4.8.4/../../../../arm-none-eabi/lib/armv7-m\libc.a(lib_a-memchr-stub.o)
 .bss           0x00000000        0x0 c:/program files (x86)/gnu tools arm embedded/4.8 2014q2/bin/../lib/gcc/arm-none-eabi/4.8.4/../../../../arm-none-eabi/lib/armv7-m\libc.a(lib_a-memchr-stub.o)
 .text          0x00000000        0x0 c:/program files (x86)/gnu tools arm embedded/4.8 2014q2/bin/../lib/gcc/arm-none-eabi/4.8.4/../../../../arm-none-eabi/lib/armv7-m\libc.a(lib_a-mprec.o)
 .data          0x00000000        0x0 c:/program files (x86)/gnu tools arm embedded/4.8 2014q2/bin/../lib/gcc/arm-none-eabi/4.8.4/../../../../arm-none-eabi/lib/armv7-m\libc.a(lib_a-mprec.o)
 .bss           0x00000000        0x0 c:/program files (x86)/gnu tools arm embedded/4.8 2014q2/bin/../lib/gcc/arm-none-eabi/4.8.4/../../../../arm-none-eabi/lib/armv7-m\libc.a(lib_a-mprec.o)
 .text.__s2b    0x00000000       0x98 c:/program files (x86)/gnu tools arm embedded/4.8 2014q2/bin/../lib/gcc/arm-none-eabi/4.8.4/../../../../arm-none-eabi/lib/armv7-m\libc.a(lib_a-mprec.o)
 .text.__ulp    0x00000000       0x40 c:/program files (x86)/gnu tools arm embedded/4.8 2014q2/bin/../lib/gcc/arm-none-eabi/4.8.4/../../../../arm-none-eabi/lib/armv7-m\libc.a(lib_a-mprec.o)
 .text.__b2d    0x00000000       0xb8 c:/program files (x86)/gnu tools arm embedded/4.8 2014q2/bin/../lib/gcc/arm-none-eabi/4.8.4/../../../../arm-none-eabi/lib/armv7-m\libc.a(lib_a-mprec.o)
 .text.__ratio  0x00000000       0x50 c:/program files (x86)/gnu tools arm embedded/4.8 2014q2/bin/../lib/gcc/arm-none-eabi/4.8.4/../../../../arm-none-eabi/lib/armv7-m\libc.a(lib_a-mprec.o)
 .text._mprec_log10
                0x00000000       0x34 c:/program files (x86)/gnu tools arm embedded/4.8 2014q2/bin/../lib/gcc/arm-none-eabi/4.8.4/../../../../arm-none-eabi/lib/armv7-m\libc.a(lib_a-mprec.o)
 .text.__copybits
                0x00000000       0x48 c:/program files (x86)/gnu tools arm embedded/4.8 2014q2/bin/../lib/gcc/arm-none-eabi/4.8.4/../../../../arm-none-eabi/lib/armv7-m\libc.a(lib_a-mprec.o)
 .text.__any_on
                0x00000000       0x60 c:/program files (x86)/gnu tools arm embedded/4.8 2014q2/bin/../lib/gcc/arm-none-eabi/4.8.4/../../../../arm-none-eabi/lib/armv7-m\libc.a(lib_a-mprec.o)
 .rodata.__mprec_tinytens
                0x00000000       0x28 c:/program files (x86)/gnu tools arm embedded/4.8 2014q2/bin/../lib/gcc/arm-none-eabi/4.8.4/../../../../arm-none-eabi/lib/armv7-m\libc.a(lib_a-mprec.o)
 .text          0x00000000        0x0 c:/program files (x86)/gnu tools arm embedded/4.8 2014q2/bin/../lib/gcc/arm-none-eabi/4.8.4/../../../../arm-none-eabi/lib/armv7-m\libc.a(lib_a-s_fpclassify.o)
 .data          0x00000000        0x0 c:/program files (x86)/gnu tools arm embedded/4.8 2014q2/bin/../lib/gcc/arm-none-eabi/4.8.4/../../../../arm-none-eabi/lib/armv7-m\libc.a(lib_a-s_fpclassify.o)
 .bss           0x00000000        0x0 c:/program files (x86)/gnu tools arm embedded/4.8 2014q2/bin/../lib/gcc/arm-none-eabi/4.8.4/../../../../arm-none-eabi/lib/armv7-m\libc.a(lib_a-s_fpclassify.o)
 .text          0x00000000      0x23c c:/program files (x86)/gnu tools arm embedded/4.8 2014q2/bin/../lib/gcc/arm-none-eabi/4.8.4/../../../../arm-none-eabi/lib/armv7-m\libc.a(lib_a-strcmp.o)
 .data          0x00000000        0x0 c:/program files (x86)/gnu tools arm embedded/4.8 2014q2/bin/../lib/gcc/arm-none-eabi/4.8.4/../../../../arm-none-eabi/lib/armv7-m\libc.a(lib_a-strcmp.o)
 .bss           0x00000000        0x0 c:/program files (x86)/gnu tools arm embedded/4.8 2014q2/bin/../lib/gcc/arm-none-eabi/4.8.4/../../../../arm-none-eabi/lib/armv7-m\libc.a(lib_a-strcmp.o)
 .ARM.attributes
                0x00000000       0x1b c:/program files (x86)/gnu tools arm embedded/4.8 2014q2/bin/../lib/gcc/arm-none-eabi/4.8.4/../../../../arm-none-eabi/lib/armv7-m\libc.a(lib_a-strcmp.o)
 .text          0x00000000        0x0 c:/program files (x86)/gnu tools arm embedded/4.8 2014q2/bin/../lib/gcc/arm-none-eabi/4.8.4/../../../../arm-none-eabi/lib/armv7-m\libc.a(lib_a-svfiprintf.o)
 .data          0x00000000        0x0 c:/program files (x86)/gnu tools arm embedded/4.8 2014q2/bin/../lib/gcc/arm-none-eabi/4.8.4/../../../../arm-none-eabi/lib/armv7-m\libc.a(lib_a-svfiprintf.o)
 .bss           0x00000000        0x0 c:/program files (x86)/gnu tools arm embedded/4.8 2014q2/bin/../lib/gcc/arm-none-eabi/4.8.4/../../../../arm-none-eabi/lib/armv7-m\libc.a(lib_a-svfiprintf.o)
 .text._svfiprintf_r
                0x00000000      0xb3c c:/program files (x86)/gnu tools arm embedded/4.8 2014q2/bin/../lib/gcc/arm-none-eabi/4.8.4/../../../../arm-none-eabi/lib/armv7-m\libc.a(lib_a-svfiprintf.o)
 .rodata.zeroes.6707
                0x00000000       0x10 c:/program files (x86)/gnu tools arm embedded/4.8 2014q2/bin/../lib/gcc/arm-none-eabi/4.8.4/../../../../arm-none-eabi/lib/armv7-m\libc.a(lib_a-svfiprintf.o)
 .rodata.str1.4
                0x00000000       0x30 c:/program files (x86)/gnu tools arm embedded/4.8 2014q2/bin/../lib/gcc/arm-none-eabi/4.8.4/../../../../arm-none-eabi/lib/armv7-m\libc.a(lib_a-svfiprintf.o)
 .rodata.blanks.6706
                0x00000000       0x10 c:/program files (x86)/gnu tools arm embedded/4.8 2014q2/bin/../lib/gcc/arm-none-eabi/4.8.4/../../../../arm-none-eabi/lib/armv7-m\libc.a(lib_a-svfiprintf.o)
 .text          0x00000000        0x0 c:/program files (x86)/gnu tools arm embedded/4.8 2014q2/bin/../lib/gcc/arm-none-eabi/4.8.4/../../../../arm-none-eabi/lib/armv7-m\libc.a(lib_a-callocr.o)
 .data          0x00000000        0x0 c:/program files (x86)/gnu tools arm embedded/4.8 2014q2/bin/../lib/gcc/arm-none-eabi/4.8.4/../../../../arm-none-eabi/lib/armv7-m\libc.a(lib_a-callocr.o)
 .bss           0x00000000        0x0 c:/program files (x86)/gnu tools arm embedded/4.8 2014q2/bin/../lib/gcc/arm-none-eabi/4.8.4/../../../../arm-none-eabi/lib/armv7-m\libc.a(lib_a-callocr.o)
 .text          0x00000000        0x0 c:/program files (x86)/gnu tools arm embedded/4.8 2014q2/bin/../lib/gcc/arm-none-eabi/4.8.4/../../../../arm-none-eabi/lib/armv7-m\libc.a(lib_a-memmove.o)
 .data          0x00000000        0x0 c:/program files (x86)/gnu tools arm embedded/4.8 2014q2/bin/../lib/gcc/arm-none-eabi/4.8.4/../../../../arm-none-eabi/lib/armv7-m\libc.a(lib_a-memmove.o)
 .bss           0x00000000        0x0 c:/program files (x86)/gnu tools arm embedded/4.8 2014q2/bin/../lib/gcc/arm-none-eabi/4.8.4/../../../../arm-none-eabi/lib/armv7-m\libc.a(lib_a-memmove.o)
 .text          0x00000000        0x0 c:/program files (x86)/gnu tools arm embedded/4.8 2014q2/bin/../lib/gcc/arm-none-eabi/4.8.4/../../../../arm-none-eabi/lib/armv7-m\libc.a(lib_a-memset.o)
 .data          0x00000000        0x0 c:/program files (x86)/gnu tools arm embedded/4.8 2014q2/bin/../lib/gcc/arm-none-eabi/4.8.4/../../../../arm-none-eabi/lib/armv7-m\libc.a(lib_a-memset.o)
 .bss           0x00000000        0x0 c:/program files (x86)/gnu tools arm embedded/4.8 2014q2/bin/../lib/gcc/arm-none-eabi/4.8.4/../../../../arm-none-eabi/lib/armv7-m\libc.a(lib_a-memset.o)
 .text          0x00000000        0x0 c:/program files (x86)/gnu tools arm embedded/4.8 2014q2/bin/../lib/gcc/arm-none-eabi/4.8.4/../../../../arm-none-eabi/lib/armv7-m\libc.a(lib_a-reallocr.o)
 .data          0x00000000        0x0 c:/program files (x86)/gnu tools arm embedded/4.8 2014q2/bin/../lib/gcc/arm-none-eabi/4.8.4/../../../../arm-none-eabi/lib/armv7-m\libc.a(lib_a-reallocr.o)
 .bss           0x00000000        0x0 c:/program files (x86)/gnu tools arm embedded/4.8 2014q2/bin/../lib/gcc/arm-none-eabi/4.8.4/../../../../arm-none-eabi/lib/armv7-m\libc.a(lib_a-reallocr.o)
 .data          0x00000000        0x0 c:/program files (x86)/gnu tools arm embedded/4.8 2014q2/bin/../lib/gcc/arm-none-eabi/4.8.4/armv7-m\libgcc.a(_aeabi_uldivmod.o)
 .bss           0x00000000        0x0 c:/program files (x86)/gnu tools arm embedded/4.8 2014q2/bin/../lib/gcc/arm-none-eabi/4.8.4/armv7-m\libgcc.a(_aeabi_uldivmod.o)
 .data          0x00000000        0x0 c:/program files (x86)/gnu tools arm embedded/4.8 2014q2/bin/../lib/gcc/arm-none-eabi/4.8.4/armv7-m\libgcc.a(bpabi.o)
 .bss           0x00000000        0x0 c:/program files (x86)/gnu tools arm embedded/4.8 2014q2/bin/../lib/gcc/arm-none-eabi/4.8.4/armv7-m\libgcc.a(bpabi.o)
 .data          0x00000000        0x0 c:/program files (x86)/gnu tools arm embedded/4.8 2014q2/bin/../lib/gcc/arm-none-eabi/4.8.4/armv7-m\libgcc.a(_dvmd_tls.o)
 .bss           0x00000000        0x0 c:/program files (x86)/gnu tools arm embedded/4.8 2014q2/bin/../lib/gcc/arm-none-eabi/4.8.4/armv7-m\libgcc.a(_dvmd_tls.o)
 .data          0x00000000        0x0 c:/program files (x86)/gnu tools arm embedded/4.8 2014q2/bin/../lib/gcc/arm-none-eabi/4.8.4/armv7-m\libgcc.a(_divdi3.o)
 .bss           0x00000000        0x0 c:/program files (x86)/gnu tools arm embedded/4.8 2014q2/bin/../lib/gcc/arm-none-eabi/4.8.4/armv7-m\libgcc.a(_divdi3.o)
 .ARM.extab     0x00000000        0x0 c:/program files (x86)/gnu tools arm embedded/4.8 2014q2/bin/../lib/gcc/arm-none-eabi/4.8.4/armv7-m\libgcc.a(_divdi3.o)
 .data          0x00000000        0x0 c:/program files (x86)/gnu tools arm embedded/4.8 2014q2/bin/../lib/gcc/arm-none-eabi/4.8.4/armv7-m\libgcc.a(_udivdi3.o)
 .bss           0x00000000        0x0 c:/program files (x86)/gnu tools arm embedded/4.8 2014q2/bin/../lib/gcc/arm-none-eabi/4.8.4/armv7-m\libgcc.a(_udivdi3.o)
 .ARM.extab     0x00000000        0x0 c:/program files (x86)/gnu tools arm embedded/4.8 2014q2/bin/../lib/gcc/arm-none-eabi/4.8.4/armv7-m\libgcc.a(_udivdi3.o)

Memory Configuration

Name             Origin             Length             Attributes
FLASH            0x08000000         0x00040000         xr
RAM              0x20000000         0x0000c000         xrw
*default*        0x00000000         0xffffffff

Linker script and memory map

LOAD out/startup_stm32f10x_hd.o
LOAD out/stm32f10x_gpio.o
LOAD out/stm32f10x_fsmc.o
LOAD out/stm32f10x_exti.o
LOAD out/stm32f10x_bkp.o
LOAD out/stm32f10x_spi.o
LOAD out/stm32f10x_adc.o
LOAD out/stm32f10x_iwdg.o
LOAD out/misc.o
LOAD out/stm32f10x_cec.o
LOAD out/stm32f10x_wwdg.o
LOAD out/stm32f10x_tim.o
LOAD out/stm32f10x_usart.o
LOAD out/stm32f10x_crc.o
LOAD out/stm32f10x_flash.o
LOAD out/stm32f10x_rcc.o
LOAD out/stm32f10x_sdio.o
LOAD out/stm32f10x_i2c.o
LOAD out/stm32f10x_pwr.o
LOAD out/stm32f10x_rtc.o
LOAD out/stm32f10x_can.o
LOAD out/stm32f10x_dac.o
LOAD out/stm32f10x_dbgmcu.o
LOAD out/stm32f10x_dma.o
LOAD out/adc.o
LOAD out/systick.o
LOAD out/i2c.o
LOAD out/usart.o
LOAD out/usb.o
LOAD out/stopwatch.o
LOAD out/engine.o
LOAD out/commhandler.o
LOAD out/system_stm32f10x.o
LOAD out/ringbuffer.o
LOAD out/gyro.o
LOAD out/utils.o
LOAD out/newlib_stubs.o
LOAD out/reboot.o
LOAD out/pwm.o
LOAD out/stm32_it.o
LOAD out/eeprom.o
LOAD out/comio.o
LOAD out/main.o
LOAD out/rc.o
LOAD out/pins.o
LOAD out/fasttrig.o
LOAD out/config.o
LOAD out/itoa.o
LOAD out/printf.o
LOAD out/usb_int.o
LOAD out/usb_regs.o
LOAD out/usb_core.o
LOAD out/usb_sil.o
LOAD out/usb_init.o
LOAD out/usb_mem.o
LOAD out/usb_pwr.o
LOAD out/usb_istr.o
LOAD out/hw_config.o
LOAD out/usb_prop.o
LOAD out/usb_endp.o
LOAD out/usb_desc.o
LOAD c:/program files (x86)/gnu tools arm embedded/4.8 2014q2/bin/../lib/gcc/arm-none-eabi/4.8.4/../../../../arm-none-eabi/lib/armv7-m\libstdc++.a
LOAD c:/program files (x86)/gnu tools arm embedded/4.8 2014q2/bin/../lib/gcc/arm-none-eabi/4.8.4/../../../../arm-none-eabi/lib/armv7-m\libm.a
START GROUP
LOAD c:/program files (x86)/gnu tools arm embedded/4.8 2014q2/bin/../lib/gcc/arm-none-eabi/4.8.4/armv7-m\libgcc.a
LOAD c:/program files (x86)/gnu tools arm embedded/4.8 2014q2/bin/../lib/gcc/arm-none-eabi/4.8.4/../../../../arm-none-eabi/lib/armv7-m\libc.a
END GROUP
                0x2000c000                _estack = 0x2000c000
                0x00000000                _Min_Heap_Size = 0x0
                0x00000200                _Min_Stack_Size = 0x200

.isr_vector     0x08000000      0x1e4
                0x08000000                . = ALIGN (0x4)
 *(.isr_vector)
 .isr_vector    0x08000000      0x1e4 out/startup_stm32f10x_hd.o
                0x08000000                g_pfnVectors
                0x080001e4                . = ALIGN (0x4)

.text           0x080001e8     0xbfec
                0x080001e8                . = ALIGN (0x4)
 *(.text)
 .text          0x080001e8      0x370 c:/program files (x86)/gnu tools arm embedded/4.8 2014q2/bin/../lib/gcc/arm-none-eabi/4.8.4/armv7-m\libgcc.a(_arm_addsubdf3.o)
                0x080001e8                __aeabi_drsub
                0x080001f0                __aeabi_dsub
                0x080001f0                __subdf3
                0x080001f4                __aeabi_dadd
                0x080001f4                __adddf3
                0x0800046c                __floatunsidf
                0x0800046c                __aeabi_ui2d
                0x0800048c                __floatsidf
                0x0800048c                __aeabi_i2d
                0x080004b0                __aeabi_f2d
                0x080004b0                __extendsfdf2
                0x080004ec                __floatundidf
                0x080004ec                __aeabi_ul2d
                0x080004fc                __floatdidf
                0x080004fc                __aeabi_l2d
 .text          0x08000558      0x424 c:/program files (x86)/gnu tools arm embedded/4.8 2014q2/bin/../lib/gcc/arm-none-eabi/4.8.4/armv7-m\libgcc.a(_arm_muldivdf3.o)
                0x08000558                __aeabi_dmul
                0x08000558                __muldf3
                0x080007ac                __divdf3
                0x080007ac                __aeabi_ddiv
 .text          0x0800097c      0x110 c:/program files (x86)/gnu tools arm embedded/4.8 2014q2/bin/../lib/gcc/arm-none-eabi/4.8.4/armv7-m\libgcc.a(_arm_cmpdf2.o)
                0x0800097c                __gtdf2
                0x0800097c                __gedf2
                0x08000984                __ltdf2
                0x08000984                __ledf2
                0x0800098c                __nedf2
                0x0800098c                __eqdf2
                0x0800098c                __cmpdf2
                0x08000a08                __aeabi_cdrcmple
                0x08000a18                __aeabi_cdcmpeq
                0x08000a18                __aeabi_cdcmple
                0x08000a28                __aeabi_dcmpeq
                0x08000a3c                __aeabi_dcmplt
                0x08000a50                __aeabi_dcmple
                0x08000a64                __aeabi_dcmpge
                0x08000a78                __aeabi_dcmpgt
 .text          0x08000a8c       0x50 c:/program files (x86)/gnu tools arm embedded/4.8 2014q2/bin/../lib/gcc/arm-none-eabi/4.8.4/armv7-m\libgcc.a(_arm_fixdfsi.o)
                0x08000a8c                __aeabi_d2iz
                0x08000a8c                __fixdfsi
 .text          0x08000adc       0xa0 c:/program files (x86)/gnu tools arm embedded/4.8 2014q2/bin/../lib/gcc/arm-none-eabi/4.8.4/armv7-m\libgcc.a(_arm_truncdfsf2.o)
                0x08000adc                __truncdfsf2
                0x08000adc                __aeabi_d2f
 .text          0x08000b7c      0x21c c:/program files (x86)/gnu tools arm embedded/4.8 2014q2/bin/../lib/gcc/arm-none-eabi/4.8.4/armv7-m\libgcc.a(_arm_addsubsf3.o)
                0x08000b7c                __aeabi_frsub
                0x08000b84                __subsf3
                0x08000b84                __aeabi_fsub
                0x08000b88                __aeabi_fadd
                0x08000b88                __addsf3
                0x08000ce8                __aeabi_ui2f
                0x08000ce8                __floatunsisf
                0x08000cf0                __aeabi_i2f
                0x08000cf0                __floatsisf
                0x08000d0c                __aeabi_ul2f
                0x08000d0c                __floatundisf
                0x08000d1c                __aeabi_l2f
                0x08000d1c                __floatdisf
 .text          0x08000d98      0x2a0 c:/program files (x86)/gnu tools arm embedded/4.8 2014q2/bin/../lib/gcc/arm-none-eabi/4.8.4/armv7-m\libgcc.a(_arm_muldivsf3.o)
                0x08000d98                __mulsf3
                0x08000d98                __aeabi_fmul
                0x08000f00                __aeabi_fdiv
                0x08000f00                __divsf3
 .text          0x08001038       0xec c:/program files (x86)/gnu tools arm embedded/4.8 2014q2/bin/../lib/gcc/arm-none-eabi/4.8.4/armv7-m\libgcc.a(_arm_cmpsf2.o)
                0x08001038                __gesf2
                0x08001038                __gtsf2
                0x08001040                __lesf2
                0x08001040                __ltsf2
                0x08001048                __nesf2
                0x08001048                __eqsf2
                0x08001048                __cmpsf2
                0x080010a8                __aeabi_cfrcmple
                0x080010b0                __aeabi_cfcmpeq
                0x080010b0                __aeabi_cfcmple
                0x080010c0                __aeabi_fcmpeq
                0x080010d4                __aeabi_fcmplt
                0x080010e8                __aeabi_fcmple
                0x080010fc                __aeabi_fcmpge
                0x08001110                __aeabi_fcmpgt
 .text          0x08001124       0x4c c:/program files (x86)/gnu tools arm embedded/4.8 2014q2/bin/../lib/gcc/arm-none-eabi/4.8.4/armv7-m\libgcc.a(_arm_fixsfsi.o)
                0x08001124                __aeabi_f2iz
                0x08001124                __fixsfsi
 .text          0x08001170       0xec c:/program files (x86)/gnu tools arm embedded/4.8 2014q2/bin/../lib/gcc/arm-none-eabi/4.8.4/../../../../arm-none-eabi/lib/armv7-m\libc.a(lib_a-memcpy.o)
                0x08001170                memcpy
 .text          0x0800125c       0x2c c:/program files (x86)/gnu tools arm embedded/4.8 2014q2/bin/../lib/gcc/arm-none-eabi/4.8.4/armv7-m\libgcc.a(_aeabi_uldivmod.o)
                0x0800125c                __aeabi_uldivmod
 .text          0x08001288       0x60 c:/program files (x86)/gnu tools arm embedded/4.8 2014q2/bin/../lib/gcc/arm-none-eabi/4.8.4/armv7-m\libgcc.a(bpabi.o)
                0x08001288                __gnu_ldivmod_helper
                0x080012b8                __gnu_uldivmod_helper
 .text          0x080012e8        0x4 c:/program files (x86)/gnu tools arm embedded/4.8 2014q2/bin/../lib/gcc/arm-none-eabi/4.8.4/armv7-m\libgcc.a(_dvmd_tls.o)
                0x080012e8                __aeabi_idiv0
                0x080012e8                __aeabi_ldiv0
 .text          0x080012ec      0x2a0 c:/program files (x86)/gnu tools arm embedded/4.8 2014q2/bin/../lib/gcc/arm-none-eabi/4.8.4/armv7-m\libgcc.a(_divdi3.o)
                0x080012ec                __divdi3
 .text          0x0800158c      0x290 c:/program files (x86)/gnu tools arm embedded/4.8 2014q2/bin/../lib/gcc/arm-none-eabi/4.8.4/armv7-m\libgcc.a(_udivdi3.o)
                0x0800158c                __udivdi3
 *(.text*)
 .text.Reset_Handler
                0x0800181c       0x50 out/startup_stm32f10x_hd.o
                0x0800181c                Reset_Handler
 .text.Default_Handler
                0x0800186c        0x4 out/startup_stm32f10x_hd.o
                0x0800186c                TIM8_TRG_COM_IRQHandler
                0x0800186c                TIM8_CC_IRQHandler
                0x0800186c                TIM1_CC_IRQHandler
                0x0800186c                TIM6_IRQHandler
                0x0800186c                PVD_IRQHandler
                0x0800186c                SDIO_IRQHandler
                0x0800186c                EXTI0_IRQHandler
                0x0800186c                I2C2_EV_IRQHandler
                0x0800186c                ADC1_2_IRQHandler
                0x0800186c                SPI1_IRQHandler
                0x0800186c                TAMPER_IRQHandler
                0x0800186c                DMA2_Channel2_IRQHandler
                0x0800186c                DMA1_Channel4_IRQHandler
                0x0800186c                USART3_IRQHandler
                0x0800186c                RTC_IRQHandler
                0x0800186c                DMA1_Channel7_IRQHandler
                0x0800186c                CAN1_RX1_IRQHandler
                0x0800186c                UART5_IRQHandler
                0x0800186c                ADC3_IRQHandler
                0x0800186c                TIM4_IRQHandler
                0x0800186c                DMA2_Channel1_IRQHandler
                0x0800186c                I2C1_EV_IRQHandler
                0x0800186c                DMA1_Channel6_IRQHandler
                0x0800186c                TIM3_IRQHandler
                0x0800186c                RCC_IRQHandler
                0x0800186c                TIM1_TRG_COM_IRQHandler
                0x0800186c                DMA1_Channel1_IRQHandler
                0x0800186c                Default_Handler
                0x0800186c                EXTI15_10_IRQHandler
                0x0800186c                TIM7_IRQHandler
                0x0800186c                EXTI9_5_IRQHandler
                0x0800186c                SPI2_IRQHandler
                0x0800186c                DMA1_Channel5_IRQHandler
                0x0800186c                USB_HP_CAN1_TX_IRQHandler
                0x0800186c                DMA1_Channel3_IRQHandler
                0x0800186c                FSMC_IRQHandler
                0x0800186c                WWDG_IRQHandler
                0x0800186c                TIM2_IRQHandler
                0x0800186c                TIM1_BRK_IRQHandler
                0x0800186c                EXTI1_IRQHandler
                0x0800186c                RTCAlarm_IRQHandler
                0x0800186c                DMA2_Channel4_5_IRQHandler
                0x0800186c                USART2_IRQHandler
                0x0800186c                I2C2_ER_IRQHandler
                0x0800186c                DMA1_Channel2_IRQHandler
                0x0800186c                TIM8_BRK_IRQHandler
                0x0800186c                CAN1_SCE_IRQHandler
                0x0800186c                FLASH_IRQHandler
                0x0800186c                USART1_IRQHandler
                0x0800186c                SPI3_IRQHandler
                0x0800186c                I2C1_ER_IRQHandler
                0x0800186c                DMA2_Channel3_IRQHandler
 .text.GPIO_Init
                0x08001870       0xc4 out/stm32f10x_gpio.o
                0x08001870                GPIO_Init
 .text.GPIO_ReadInputDataBit
                0x08001934        0xc out/stm32f10x_gpio.o
                0x08001934                GPIO_ReadInputDataBit
 .text.GPIO_SetBits
                0x08001940        0x4 out/stm32f10x_gpio.o
                0x08001940                GPIO_SetBits
 .text.GPIO_ResetBits
                0x08001944        0x4 out/stm32f10x_gpio.o
                0x08001944                GPIO_ResetBits
 .text.GPIO_WriteBit
                0x08001948        0xc out/stm32f10x_gpio.o
                0x08001948                GPIO_WriteBit
 .text.GPIO_ToggleBits
                0x08001954        0x8 out/stm32f10x_gpio.o
                0x08001954                GPIO_ToggleBits
 .text.GPIO_PinRemapConfig
                0x0800195c       0x6c out/stm32f10x_gpio.o
                0x0800195c                GPIO_PinRemapConfig
 .text.GPIO_EXTILineConfig
                0x080019c8       0x2c out/stm32f10x_gpio.o
                0x080019c8                GPIO_EXTILineConfig
 .text.EXTI_Init
                0x080019f4       0x80 out/stm32f10x_exti.o
                0x080019f4                EXTI_Init
 .text.EXTI_GenerateSWInterrupt
                0x08001a74       0x10 out/stm32f10x_exti.o
                0x08001a74                EXTI_GenerateSWInterrupt
 .text.EXTI_ClearITPendingBit
                0x08001a84        0xc out/stm32f10x_exti.o
                0x08001a84                EXTI_ClearITPendingBit
 .text.ADC_DeInit
                0x08001a90       0x6c out/stm32f10x_adc.o
                0x08001a90                ADC_DeInit
 .text.ADC_Init
                0x08001afc       0x48 out/stm32f10x_adc.o
                0x08001afc                ADC_Init
 .text.ADC_Cmd  0x08001b44       0x14 out/stm32f10x_adc.o
                0x08001b44                ADC_Cmd
 .text.ADC_ResetCalibration
                0x08001b58        0xc out/stm32f10x_adc.o
                0x08001b58                ADC_ResetCalibration
 .text.ADC_GetResetCalibrationStatus
                0x08001b64        0x8 out/stm32f10x_adc.o
                0x08001b64                ADC_GetResetCalibrationStatus
 .text.ADC_StartCalibration
                0x08001b6c        0xc out/stm32f10x_adc.o
                0x08001b6c                ADC_StartCalibration
 .text.ADC_GetCalibrationStatus
                0x08001b78        0x8 out/stm32f10x_adc.o
                0x08001b78                ADC_GetCalibrationStatus
 .text.NVIC_PriorityGroupConfig
                0x08001b80       0x14 out/misc.o
                0x08001b80                NVIC_PriorityGroupConfig
 .text.NVIC_Init
                0x08001b94       0x70 out/misc.o
                0x08001b94                NVIC_Init
 .text.TIM_TimeBaseInit
                0x08001c04       0xb4 out/stm32f10x_tim.o
                0x08001c04                TIM_TimeBaseInit
 .text.TIM_OC1Init
                0x08001cb8       0x90 out/stm32f10x_tim.o
                0x08001cb8                TIM_OC1Init
 .text.TIM_OC2Init
                0x08001d48       0x90 out/stm32f10x_tim.o
                0x08001d48                TIM_OC2Init
 .text.TIM_OC3Init
                0x08001dd8       0x8c out/stm32f10x_tim.o
                0x08001dd8                TIM_OC3Init
 .text.TIM_BDTRConfig
                0x08001e64       0x28 out/stm32f10x_tim.o
                0x08001e64                TIM_BDTRConfig
 .text.TIM_Cmd  0x08001e8c       0x1c out/stm32f10x_tim.o
                0x08001e8c                TIM_Cmd
 .text.TIM_CtrlPWMOutputs
                0x08001ea8       0x20 out/stm32f10x_tim.o
                0x08001ea8                TIM_CtrlPWMOutputs
 .text.TIM_OC1PreloadConfig
                0x08001ec8       0x10 out/stm32f10x_tim.o
                0x08001ec8                TIM_OC1PreloadConfig
 .text.TIM_OC2PreloadConfig
                0x08001ed8       0x14 out/stm32f10x_tim.o
                0x08001ed8                TIM_OC2PreloadConfig
 .text.TIM_OC3PreloadConfig
                0x08001eec       0x10 out/stm32f10x_tim.o
                0x08001eec                TIM_OC3PreloadConfig
 .text.USART_Init
                0x08001efc       0xbc out/stm32f10x_usart.o
                0x08001efc                USART_Init
 .text.USART_ClockInit
                0x08001fb8       0x24 out/stm32f10x_usart.o
                0x08001fb8                USART_ClockInit
 .text.USART_ClockStructInit
                0x08001fdc        0xc out/stm32f10x_usart.o
                0x08001fdc                USART_ClockStructInit
 .text.USART_Cmd
                0x08001fe8       0x1c out/stm32f10x_usart.o
                0x08001fe8                USART_Cmd
 .text.USART_ITConfig
                0x08002004       0x3c out/stm32f10x_usart.o
                0x08002004                USART_ITConfig
 .text.RCC_USBCLKConfig
                0x08002040        0xc out/stm32f10x_rcc.o
                0x08002040                RCC_USBCLKConfig
 .text.RCC_ADCCLKConfig
                0x0800204c       0x14 out/stm32f10x_rcc.o
                0x0800204c                RCC_ADCCLKConfig
 .text.RCC_GetClocksFreq
                0x08002060       0x94 out/stm32f10x_rcc.o
                0x08002060                RCC_GetClocksFreq
 .text.RCC_AHBPeriphClockCmd
                0x080020f4       0x18 out/stm32f10x_rcc.o
                0x080020f4                RCC_AHBPeriphClockCmd
 .text.RCC_APB2PeriphClockCmd
                0x0800210c       0x18 out/stm32f10x_rcc.o
                0x0800210c                RCC_APB2PeriphClockCmd
 .text.RCC_APB1PeriphClockCmd
                0x08002124       0x18 out/stm32f10x_rcc.o
                0x08002124                RCC_APB1PeriphClockCmd
 .text.RCC_APB2PeriphResetCmd
                0x0800213c       0x18 out/stm32f10x_rcc.o
                0x0800213c                RCC_APB2PeriphResetCmd
 .text.ADC_Config
                0x08002154       0x84 out/adc.o
                0x08002154                ADC_Config
 .text.micros   0x080021d8       0x50 out/systick.o
                0x080021d8                micros
 .text.millis   0x08002228        0xc out/systick.o
                0x08002228                millis
 .text.SysTick_Handler
                0x08002234       0x28 out/systick.o
                0x08002234                SysTick_Handler
 .text.SysTickAttachCallback
                0x0800225c        0xc out/systick.o
                0x0800225c                SysTickAttachCallback
 .text.InitSysTick
                0x08002268       0x54 out/systick.o
                0x08002268                InitSysTick
 .text.I2C1_Start
                0x080022bc       0x50 out/i2c.o
                0x080022bc                I2C1_Start
 .text.I2C1_Stop
                0x0800230c       0x54 out/i2c.o
                0x0800230c                I2C1_Stop
 .text.I2C1_Ack
                0x08002360       0x54 out/i2c.o
                0x08002360                I2C1_Ack
 .text.I2C1_NoAck
                0x080023b4       0x54 out/i2c.o
                0x080023b4                I2C1_NoAck
 .text.I2C1_SendByte
                0x08002408       0x6c out/i2c.o
                0x08002408                I2C1_SendByte
 .text.I2C1_ReceiveByte
                0x08002474       0x74 out/i2c.o
                0x08002474                I2C1_ReceiveByte
 .text.I2C1_WaitAck
                0x080024e8       0x74 out/i2c.o
                0x080024e8                I2C1_WaitAck
 .text.UART4EnableTxInterrupt
                0x0800255c       0x10 out/usart.o
                0x0800255c                UART4EnableTxInterrupt
 .text.InitUart4BufferIRQ
                0x0800256c       0x30 out/usart.o
                0x0800256c                InitUart4BufferIRQ
 .text.USART_GetChar
                0x0800259c        0xc out/usart.o
                0x0800259c                USART_GetChar
 .text.USART_Available
                0x080025a8        0xc out/usart.o
                0x080025a8                USART_Available
 .text.USART_Flush
                0x080025b4       0x14 out/usart.o
                0x080025b4                USART_Flush
 .text.USART_PutChar
                0x080025c8       0x10 out/usart.o
                0x080025c8                USART_PutChar
 .text.USART_PutString
                0x080025d8       0x20 out/usart.o
                0x080025d8                USART_PutString
 .text.UART4_IRQHandler
                0x080025f8       0xac out/usart.o
                0x080025f8                UART4_IRQHandler
 .text.InitUart4Buffer
                0x080026a4       0x24 out/usart.o
                0x080026a4                InitUart4Buffer
 .text.Usart4Init
                0x080026c8       0x98 out/usart.o
                0x080026c8                Usart4Init
 .text.usbOverrun
                0x08002760        0xc out/usb.o
                0x08002760                usbOverrun
 .text.USBPushTXData
                0x0800276c       0x44 out/usb.o
                0x0800276c                USBPushTXData
 .text.USBPushTX
                0x080027b0       0x24 out/usb.o
                0x080027b0                USBPushTX
 .text.EP1_IN_Callback
                0x080027d4       0x2c out/usb.o
                0x080027d4                EP1_IN_Callback
 .text.setupUSB
                0x08002800       0x28 out/usb.o
                0x08002800                setupUSB
 .text.usbSendBytes
                0x08002828       0x20 out/usb.o
                0x08002828                usbSendBytes
 .text.usbBytesAvailable
                0x08002848        0xc out/usb.o
                0x08002848                usbBytesAvailable
 .text.usbReceiveBytes
                0x08002854       0x1c out/usb.o
                0x08002854                usbReceiveBytes
 .text.StopWatchInit
                0x08002870       0x10 out/stopwatch.o
                0x08002870                StopWatchInit
 .text.StopWatchLap
                0x08002880       0x10 out/stopwatch.o
                0x08002880                StopWatchLap
 .text.StopWatchTotal
                0x08002890        0x8 out/stopwatch.o
                0x08002890                StopWatchTotal
 .text.roll_PID
                0x08002898       0x80 out/engine.o
                0x08002898                roll_PID
 .text.pitch_PID
                0x08002918       0x80 out/engine.o
                0x08002918                pitch_PID
 .text.yaw_PID  0x08002998       0x80 out/engine.o
                0x08002998                yaw_PID
 .text.Init_Orientation
                0x08002a18       0x9c out/engine.o
                0x08002a18                Init_Orientation
 .text.Get_Orientation
                0x08002ab4      0x144 out/engine.o
                0x08002ab4                Get_Orientation
 .text.autoPan  0x08002bf8       0x94 out/engine.o
                0x08002bf8                autoPan
 .text.engineProcess
                0x08002c8c      0x6e8 out/engine.o
                0x08002c8c                engineProcess
 .text.CommHandler
                0x08003374      0x430 out/commhandler.o
                0x08003374                CommHandler
 .text.SystemCoreClockUpdate
                0x080037a4       0x5c out/system_stm32f10x.o
                0x080037a4                SystemCoreClockUpdate
 .text.SystemInit
                0x08003800      0x13c out/system_stm32f10x.o
                0x08003800                SystemInit
 .text.RingBufferInit
                0x0800393c       0x10 out/ringbuffer.o
                0x0800393c                RingBufferInit
 .text.RingBufferSize
                0x0800394c        0x8 out/ringbuffer.o
                0x0800394c                RingBufferSize
 .text.RingBufferFillLevel
                0x08003954       0x28 out/ringbuffer.o
                0x08003954                RingBufferFillLevel
 .text.RingBufferPut
                0x0800397c       0x90 out/ringbuffer.o
                0x0800397c                RingBufferPut
 .text.RingBufferPutBlock
                0x08003a0c       0xd0 out/ringbuffer.o
                0x08003a0c                RingBufferPutBlock
 .text.RingBufferGet
                0x08003adc       0x2c out/ringbuffer.o
                0x08003adc                RingBufferGet
 .text.MPU6050_Init
                0x08003b08      0x1e4 out/gyro.o
                0x08003b08                MPU6050_Init
 .text.MPU6050_get
                0x08003cec       0x90 out/gyro.o
                0x08003cec                MPU6050_get
 .text.MPU6050_ACC_get
                0x08003d7c       0x58 out/gyro.o
                0x08003d7c                MPU6050_ACC_get
 .text.MPU6050_Gyro_get
                0x08003dd4       0xac out/gyro.o
                0x08003dd4                MPU6050_Gyro_get
 .text.MPU6050_Gyro_calibration
                0x08003e80       0xb0 out/gyro.o
                0x08003e80                MPU6050_Gyro_calibration
 .text.LEDon    0x08003f30       0x10 out/utils.o
                0x08003f30                LEDon
 .text.LEDoff   0x08003f40       0x10 out/utils.o
                0x08003f40                LEDoff
 .text.LEDtoggle
                0x08003f50       0x18 out/utils.o
                0x08003f50                LEDtoggle
 .text.DEBUG_LEDon
                0x08003f68        0xc out/utils.o
                0x08003f68                DEBUG_LEDon
 .text.DEBUG_LEDoff
                0x08003f74        0xc out/utils.o
                0x08003f74                DEBUG_LEDoff
 .text.DEBUG_LEDtoggle
                0x08003f80       0x14 out/utils.o
                0x08003f80                DEBUG_LEDtoggle
 .text.Blink    0x08003f94       0x38 out/utils.o
                0x08003f94                Blink
 .text.Delay_us
                0x08003fcc       0x10 out/utils.o
                0x08003fcc                Delay_us
 .text.Delay_ms
                0x08003fdc       0x10 out/utils.o
                0x08003fdc                Delay_ms
 .text.Rad2Deg  0x08003fec       0x10 out/utils.o
                0x08003fec                Rad2Deg
 .text.Deg2Rad  0x08003ffc       0x10 out/utils.o
                0x08003ffc                Deg2Rad
 .text.Round    0x0800400c       0x24 out/utils.o
                0x0800400c                Round
 .text._write   0x08004030       0x60 out/newlib_stubs.o
                0x08004030                _write
 .text._sbrk    0x08004090       0x48 out/newlib_stubs.o
                0x08004090                _sbrk
 .text._init    0x080040d8        0x4 out/newlib_stubs.o
                0x080040d8                _init
 .text.reboot   0x080040dc       0x14 out/reboot.o
                0x080040dc                reboot
 .text.bootloader
                0x080040f0       0x50 out/reboot.o
                0x080040f0                bootloader
 .text.Timer_Channel_Config.constprop.0
                0x08004140       0x38 out/pwm.o
 .text.Timer_PWM_General_Config
                0x08004178       0x4c out/pwm.o
 .text.Timer_PWM_Advanced_Config
                0x080041c4       0x9c out/pwm.o
 .text.LimitYawPWM
                0x08004260       0x3c out/pwm.o
                0x08004260                LimitYawPWM
 .text.SetPWMFastTable
                0x0800429c       0xe0 out/pwm.o
                0x0800429c                SetPWMFastTable
 .text.SetRollMotor
                0x0800437c       0x40 out/pwm.o
                0x0800437c                SetRollMotor
 .text.SetPitchMotor
                0x080043bc       0x40 out/pwm.o
                0x080043bc                SetPitchMotor
 .text.SetYawMotor
                0x080043fc       0x50 out/pwm.o
                0x080043fc                SetYawMotor
 .text.TIM5_IRQHandler
                0x0800444c       0xc0 out/pwm.o
                0x0800444c                TIM5_IRQHandler
 .text.TIM1_UP_IRQHandler
                0x0800450c       0x74 out/pwm.o
                0x0800450c                TIM1_UP_IRQHandler
 .text.TIM8_UP_IRQHandler
                0x08004580       0x74 out/pwm.o
                0x08004580                TIM8_UP_IRQHandler
 .text.PWMOff   0x080045f4       0x50 out/pwm.o
                0x080045f4                PWMOff
 .text.PWMConfig
                0x08004644      0x118 out/pwm.o
                0x08004644                PWMConfig
 .text.NMI_Handler
                0x0800475c        0x4 out/stm32_it.o
                0x0800475c                NMI_Handler
 .text.HardFault_Handler
                0x08004760        0x4 out/stm32_it.o
                0x08004760                HardFault_Handler
 .text.MemManage_Handler
                0x08004764        0x4 out/stm32_it.o
                0x08004764                MemManage_Handler
 .text.BusFault_Handler
                0x08004768        0x4 out/stm32_it.o
                0x08004768                BusFault_Handler
 .text.UsageFault_Handler
                0x0800476c        0x4 out/stm32_it.o
                0x0800476c                UsageFault_Handler
 .text.SVC_Handler
                0x08004770        0x4 out/stm32_it.o
                0x08004770                SVC_Handler
 .text.DebugMon_Handler
                0x08004774        0x4 out/stm32_it.o
                0x08004774                DebugMon_Handler
 .text.PendSV_Handler
                0x08004778        0x4 out/stm32_it.o
                0x08004778                PendSV_Handler
 .text.USB_LP_CAN1_RX0_IRQHandler
                0x0800477c        0x4 out/stm32_it.o
                0x0800477c                USB_LP_CAN1_RX0_IRQHandler
 .text.USBWakeUp_IRQHandler
                0x08004780        0x8 out/stm32_it.o
                0x08004780                USBWakeUp_IRQHandler
 .text.WriteToEEPROM
                0x08004788       0x3c out/eeprom.o
                0x08004788                WriteToEEPROM
 .text.ReadFromEEPROM
                0x080047c4       0x68 out/eeprom.o
                0x080047c4                ReadFromEEPROM
 .text.ComInit  0x0800482c       0x2c out/comio.o
                0x0800482c                ComInit
 .text.print    0x08004858       0x38 out/comio.o
                0x08004858                print
 .text.printUSART
                0x08004890       0x28 out/comio.o
                0x08004890                printUSART
 .text.UnGetChar
                0x080048b8        0xc out/comio.o
                0x080048b8                UnGetChar
 .text.GetChar  0x080048c4       0x38 out/comio.o
                0x080048c4                GetChar
 .text.ComFlushInput
                0x080048fc       0x18 out/comio.o
                0x080048fc                ComFlushInput
 .text.CharAvailable
                0x08004914       0x18 out/comio.o
                0x08004914                CharAvailable
 .text.PutChar  0x0800492c       0x1c out/comio.o
                0x0800492c                PutChar
 .text.DEBUG_PutChar
                0x08004948        0x4 out/comio.o
                0x08004948                DEBUG_PutChar
 .text.WatchDog
                0x0800494c       0x28 out/main.o
                0x0800494c                WatchDog
 .text.Periph_clock_enable
                0x08004974       0x24 out/main.o
                0x08004974                Periph_clock_enable
 .text.GetIdlePerf
                0x08004998        0xc out/main.o
                0x08004998                GetIdlePerf
 .text.setup    0x080049a4      0x1c0 out/main.o
                0x080049a4                setup
 .text.startup.main
                0x08004b64       0xdc out/main.o
                0x08004b64                main
 .text.Timer3_Config
                0x08004c40       0x38 out/rc.o
                0x08004c40                Timer3_Config
 .text.RC_Config
                0x08004c78       0xc8 out/rc.o
                0x08004c78                RC_Config
 .text.EXTI3_IRQHandler
                0x08004d40       0x88 out/rc.o
                0x08004d40                EXTI3_IRQHandler
 .text.EXTI2_IRQHandler
                0x08004dc8       0x88 out/rc.o
                0x08004dc8                EXTI2_IRQHandler
 .text.EXTI4_IRQHandler
                0x08004e50       0x88 out/rc.o
                0x08004e50                EXTI4_IRQHandler
 .text.Get_RC_Step
                0x08004ed8      0x144 out/rc.o
                0x08004ed8                Get_RC_Step
 .text.GPIO_Config
                0x0800501c      0x10c out/pins.o
                0x0800501c                GPIO_Config
 .text.InitSinArray
                0x08005128       0x4c out/fasttrig.o
                0x08005128                InitSinArray
 .text.configLoad
                0x08005174       0x28 out/config.o
                0x08005174                configLoad
 .text.configSave
                0x0800519c       0x3c out/config.o
                0x0800519c                configSave
 .text.printConfig
                0x080051d8       0x38 out/config.o
                0x080051d8                printConfig
 .text.CTR_LP   0x08005210      0x184 out/usb_int.o
                0x08005210                CTR_LP
 .text.SetBTABLE
                0x08005394       0x10 out/usb_regs.o
                0x08005394                SetBTABLE
 .text.SetEPType
                0x080053a4       0x1c out/usb_regs.o
                0x080053a4                SetEPType
 .text.SetEPTxStatus
                0x080053c0       0x34 out/usb_regs.o
                0x080053c0                SetEPTxStatus
 .text.SetEPRxStatus
                0x080053f4       0x34 out/usb_regs.o
                0x080053f4                SetEPRxStatus
 .text.SetEPTxValid
                0x08005428       0x28 out/usb_regs.o
                0x08005428                SetEPTxValid
 .text.SetEPRxValid
                0x08005450       0x28 out/usb_regs.o
                0x08005450                SetEPRxValid
 .text.Clear_Status_Out
                0x08005478       0x20 out/usb_regs.o
                0x08005478                Clear_Status_Out
 .text.ClearDTOG_RX
                0x08005498       0x24 out/usb_regs.o
                0x08005498                ClearDTOG_RX
 .text.ClearDTOG_TX
                0x080054bc       0x24 out/usb_regs.o
                0x080054bc                ClearDTOG_TX
 .text.SetEPTxAddr
                0x080054e0       0x20 out/usb_regs.o
                0x080054e0                SetEPTxAddr
 .text.SetEPRxAddr
                0x08005500       0x20 out/usb_regs.o
                0x08005500                SetEPRxAddr
 .text.GetEPTxAddr
                0x08005520       0x1c out/usb_regs.o
                0x08005520                GetEPTxAddr
 .text.GetEPRxAddr
                0x0800553c       0x1c out/usb_regs.o
                0x0800553c                GetEPRxAddr
 .text.SetEPTxCount
                0x08005558       0x1c out/usb_regs.o
                0x08005558                SetEPTxCount
 .text.SetEPRxCount
                0x08005574       0x44 out/usb_regs.o
                0x08005574                SetEPRxCount
 .text.GetEPRxCount
                0x080055b8       0x20 out/usb_regs.o
                0x080055b8                GetEPRxCount
 .text.ByteSwap
                0x080055d8        0xc out/usb_regs.o
                0x080055d8                ByteSwap
 .text.Standard_GetConfiguration
                0x080055e4       0x28 out/usb_core.o
                0x080055e4                Standard_GetConfiguration
 .text.Standard_GetInterface
                0x0800560c       0x28 out/usb_core.o
                0x0800560c                Standard_GetInterface
 .text.Standard_GetStatus
                0x08005634       0x98 out/usb_core.o
                0x08005634                Standard_GetStatus
 .text.DataStageIn
                0x080056cc       0xb8 out/usb_core.o
 .text.Standard_SetConfiguration
                0x08005784       0x3c out/usb_core.o
                0x08005784                Standard_SetConfiguration
 .text.Standard_SetInterface
                0x080057c0       0x50 out/usb_core.o
                0x080057c0                Standard_SetInterface
 .text.Standard_ClearFeature
                0x08005810       0xdc out/usb_core.o
                0x08005810                Standard_ClearFeature
 .text.Standard_SetEndPointFeature
                0x080058ec       0xa0 out/usb_core.o
                0x080058ec                Standard_SetEndPointFeature
 .text.Standard_GetDescriptorData
                0x0800598c       0x1c out/usb_core.o
                0x0800598c                Standard_GetDescriptorData
 .text.Post0_Process
                0x080059a8       0x40 out/usb_core.o
                0x080059a8                Post0_Process
 .text.Setup0_Process
                0x080059e8      0x380 out/usb_core.o
                0x080059e8                Setup0_Process
 .text.Out0_Process
                0x08005d68       0xe0 out/usb_core.o
                0x08005d68                Out0_Process
 .text.SetDeviceAddress
                0x08005e48       0x40 out/usb_core.o
                0x08005e48                SetDeviceAddress
 .text.In0_Process
                0x08005e88       0x70 out/usb_core.o
                0x08005e88                In0_Process
 .text.NOP_Process
                0x08005ef8        0x4 out/usb_core.o
                0x08005ef8                NOP_Process
 .text.USB_SIL_Init
                0x08005efc       0x28 out/usb_sil.o
                0x08005efc                USB_SIL_Init
 .text.USB_Init
                0x08005f24       0x38 out/usb_init.o
                0x08005f24                USB_Init
 .text.UserToPMABufferCopy
                0x08005f5c       0x3c out/usb_mem.o
                0x08005f5c                UserToPMABufferCopy
 .text.PMAToUserBufferCopy
                0x08005f98       0x20 out/usb_mem.o
                0x08005f98                PMAToUserBufferCopy
 .text.PowerOn  0x08005fb8       0x30 out/usb_pwr.o
                0x08005fb8                PowerOn
 .text.Resume   0x08005fe8       0xd8 out/usb_pwr.o
                0x08005fe8                Resume
 .text.USB_Istr
                0x080060c0       0xa0 out/usb_istr.o
                0x080060c0                USB_Istr
 .text.IntToUnicode
                0x08006160       0x30 out/hw_config.o
 .text.Set_System
                0x08006190       0x6c out/hw_config.o
                0x08006190                Set_System
 .text.Set_USBClock
                0x080061fc       0x18 out/hw_config.o
                0x080061fc                Set_USBClock
 .text.Leave_LowPowerMode
                0x08006214       0x24 out/hw_config.o
                0x08006214                Leave_LowPowerMode
 .text.USB_Interrupts_Config
                0x08006238       0x40 out/hw_config.o
                0x08006238                USB_Interrupts_Config
 .text.USB_Cable_Config
                0x08006278        0x4 out/hw_config.o
                0x08006278                USB_Cable_Config
 .text.Get_SerialNum
                0x0800627c       0x40 out/hw_config.o
                0x0800627c                Get_SerialNum
 .text.CDC_Send_DATA
                0x080062bc       0x48 out/hw_config.o
                0x080062bc                CDC_Send_DATA
 .text.CDC_Receive_DATA
                0x08006304       0x6c out/hw_config.o
                0x08006304                CDC_Receive_DATA
 .text.usbIsConnected
                0x08006370       0x10 out/hw_config.o
                0x08006370                usbIsConnected
 .text.ERR_Callback
                0x08006380       0x14 out/hw_config.o
                0x08006380                ERR_Callback
 .text.SetVCPConnectMode
                0x08006394       0x18 out/hw_config.o
                0x08006394                SetVCPConnectMode
 .text.GetVCPConnectMode
                0x080063ac        0xc out/hw_config.o
                0x080063ac                GetVCPConnectMode
 .text.Virtual_Com_Port_SetConfiguration
                0x080063b8       0x18 out/usb_prop.o
                0x080063b8                Virtual_Com_Port_SetConfiguration
 .text.Virtual_Com_Port_SetDeviceAddress
                0x080063d0        0xc out/usb_prop.o
                0x080063d0                Virtual_Com_Port_SetDeviceAddress
 .text.Virtual_Com_Port_Status_In
                0x080063dc       0x14 out/usb_prop.o
                0x080063dc                Virtual_Com_Port_Status_In
 .text.Virtual_Com_Port_Status_Out
                0x080063f0        0x4 out/usb_prop.o
                0x080063f0                Virtual_Com_Port_Status_Out
 .text.Virtual_Com_Port_Get_Interface_Setting
                0x080063f4       0x10 out/usb_prop.o
                0x080063f4                Virtual_Com_Port_Get_Interface_Setting
 .text.Virtual_Com_Port_GetLineCoding
                0x08006404       0x18 out/usb_prop.o
                0x08006404                Virtual_Com_Port_GetLineCoding
 .text.Virtual_Com_Port_SetLineCoding
                0x0800641c       0x18 out/usb_prop.o
                0x0800641c                Virtual_Com_Port_SetLineCoding
 .text.Virtual_Com_Port_init
                0x08006434       0x24 out/usb_prop.o
                0x08006434                Virtual_Com_Port_init
 .text.Virtual_Com_Port_Reset
                0x08006458       0xec out/usb_prop.o
                0x08006458                Virtual_Com_Port_Reset
 .text.Virtual_Com_Port_Data_Setup
                0x08006544       0x64 out/usb_prop.o
                0x08006544                Virtual_Com_Port_Data_Setup
 .text.Virtual_Com_Port_NoData_Setup
                0x080065a8       0x30 out/usb_prop.o
                0x080065a8                Virtual_Com_Port_NoData_Setup
 .text.Virtual_Com_Port_GetDeviceDescriptor
                0x080065d8        0xc out/usb_prop.o
                0x080065d8                Virtual_Com_Port_GetDeviceDescriptor
 .text.Virtual_Com_Port_GetStringDescriptor
                0x080065e4       0x20 out/usb_prop.o
                0x080065e4                Virtual_Com_Port_GetStringDescriptor
 .text.Virtual_Com_Port_GetConfigDescriptor
                0x08006604       0x2c out/usb_prop.o
                0x08006604                Virtual_Com_Port_GetConfigDescriptor
 .text.EP3_OUT_Callback
                0x08006630       0x28 out/usb_endp.o
                0x08006630                EP3_OUT_Callback
 .text.cosf     0x08006658       0x6c c:/program files (x86)/gnu tools arm embedded/4.8 2014q2/bin/../lib/gcc/arm-none-eabi/4.8.4/../../../../arm-none-eabi/lib/armv7-m\libm.a(lib_a-sf_cos.o)
                0x08006658                cosf
 .text.sinf     0x080066c4       0x7c c:/program files (x86)/gnu tools arm embedded/4.8 2014q2/bin/../lib/gcc/arm-none-eabi/4.8.4/../../../../arm-none-eabi/lib/armv7-m\libm.a(lib_a-sf_sin.o)
                0x080066c4                sinf
 .text.atan2f   0x08006740        0x4 c:/program files (x86)/gnu tools arm embedded/4.8 2014q2/bin/../lib/gcc/arm-none-eabi/4.8.4/../../../../arm-none-eabi/lib/armv7-m\libm.a(lib_a-wf_atan2.o)
                0x08006740                atan2f
 .text.sqrtf    0x08006744       0x9c c:/program files (x86)/gnu tools arm embedded/4.8 2014q2/bin/../lib/gcc/arm-none-eabi/4.8.4/../../../../arm-none-eabi/lib/armv7-m\libm.a(lib_a-wf_sqrt.o)
                0x08006744                sqrtf
 .text.__ieee754_atan2f
                0x080067e0      0x120 c:/program files (x86)/gnu tools arm embedded/4.8 2014q2/bin/../lib/gcc/arm-none-eabi/4.8.4/../../../../arm-none-eabi/lib/armv7-m\libm.a(lib_a-ef_atan2.o)
                0x080067e0                __ieee754_atan2f
 .text.__ieee754_rem_pio2f
                0x08006900      0x2e8 c:/program files (x86)/gnu tools arm embedded/4.8 2014q2/bin/../lib/gcc/arm-none-eabi/4.8.4/../../../../arm-none-eabi/lib/armv7-m\libm.a(lib_a-ef_rem_pio2.o)
                0x08006900                __ieee754_rem_pio2f
 .text.__ieee754_sqrtf
                0x08006be8       0xa8 c:/program files (x86)/gnu tools arm embedded/4.8 2014q2/bin/../lib/gcc/arm-none-eabi/4.8.4/../../../../arm-none-eabi/lib/armv7-m\libm.a(lib_a-ef_sqrt.o)
                0x08006be8                __ieee754_sqrtf
 .text.__kernel_cosf
                0x08006c90      0x188 c:/program files (x86)/gnu tools arm embedded/4.8 2014q2/bin/../lib/gcc/arm-none-eabi/4.8.4/../../../../arm-none-eabi/lib/armv7-m\libm.a(lib_a-kf_cos.o)
                0x08006c90                __kernel_cosf
 .text.__kernel_rem_pio2f
                0x08006e18      0x670 c:/program files (x86)/gnu tools arm embedded/4.8 2014q2/bin/../lib/gcc/arm-none-eabi/4.8.4/../../../../arm-none-eabi/lib/armv7-m\libm.a(lib_a-kf_rem_pio2.o)
                0x08006e18                __kernel_rem_pio2f
 .text.__kernel_sinf
                0x08007488       0xec c:/program files (x86)/gnu tools arm embedded/4.8 2014q2/bin/../lib/gcc/arm-none-eabi/4.8.4/../../../../arm-none-eabi/lib/armv7-m\libm.a(lib_a-kf_sin.o)
                0x08007488                __kernel_sinf
 .text.matherr  0x08007574        0x4 c:/program files (x86)/gnu tools arm embedded/4.8 2014q2/bin/../lib/gcc/arm-none-eabi/4.8.4/../../../../arm-none-eabi/lib/armv7-m\libm.a(lib_a-s_matherr.o)
                0x08007574                matherr
 .text.atanf    0x08007578      0x22c c:/program files (x86)/gnu tools arm embedded/4.8 2014q2/bin/../lib/gcc/arm-none-eabi/4.8.4/../../../../arm-none-eabi/lib/armv7-m\libm.a(lib_a-sf_atan.o)
                0x08007578                atanf
 .text.fabsf    0x080077a4        0x8 c:/program files (x86)/gnu tools arm embedded/4.8 2014q2/bin/../lib/gcc/arm-none-eabi/4.8.4/../../../../arm-none-eabi/lib/armv7-m\libm.a(lib_a-sf_fabs.o)
                0x080077a4                fabsf
 .text.floorf   0x080077ac       0x8c c:/program files (x86)/gnu tools arm embedded/4.8 2014q2/bin/../lib/gcc/arm-none-eabi/4.8.4/../../../../arm-none-eabi/lib/armv7-m\libm.a(lib_a-sf_floor.o)
                0x080077ac                floorf
 .text.__fpclassifyf
                0x08007838       0x34 c:/program files (x86)/gnu tools arm embedded/4.8 2014q2/bin/../lib/gcc/arm-none-eabi/4.8.4/../../../../arm-none-eabi/lib/armv7-m\libm.a(lib_a-sf_fpclassify.o)
                0x08007838                __fpclassifyf
 .text.scalbnf  0x0800786c       0xb4 c:/program files (x86)/gnu tools arm embedded/4.8 2014q2/bin/../lib/gcc/arm-none-eabi/4.8.4/../../../../arm-none-eabi/lib/armv7-m\libm.a(lib_a-sf_scalbn.o)
                0x0800786c                scalbnf
 .text.copysignf
                0x08007920        0xc c:/program files (x86)/gnu tools arm embedded/4.8 2014q2/bin/../lib/gcc/arm-none-eabi/4.8.4/../../../../arm-none-eabi/lib/armv7-m\libm.a(lib_a-sf_copysign.o)
                0x08007920                copysignf
 .text.__errno  0x0800792c        0xc c:/program files (x86)/gnu tools arm embedded/4.8 2014q2/bin/../lib/gcc/arm-none-eabi/4.8.4/../../../../arm-none-eabi/lib/armv7-m\libc.a(lib_a-errno.o)
                0x0800792c                __errno
 .text.__libc_init_array
                0x08007938       0x50 c:/program files (x86)/gnu tools arm embedded/4.8 2014q2/bin/../lib/gcc/arm-none-eabi/4.8.4/../../../../arm-none-eabi/lib/armv7-m\libc.a(lib_a-init.o)
                0x08007938                __libc_init_array
 .text.strlen   0x08007988       0x60 c:/program files (x86)/gnu tools arm embedded/4.8 2014q2/bin/../lib/gcc/arm-none-eabi/4.8.4/../../../../arm-none-eabi/lib/armv7-m\libc.a(lib_a-strlen.o)
                0x08007988                strlen
 .text._vsnprintf_r
                0x080079e8       0x54 c:/program files (x86)/gnu tools arm embedded/4.8 2014q2/bin/../lib/gcc/arm-none-eabi/4.8.4/../../../../arm-none-eabi/lib/armv7-m\libc.a(lib_a-vsnprintf.o)
                0x080079e8                _vsnprintf_r
 .text.vsnprintf
                0x08007a3c       0x24 c:/program files (x86)/gnu tools arm embedded/4.8 2014q2/bin/../lib/gcc/arm-none-eabi/4.8.4/../../../../arm-none-eabi/lib/armv7-m\libc.a(lib_a-vsnprintf.o)
                0x08007a3c                vsnprintf
 .text._malloc_trim_r
                0x08007a60       0x9c c:/program files (x86)/gnu tools arm embedded/4.8 2014q2/bin/../lib/gcc/arm-none-eabi/4.8.4/../../../../arm-none-eabi/lib/armv7-m\libc.a(lib_a-freer.o)
                0x08007a60                _malloc_trim_r
 .text._free_r  0x08007afc      0x198 c:/program files (x86)/gnu tools arm embedded/4.8 2014q2/bin/../lib/gcc/arm-none-eabi/4.8.4/../../../../arm-none-eabi/lib/armv7-m\libc.a(lib_a-freer.o)
                0x08007afc                _free_r
 .text._malloc_r
                0x08007c94      0x538 c:/program files (x86)/gnu tools arm embedded/4.8 2014q2/bin/../lib/gcc/arm-none-eabi/4.8.4/../../../../arm-none-eabi/lib/armv7-m\libc.a(lib_a-mallocr.o)
                0x08007c94                _malloc_r
 .text.__malloc_lock
                0x080081cc        0x4 c:/program files (x86)/gnu tools arm embedded/4.8 2014q2/bin/../lib/gcc/arm-none-eabi/4.8.4/../../../../arm-none-eabi/lib/armv7-m\libc.a(lib_a-mlock.o)
                0x080081cc                __malloc_lock
 .text.__malloc_unlock
                0x080081d0        0x4 c:/program files (x86)/gnu tools arm embedded/4.8 2014q2/bin/../lib/gcc/arm-none-eabi/4.8.4/../../../../arm-none-eabi/lib/armv7-m\libc.a(lib_a-mlock.o)
                0x080081d0                __malloc_unlock
 .text._sbrk_r  0x080081d4       0x24 c:/program files (x86)/gnu tools arm embedded/4.8 2014q2/bin/../lib/gcc/arm-none-eabi/4.8.4/../../../../arm-none-eabi/lib/armv7-m\libc.a(lib_a-sbrkr.o)
                0x080081d4                _sbrk_r
 .text._svfprintf_r
                0x080081f8     0x14e0 c:/program files (x86)/gnu tools arm embedded/4.8 2014q2/bin/../lib/gcc/arm-none-eabi/4.8.4/../../../../arm-none-eabi/lib/armv7-m\libc.a(lib_a-svfprintf.o)
                0x080081f8                _svfprintf_r
 .text.quorem   0x080096d8      0x134 c:/program files (x86)/gnu tools arm embedded/4.8 2014q2/bin/../lib/gcc/arm-none-eabi/4.8.4/../../../../arm-none-eabi/lib/armv7-m\libc.a(lib_a-dtoa.o)
 *fill*         0x0800980c        0x4 
 .text._dtoa_r  0x08009810      0xe38 c:/program files (x86)/gnu tools arm embedded/4.8 2014q2/bin/../lib/gcc/arm-none-eabi/4.8.4/../../../../arm-none-eabi/lib/armv7-m\libc.a(lib_a-dtoa.o)
                0x08009810                _dtoa_r
 .text._localeconv_r
                0x0800a648        0x8 c:/program files (x86)/gnu tools arm embedded/4.8 2014q2/bin/../lib/gcc/arm-none-eabi/4.8.4/../../../../arm-none-eabi/lib/armv7-m\libc.a(lib_a-locale.o)
                0x0800a648                _localeconv_r
 .text.memchr   0x0800a650       0x94 c:/program files (x86)/gnu tools arm embedded/4.8 2014q2/bin/../lib/gcc/arm-none-eabi/4.8.4/../../../../arm-none-eabi/lib/armv7-m\libc.a(lib_a-memchr-stub.o)
                0x0800a650                memchr
 .text._Balloc  0x0800a6e4       0x4c c:/program files (x86)/gnu tools arm embedded/4.8 2014q2/bin/../lib/gcc/arm-none-eabi/4.8.4/../../../../arm-none-eabi/lib/armv7-m\libc.a(lib_a-mprec.o)
                0x0800a6e4                _Balloc
 .text._Bfree   0x0800a730       0x14 c:/program files (x86)/gnu tools arm embedded/4.8 2014q2/bin/../lib/gcc/arm-none-eabi/4.8.4/../../../../arm-none-eabi/lib/armv7-m\libc.a(lib_a-mprec.o)
                0x0800a730                _Bfree
 .text.__multadd
                0x0800a744       0x94 c:/program files (x86)/gnu tools arm embedded/4.8 2014q2/bin/../lib/gcc/arm-none-eabi/4.8.4/../../../../arm-none-eabi/lib/armv7-m\libc.a(lib_a-mprec.o)
                0x0800a744                __multadd
 .text.__hi0bits
                0x0800a7d8       0x40 c:/program files (x86)/gnu tools arm embedded/4.8 2014q2/bin/../lib/gcc/arm-none-eabi/4.8.4/../../../../arm-none-eabi/lib/armv7-m\libc.a(lib_a-mprec.o)
                0x0800a7d8                __hi0bits
 .text.__lo0bits
                0x0800a818       0x5c c:/program files (x86)/gnu tools arm embedded/4.8 2014q2/bin/../lib/gcc/arm-none-eabi/4.8.4/../../../../arm-none-eabi/lib/armv7-m\libc.a(lib_a-mprec.o)
                0x0800a818                __lo0bits
 .text.__i2b    0x0800a874       0x14 c:/program files (x86)/gnu tools arm embedded/4.8 2014q2/bin/../lib/gcc/arm-none-eabi/4.8.4/../../../../arm-none-eabi/lib/armv7-m\libc.a(lib_a-mprec.o)
                0x0800a874                __i2b
 .text.__multiply
                0x0800a888      0x13c c:/program files (x86)/gnu tools arm embedded/4.8 2014q2/bin/../lib/gcc/arm-none-eabi/4.8.4/../../../../arm-none-eabi/lib/armv7-m\libc.a(lib_a-mprec.o)
                0x0800a888                __multiply
 .text.__pow5mult
                0x0800a9c4       0x9c c:/program files (x86)/gnu tools arm embedded/4.8 2014q2/bin/../lib/gcc/arm-none-eabi/4.8.4/../../../../arm-none-eabi/lib/armv7-m\libc.a(lib_a-mprec.o)
                0x0800a9c4                __pow5mult
 .text.__lshift
                0x0800aa60       0xbc c:/program files (x86)/gnu tools arm embedded/4.8 2014q2/bin/../lib/gcc/arm-none-eabi/4.8.4/../../../../arm-none-eabi/lib/armv7-m\libc.a(lib_a-mprec.o)
                0x0800aa60                __lshift
 .text.__mcmp   0x0800ab1c       0x48 c:/program files (x86)/gnu tools arm embedded/4.8 2014q2/bin/../lib/gcc/arm-none-eabi/4.8.4/../../../../arm-none-eabi/lib/armv7-m\libc.a(lib_a-mprec.o)
                0x0800ab1c                __mcmp
 .text.__mdiff  0x0800ab64       0xd8 c:/program files (x86)/gnu tools arm embedded/4.8 2014q2/bin/../lib/gcc/arm-none-eabi/4.8.4/../../../../arm-none-eabi/lib/armv7-m\libc.a(lib_a-mprec.o)
                0x0800ab64                __mdiff
 .text.__d2b    0x0800ac3c       0xbc c:/program files (x86)/gnu tools arm embedded/4.8 2014q2/bin/../lib/gcc/arm-none-eabi/4.8.4/../../../../arm-none-eabi/lib/armv7-m\libc.a(lib_a-mprec.o)
                0x0800ac3c                __d2b
 .text.__fpclassifyd
                0x0800acf8       0x50 c:/program files (x86)/gnu tools arm embedded/4.8 2014q2/bin/../lib/gcc/arm-none-eabi/4.8.4/../../../../arm-none-eabi/lib/armv7-m\libc.a(lib_a-s_fpclassify.o)
                0x0800acf8                __fpclassifyd
 .text.__ssprint_r
                0x0800ad48      0x100 c:/program files (x86)/gnu tools arm embedded/4.8 2014q2/bin/../lib/gcc/arm-none-eabi/4.8.4/../../../../arm-none-eabi/lib/armv7-m\libc.a(lib_a-svfiprintf.o)
                0x0800ad48                __ssprint_r
 .text._calloc_r
                0x0800ae48       0x60 c:/program files (x86)/gnu tools arm embedded/4.8 2014q2/bin/../lib/gcc/arm-none-eabi/4.8.4/../../../../arm-none-eabi/lib/armv7-m\libc.a(lib_a-callocr.o)
                0x0800ae48                _calloc_r
 .text.memmove  0x0800aea8       0xcc c:/program files (x86)/gnu tools arm embedded/4.8 2014q2/bin/../lib/gcc/arm-none-eabi/4.8.4/../../../../arm-none-eabi/lib/armv7-m\libc.a(lib_a-memmove.o)
                0x0800aea8                memmove
 .text.memset   0x0800af74       0x94 c:/program files (x86)/gnu tools arm embedded/4.8 2014q2/bin/../lib/gcc/arm-none-eabi/4.8.4/../../../../arm-none-eabi/lib/armv7-m\libc.a(lib_a-memset.o)
                0x0800af74                memset
 .text._realloc_r
                0x0800b008      0x3c0 c:/program files (x86)/gnu tools arm embedded/4.8 2014q2/bin/../lib/gcc/arm-none-eabi/4.8.4/../../../../arm-none-eabi/lib/armv7-m\libc.a(lib_a-reallocr.o)
                0x0800b008                _realloc_r
 *(.rodata)
 *(.rodata*)
 .rodata.str1.4
                0x0800b3c8      0x294 out/engine.o
 .rodata.str1.4
                0x0800b65c      0x174 out/commhandler.o
 .rodata.str1.4
                0x0800b7d0       0x22 out/newlib_stubs.o
                                 0x24 (size before relaxing)
 *fill*         0x0800b7f2        0x2 
 .rodata.str1.4
                0x0800b7f4       0x21 out/comio.o
                                 0x24 (size before relaxing)
 *fill*         0x0800b815        0x3 
 .rodata.str1.4
                0x0800b818      0x36f out/main.o
                                0x378 (size before relaxing)
 *fill*         0x0800bb87        0x1 
 .rodata.str1.4
                0x0800bb88       0x17 out/config.o
                                 0x1c (size before relaxing)
 *fill*         0x0800bb9f        0x1 
 .rodata.Virtual_Com_Port_StringVendor
                0x0800bba0       0x28 out/usb_desc.o
                0x0800bba0                Virtual_Com_Port_StringVendor
 .rodata.Virtual_Com_Port_DeviceDescriptor
                0x0800bbc8       0x14 out/usb_desc.o
                0x0800bbc8                Virtual_Com_Port_DeviceDescriptor
 .rodata.Virtual_Com_Port_StringLangID
                0x0800bbdc        0x4 out/usb_desc.o
                0x0800bbdc                Virtual_Com_Port_StringLangID
 .rodata.Virtual_Com_Port_StringProduct
                0x0800bbe0       0x34 out/usb_desc.o
                0x0800bbe0                Virtual_Com_Port_StringProduct
 .rodata.Virtual_Com_Port_ConfigDescriptor
                0x0800bc14       0x44 out/usb_desc.o
                0x0800bc14                Virtual_Com_Port_ConfigDescriptor
 .rodata.str1.4
                0x0800bc58        0x6 c:/program files (x86)/gnu tools arm embedded/4.8 2014q2/bin/../lib/gcc/arm-none-eabi/4.8.4/../../../../arm-none-eabi/lib/armv7-m\libm.a(lib_a-wf_sqrt.o)
                                  0x8 (size before relaxing)
 *fill*         0x0800bc5e        0x2 
 .rodata.npio2_hw
                0x0800bc60       0x80 c:/program files (x86)/gnu tools arm embedded/4.8 2014q2/bin/../lib/gcc/arm-none-eabi/4.8.4/../../../../arm-none-eabi/lib/armv7-m\libm.a(lib_a-ef_rem_pio2.o)
 .rodata.two_over_pi
                0x0800bce0      0x318 c:/program files (x86)/gnu tools arm embedded/4.8 2014q2/bin/../lib/gcc/arm-none-eabi/4.8.4/../../../../arm-none-eabi/lib/armv7-m\libm.a(lib_a-ef_rem_pio2.o)
 .rodata.init_jk
                0x0800bff8        0xc c:/program files (x86)/gnu tools arm embedded/4.8 2014q2/bin/../lib/gcc/arm-none-eabi/4.8.4/../../../../arm-none-eabi/lib/armv7-m\libm.a(lib_a-kf_rem_pio2.o)
 .rodata.PIo2   0x0800c004       0x2c c:/program files (x86)/gnu tools arm embedded/4.8 2014q2/bin/../lib/gcc/arm-none-eabi/4.8.4/../../../../arm-none-eabi/lib/armv7-m\libm.a(lib_a-kf_rem_pio2.o)
 .rodata.atanlo
                0x0800c030       0x10 c:/program files (x86)/gnu tools arm embedded/4.8 2014q2/bin/../lib/gcc/arm-none-eabi/4.8.4/../../../../arm-none-eabi/lib/armv7-m\libm.a(lib_a-sf_atan.o)
 .rodata.atanhi
                0x0800c040       0x10 c:/program files (x86)/gnu tools arm embedded/4.8 2014q2/bin/../lib/gcc/arm-none-eabi/4.8.4/../../../../arm-none-eabi/lib/armv7-m\libm.a(lib_a-sf_atan.o)
 .rodata.str1.4
                0x0800c050        0x2 c:/program files (x86)/gnu tools arm embedded/4.8 2014q2/bin/../lib/gcc/arm-none-eabi/4.8.4/../../../../arm-none-eabi/lib/armv7-m\libc.a(lib_a-impure.o)
                                  0x4 (size before relaxing)
 *fill*         0x0800c052        0x2 
 .rodata.zeroes.6763
                0x0800c054       0x10 c:/program files (x86)/gnu tools arm embedded/4.8 2014q2/bin/../lib/gcc/arm-none-eabi/4.8.4/../../../../arm-none-eabi/lib/armv7-m\libc.a(lib_a-svfprintf.o)
 .rodata.str1.4
                0x0800c064       0x42 c:/program files (x86)/gnu tools arm embedded/4.8 2014q2/bin/../lib/gcc/arm-none-eabi/4.8.4/../../../../arm-none-eabi/lib/armv7-m\libc.a(lib_a-svfprintf.o)
                                 0x44 (size before relaxing)
 *fill*         0x0800c0a6        0x2 
 .rodata.blanks.6762
                0x0800c0a8       0x10 c:/program files (x86)/gnu tools arm embedded/4.8 2014q2/bin/../lib/gcc/arm-none-eabi/4.8.4/../../../../arm-none-eabi/lib/armv7-m\libc.a(lib_a-svfprintf.o)
 .rodata.str1.4
                0x0800c0b8       0x10 c:/program files (x86)/gnu tools arm embedded/4.8 2014q2/bin/../lib/gcc/arm-none-eabi/4.8.4/../../../../arm-none-eabi/lib/armv7-m\libc.a(lib_a-dtoa.o)
                                 0x14 (size before relaxing)
 .rodata.str1.4
                0x0800c0c8        0xc c:/program files (x86)/gnu tools arm embedded/4.8 2014q2/bin/../lib/gcc/arm-none-eabi/4.8.4/../../../../arm-none-eabi/lib/armv7-m\libc.a(lib_a-locale.o)
                                 0x14 (size before relaxing)
 *fill*         0x0800c0d4        0x4 
 .rodata.__mprec_tens
                0x0800c0d8       0xc8 c:/program files (x86)/gnu tools arm embedded/4.8 2014q2/bin/../lib/gcc/arm-none-eabi/4.8.4/../../../../arm-none-eabi/lib/armv7-m\libc.a(lib_a-mprec.o)
                0x0800c0d8                __mprec_tens
 .rodata.__mprec_bigtens
                0x0800c1a0       0x28 c:/program files (x86)/gnu tools arm embedded/4.8 2014q2/bin/../lib/gcc/arm-none-eabi/4.8.4/../../../../arm-none-eabi/lib/armv7-m\libc.a(lib_a-mprec.o)
                0x0800c1a0                __mprec_bigtens
 .rodata.p05.5269
                0x0800c1c8        0xc c:/program files (x86)/gnu tools arm embedded/4.8 2014q2/bin/../lib/gcc/arm-none-eabi/4.8.4/../../../../arm-none-eabi/lib/armv7-m\libc.a(lib_a-mprec.o)
 *(.glue_7)
 .glue_7        0x00000000        0x0 linker stubs
 *(.glue_7t)
 .glue_7t       0x00000000        0x0 linker stubs
 *(.eh_frame)
 *(.init)
 *(.fini)
                0x0800c1d4                . = ALIGN (0x4)
                0x0800c1d4                _etext = .

.vfp11_veneer   0x0800c1d4        0x0
 .vfp11_veneer  0x00000000        0x0 linker stubs

.v4_bx          0x0800c1d4        0x0
 .v4_bx         0x00000000        0x0 linker stubs

.iplt           0x0800c1d4        0x0
 .iplt          0x00000000        0x0 out/startup_stm32f10x_hd.o

.ARM.extab
 *(.ARM.extab* .gnu.linkonce.armextab.*)

.ARM            0x0800c1d4        0x8
                0x0800c1d4                __exidx_start = .
 *(.ARM.exidx*)
 .ARM.exidx     0x0800c1d4        0x8 c:/program files (x86)/gnu tools arm embedded/4.8 2014q2/bin/../lib/gcc/arm-none-eabi/4.8.4/armv7-m\libgcc.a(_divdi3.o)
 .ARM.exidx     0x0800c1dc        0x0 c:/program files (x86)/gnu tools arm embedded/4.8 2014q2/bin/../lib/gcc/arm-none-eabi/4.8.4/armv7-m\libgcc.a(_udivdi3.o)
                                  0x8 (size before relaxing)
                0x0800c1dc                __exidx_end = .

.rel.dyn        0x0800c1dc        0x0
 .rel.iplt      0x00000000        0x0 out/startup_stm32f10x_hd.o

.preinit_array  0x0800c1dc        0x0
                0x0800c1dc                PROVIDE (__preinit_array_start, .)
 *(.preinit_array*)
                0x0800c1dc                PROVIDE (__preinit_array_end, .)

.init_array     0x0800c1dc        0x0
                0x0800c1dc                PROVIDE (__init_array_start, .)
 *(SORT(.init_array.*))
 *(.init_array*)
                0x0800c1dc                PROVIDE (__init_array_end, .)

.fini_array     0x0800c1dc        0x0
                0x0800c1dc                PROVIDE (__fini_array_start, .)
 *(.fini_array*)
 *(SORT(.fini_array.*))
                0x0800c1dc                PROVIDE (__fini_array_end, .)
                0x0800c1dc                _sidata = .

.data           0x20000000      0x9ac load address 0x0800c1dc
                0x20000000                . = ALIGN (0x4)
                0x20000000                _sdata = .
 *(.data)
 *(.data*)
 .data.ADCPrescTable
                0x20000000        0x4 out/stm32f10x_rcc.o
 .data.APBAHBPrescTable
                0x20000004       0x10 out/stm32f10x_rcc.o
 .data.sysTickPerUs
                0x20000014        0x4 out/systick.o
 .data.LAKITU_enable
                0x20000018        0x4 out/engine.o
                0x20000018                LAKITU_enable
 .data.AHBPrescTable
                0x2000001c       0x10 out/system_stm32f10x.o
                0x2000001c                AHBPrescTable
 .data.SystemCoreClock
                0x2000002c        0x4 out/system_stm32f10x.o
                0x2000002c                SystemCoreClock
 .data.testPhase
                0x20000030        0x4 out/pwm.o
                0x20000030                testPhase
 .data.timer_4_5_deadtime_delay
                0x20000034        0x4 out/pwm.o
                0x20000034                timer_4_5_deadtime_delay
 .data.g_YawOff
                0x20000038        0x4 out/pwm.o
 .data.timer_1_8_deadtime_register
                0x2000003c        0x4 out/pwm.o
                0x2000003c                timer_1_8_deadtime_register
 .data.lastChar
                0x20000040        0x4 out/comio.o
 .data.configData
                0x20000044        0xc out/config.o
                0x20000044                configData
 .data.pEpInt_IN
                0x20000050       0x1c out/usb_istr.o
                0x20000050                pEpInt_IN
 .data.pEpInt_OUT
                0x2000006c       0x1c out/usb_istr.o
                0x2000006c                pEpInt_OUT
 .data.Config_Descriptor
                0x20000088        0x8 out/usb_prop.o
                0x20000088                Config_Descriptor
 .data.Device_Property
                0x20000090       0x30 out/usb_prop.o
                0x20000090                Device_Property
 .data.User_Standard_Requests
                0x200000c0       0x24 out/usb_prop.o
                0x200000c0                User_Standard_Requests
 .data.Device_Descriptor
                0x200000e4        0x8 out/usb_prop.o
                0x200000e4                Device_Descriptor
 .data.String_Descriptor
                0x200000ec       0x20 out/usb_prop.o
                0x200000ec                String_Descriptor
 .data.linecoding
                0x2000010c        0x8 out/usb_prop.o
                0x2000010c                linecoding
 .data.Device_Table
                0x20000114        0x4 out/usb_prop.o
                0x20000114                Device_Table
 .data.Virtual_Com_Port_StringSerial
                0x20000118       0x1c out/usb_desc.o
                0x20000118                Virtual_Com_Port_StringSerial
 .data.__fdlib_version
                0x20000134        0x1 c:/program files (x86)/gnu tools arm embedded/4.8 2014q2/bin/../lib/gcc/arm-none-eabi/4.8.4/../../../../arm-none-eabi/lib/armv7-m\libm.a(lib_a-s_lib_ver.o)
                0x20000134                __fdlib_version
 *fill*         0x20000135        0x3 
 .data.impure_data
                0x20000138      0x428 c:/program files (x86)/gnu tools arm embedded/4.8 2014q2/bin/../lib/gcc/arm-none-eabi/4.8.4/../../../../arm-none-eabi/lib/armv7-m\libc.a(lib_a-impure.o)
 .data._impure_ptr
                0x20000560        0x4 c:/program files (x86)/gnu tools arm embedded/4.8 2014q2/bin/../lib/gcc/arm-none-eabi/4.8.4/../../../../arm-none-eabi/lib/armv7-m\libc.a(lib_a-impure.o)
                0x20000560                _impure_ptr
 .data.__malloc_av_
                0x20000564      0x408 c:/program files (x86)/gnu tools arm embedded/4.8 2014q2/bin/../lib/gcc/arm-none-eabi/4.8.4/../../../../arm-none-eabi/lib/armv7-m\libc.a(lib_a-mallocr.o)
                0x20000564                __malloc_av_
 .data.__malloc_trim_threshold
                0x2000096c        0x4 c:/program files (x86)/gnu tools arm embedded/4.8 2014q2/bin/../lib/gcc/arm-none-eabi/4.8.4/../../../../arm-none-eabi/lib/armv7-m\libc.a(lib_a-mallocr.o)
                0x2000096c                __malloc_trim_threshold
 .data.__malloc_sbrk_base
                0x20000970        0x4 c:/program files (x86)/gnu tools arm embedded/4.8 2014q2/bin/../lib/gcc/arm-none-eabi/4.8.4/../../../../arm-none-eabi/lib/armv7-m\libc.a(lib_a-mallocr.o)
                0x20000970                __malloc_sbrk_base
 .data.lconv    0x20000974       0x38 c:/program files (x86)/gnu tools arm embedded/4.8 2014q2/bin/../lib/gcc/arm-none-eabi/4.8.4/../../../../arm-none-eabi/lib/armv7-m\libc.a(lib_a-locale.o)
                0x200009ac                . = ALIGN (0x4)
                0x200009ac                _edata = .

.igot.plt       0x200009ac        0x0 load address 0x0800cb88
 .igot.plt      0x00000000        0x0 out/startup_stm32f10x_hd.o
                0x200009ac                . = ALIGN (0x4)

.bss            0x200009ac     0x10a4 load address 0x0800cb88
                0x200009ac                _sbss = .
                0x200009ac                __bss_start__ = _sbss
 *(.bss)
 *(.bss*)
 .bss.sysTickMillis
                0x200009ac        0x4 out/systick.o
 .bss.systickUserCallback
                0x200009b0        0x4 out/systick.o
 .bss.RingBufferUART4TX
                0x200009b4      0x210 out/usart.o
 .bss.RingBufferUART4RX
                0x20000bc4      0x210 out/usart.o
 .bss.lastCallbackTime
                0x20000dd4        0x4 out/usb.o
 .bss.USBCallBackCalled
                0x20000dd8        0x4 out/usb.o
 .bss.roll_setpoint
                0x20000ddc        0x4 out/engine.o
                0x20000ddc                roll_setpoint
 .bss.pitchRCOffset
                0x20000de0        0x4 out/engine.o
 .bss.debugCnt  0x20000de4        0x4 out/engine.o
                0x20000de4                debugCnt
 .bss.debugOrient
                0x20000de8        0x4 out/engine.o
                0x20000de8                debugOrient
 .bss.yawRCOffset
                0x20000dec        0x4 out/engine.o
 .bss.yaw_setpoint
                0x20000df0        0x4 out/engine.o
                0x20000df0                yaw_setpoint
 .bss.centerPoint
                0x20000df4        0x4 out/engine.o
                0x20000df4                centerPoint
 .bss.Step      0x20000df8        0xc out/engine.o
                0x20000df8                Step
 .bss.debugAutoPan
                0x20000e04        0x4 out/engine.o
                0x20000e04                debugAutoPan
 .bss.pitch_Error_last
                0x20000e08        0x4 out/engine.o
                0x20000e08                pitch_Error_last
 .bss.debugPrint
                0x20000e0c        0x4 out/engine.o
                0x20000e0c                debugPrint
 .bss.AccData   0x20000e10        0xc out/engine.o
                0x20000e10                AccData
 .bss.stepSmooth
                0x20000e1c        0x4 out/engine.o
                0x20000e1c                stepSmooth
 .bss.loopCounter.5055
                0x20000e20        0x4 out/engine.o
 .bss.GyroData  0x20000e24        0xc out/engine.o
                0x20000e24                GyroData
 .bss.roll_Error_last
                0x20000e30        0x4 out/engine.o
                0x20000e30                roll_Error_last
 .bss.printcounter
                0x20000e34        0x4 out/engine.o
 .bss.pitch_setpoint
                0x20000e38        0x4 out/engine.o
                0x20000e38                pitch_setpoint
 .bss.debugRC   0x20000e3c        0x4 out/engine.o
                0x20000e3c                debugRC
 .bss.step      0x20000e40        0x4 out/engine.o
                0x20000e40                step
 .bss.rollRCOffset
                0x20000e44        0x4 out/engine.o
 .bss.debugSense
                0x20000e48        0x4 out/engine.o
                0x20000e48                debugSense
 .bss.debugLAKITU
                0x20000e4c        0x4 out/engine.o
                0x20000e4c                debugLAKITU
 .bss.RCSmooth  0x20000e50        0xc out/engine.o
                0x20000e50                RCSmooth
 .bss.yaw_Error_last
                0x20000e5c        0x4 out/engine.o
                0x20000e5c                yaw_Error_last
 .bss.debugPerf
                0x20000e60        0x4 out/engine.o
                0x20000e60                debugPerf
 .bss.gyroADC_PITCH
                0x20000e64        0x2 out/gyro.o
 *fill*         0x20000e66        0x2 
 .bss.gyroADC_YAW_offset
                0x20000e68        0x4 out/gyro.o
 .bss.gyroADC_ROLL
                0x20000e6c        0x2 out/gyro.o
 .bss.gyroADC_YAW
                0x20000e6e        0x2 out/gyro.o
 .bss.gyroADC_ROLL_offset
                0x20000e70        0x4 out/gyro.o
 .bss.gyroADC_PITCH_offset
                0x20000e74        0x4 out/gyro.o
 .bss.heap_end.7135
                0x20000e78        0x4 out/newlib_stubs.o
 .bss.g_Roll    0x20000e7c        0xc out/pwm.o
 .bss.g_Pitch   0x20000e88        0xc out/pwm.o
 .bss.g_Yaw     0x20000e94        0xc out/pwm.o
 .bss.idlePerf  0x20000ea0        0x4 out/main.o
 .bss.WatchDogCounter
                0x20000ea4        0x4 out/main.o
 .bss.gotIMU    0x20000ea8        0x4 out/main.o
 .bss.rc4a.6700
                0x20000eac        0x2 out/rc.o
 .bss.rc4b.6701
                0x20000eae        0x2 out/rc.o
 .bss.rc2       0x20000eb0        0x4 out/rc.o
 .bss.rc3       0x20000eb4        0x4 out/rc.o
 .bss.rc4       0x20000eb8        0x4 out/rc.o
 .bss.rc2a.6690
                0x20000ebc        0x2 out/rc.o
 .bss.rc2b.6691
                0x20000ebe        0x2 out/rc.o
 .bss.rc3b.6681
                0x20000ec0        0x2 out/rc.o
 .bss.rc3a.6680
                0x20000ec2        0x2 out/rc.o
 .bss.Data_Mul_MaxPacketSize
                0x20000ec4        0x1 out/usb_core.o
                0x20000ec4                Data_Mul_MaxPacketSize
 *fill*         0x20000ec5        0x3 
 .bss.bDeviceState
                0x20000ec8        0x4 out/usb_pwr.o
                0x20000ec8                bDeviceState
 .bss.remotewakeupon
                0x20000ecc        0x4 out/usb_pwr.o
                0x20000ecc                remotewakeupon
 .bss.bIntPackSOF
                0x20000ed0        0x1 out/usb_istr.o
                0x20000ed0                bIntPackSOF
 .bss.offset.7135
                0x20000ed1        0x1 out/hw_config.o
 .bss.VCPconnectMode
                0x20000ed2        0x1 out/hw_config.o
 *fill*         0x20000ed3        0x1 
 .bss.vcpBootBlockTime
                0x20000ed4        0x4 out/usb_prop.o
 .bss.Request   0x20000ed8        0x1 out/usb_prop.o
                0x20000ed8                Request
 *fill*         0x20000ed9        0x3 
 .bss.__malloc_max_total_mem
                0x20000edc        0x4 c:/program files (x86)/gnu tools arm embedded/4.8 2014q2/bin/../lib/gcc/arm-none-eabi/4.8.4/../../../../arm-none-eabi/lib/armv7-m\libc.a(lib_a-mallocr.o)
                0x20000edc                __malloc_max_total_mem
 .bss.__malloc_max_sbrked_mem
                0x20000ee0        0x4 c:/program files (x86)/gnu tools arm embedded/4.8 2014q2/bin/../lib/gcc/arm-none-eabi/4.8.4/../../../../arm-none-eabi/lib/armv7-m\libc.a(lib_a-mallocr.o)
                0x20000ee0                __malloc_max_sbrked_mem
 .bss.__malloc_top_pad
                0x20000ee4        0x4 c:/program files (x86)/gnu tools arm embedded/4.8 2014q2/bin/../lib/gcc/arm-none-eabi/4.8.4/../../../../arm-none-eabi/lib/armv7-m\libc.a(lib_a-mallocr.o)
                0x20000ee4                __malloc_top_pad
 .bss.__malloc_current_mallinfo
                0x20000ee8       0x28 c:/program files (x86)/gnu tools arm embedded/4.8 2014q2/bin/../lib/gcc/arm-none-eabi/4.8.4/../../../../arm-none-eabi/lib/armv7-m\libc.a(lib_a-mallocr.o)
                0x20000ee8                __malloc_current_mallinfo
 *(COMMON)
 COMMON         0x20000f10        0x8 out/i2c.o
                0x20000f10                I2Cerrorcount
                0x20000f14                I2Cerror
 COMMON         0x20000f18        0x4 out/usart.o
                0x20000f18                IrqCntUart4
 COMMON         0x20000f1c      0x210 out/usb.o
                0x20000f1c                RingBufferUSBTX
 COMMON         0x2000112c       0x3c out/engine.o
                0x2000112c                CameraOrient
                0x20001138                LakituAngles
                0x20001144                AccAngleSmooth
                0x20001150                Output
                0x2000115c                roll_angle_correction
                0x20001160                yaw_angle_correction
                0x20001164                pitch_angle_correction
 COMMON         0x20001168        0x4 out/commhandler.o
                0x20001168                ConfigMode
 COMMON         0x2000116c       0x24 out/pwm.o
                0x2000116c                MaxCnt
                0x20001178                MinCnt
                0x20001184                IrqCnt
 COMMON         0x20001190      0x800 out/fasttrig.o
                0x20001190                sinDataI16
 COMMON         0x20001990        0x4 out/usb_int.o
                0x20001990                SaveRState
                0x20001992                SaveTState
 COMMON         0x20001994        0x2 out/usb_core.o
                0x20001994                StatusInfo
 *fill*         0x20001996        0x2 
 COMMON         0x20001998       0x32 out/usb_init.o
                0x20001998                SaveState
                0x2000199c                pProperty
                0x200019a0                EPindex
                0x200019a4                Device_Info
                0x200019c0                pUser_Standard_Requests
                0x200019c4                pInformation
                0x200019c8                wInterrupt_Mask
 *fill*         0x200019ca        0x2 
 COMMON         0x200019cc       0x24 out/usb_pwr.o
                0x200019cc                ResumeS
                0x200019d0                EP
 COMMON         0x200019f0        0x2 out/usb_istr.o
                0x200019f0                wIstr
 *fill*         0x200019f2        0x2 
 COMMON         0x200019f4       0x54 out/hw_config.o
                0x200019f4                sendLength
                0x200019f8                HSEStartUpStatus
                0x200019fc                packetSent
                0x20001a00                EXTI_InitStructure
                0x20001a08                receiveBuffer
 COMMON         0x20001a48        0x4 out/usb_endp.o
                0x20001a48                receiveLength
 COMMON         0x20001a4c        0x4 c:/program files (x86)/gnu tools arm embedded/4.8 2014q2/bin/../lib/gcc/arm-none-eabi/4.8.4/../../../../arm-none-eabi/lib/armv7-m\libc.a(lib_a-reent.o)
                0x20001a4c                errno
                0x20001a50                . = ALIGN (0x4)
                0x20001a50                _ebss = .
                0x20001a50                __bss_end__ = _ebss

._user_heap_stack
                0x20001a50      0x200 load address 0x0800dc2c
                0x20001a50                . = ALIGN (0x4)
                0x20001a50                PROVIDE (end, .)
                0x20001a50                PROVIDE (_end, .)
                0x20001a50                . = (. + _Min_Heap_Size)
                0x20001c50                . = (. + _Min_Stack_Size)
 *fill*         0x20001a50      0x200 
                0x20001c50                . = ALIGN (0x4)

/DISCARD/
 libc.a(*)
 libm.a(*)
 libgcc.a(*)

.ARM.attributes
                0x00000000       0x2f
 *(.ARM.attributes)
 .ARM.attributes
                0x00000000       0x21 out/startup_stm32f10x_hd.o
 .ARM.attributes
                0x00000021       0x33 out/stm32f10x_gpio.o
 .ARM.attributes
                0x00000054       0x33 out/stm32f10x_exti.o
 .ARM.attributes
                0x00000087       0x33 out/stm32f10x_adc.o
 .ARM.attributes
                0x000000ba       0x33 out/misc.o
 .ARM.attributes
                0x000000ed       0x33 out/stm32f10x_tim.o
 .ARM.attributes
                0x00000120       0x33 out/stm32f10x_usart.o
 .ARM.attributes
                0x00000153       0x33 out/stm32f10x_rcc.o
 .ARM.attributes
                0x00000186       0x33 out/adc.o
 .ARM.attributes
                0x000001b9       0x33 out/systick.o
 .ARM.attributes
                0x000001ec       0x33 out/i2c.o
 .ARM.attributes
                0x0000021f       0x33 out/usart.o
 .ARM.attributes
                0x00000252       0x33 out/usb.o
 .ARM.attributes
                0x00000285       0x33 out/stopwatch.o
 .ARM.attributes
                0x000002b8       0x33 out/engine.o
 .ARM.attributes
                0x000002eb       0x33 out/commhandler.o
 .ARM.attributes
                0x0000031e       0x33 out/system_stm32f10x.o
 .ARM.attributes
                0x00000351       0x33 out/ringbuffer.o
 .ARM.attributes
                0x00000384       0x33 out/gyro.o
 .ARM.attributes
                0x000003b7       0x33 out/utils.o
 .ARM.attributes
                0x000003ea       0x33 out/newlib_stubs.o
 .ARM.attributes
                0x0000041d       0x33 out/reboot.o
 .ARM.attributes
                0x00000450       0x33 out/pwm.o
 .ARM.attributes
                0x00000483       0x33 out/stm32_it.o
 .ARM.attributes
                0x000004b6       0x33 out/eeprom.o
 .ARM.attributes
                0x000004e9       0x33 out/comio.o
 .ARM.attributes
                0x0000051c       0x33 out/main.o
 .ARM.attributes
                0x0000054f       0x33 out/rc.o
 .ARM.attributes
                0x00000582       0x33 out/pins.o
 .ARM.attributes
                0x000005b5       0x33 out/fasttrig.o
 .ARM.attributes
                0x000005e8       0x33 out/config.o
 .ARM.attributes
                0x0000061b       0x33 out/usb_int.o
 .ARM.attributes
                0x0000064e       0x33 out/usb_regs.o
 .ARM.attributes
                0x00000681       0x33 out/usb_core.o
 .ARM.attributes
                0x000006b4       0x33 out/usb_sil.o
 .ARM.attributes
                0x000006e7       0x33 out/usb_init.o
 .ARM.attributes
                0x0000071a       0x33 out/usb_mem.o
 .ARM.attributes
                0x0000074d       0x33 out/usb_pwr.o
 .ARM.attributes
                0x00000780       0x33 out/usb_istr.o
 .ARM.attributes
                0x000007b3       0x33 out/hw_config.o
 .ARM.attributes
                0x000007e6       0x33 out/usb_prop.o
 .ARM.attributes
                0x00000819       0x33 out/usb_endp.o
 .ARM.attributes
                0x0000084c       0x33 out/usb_desc.o
 .ARM.attributes
                0x0000087f       0x2d c:/program files (x86)/gnu tools arm embedded/4.8 2014q2/bin/../lib/gcc/arm-none-eabi/4.8.4/../../../../arm-none-eabi/lib/armv7-m\libm.a(lib_a-sf_cos.o)
 .ARM.attributes
                0x000008ac       0x2d c:/program files (x86)/gnu tools arm embedded/4.8 2014q2/bin/../lib/gcc/arm-none-eabi/4.8.4/../../../../arm-none-eabi/lib/armv7-m\libm.a(lib_a-sf_sin.o)
 .ARM.attributes
                0x000008d9       0x2d c:/program files (x86)/gnu tools arm embedded/4.8 2014q2/bin/../lib/gcc/arm-none-eabi/4.8.4/../../../../arm-none-eabi/lib/armv7-m\libm.a(lib_a-wf_atan2.o)
 .ARM.attributes
                0x00000906       0x2d c:/program files (x86)/gnu tools arm embedded/4.8 2014q2/bin/../lib/gcc/arm-none-eabi/4.8.4/../../../../arm-none-eabi/lib/armv7-m\libm.a(lib_a-wf_sqrt.o)
 .ARM.attributes
                0x00000933       0x2d c:/program files (x86)/gnu tools arm embedded/4.8 2014q2/bin/../lib/gcc/arm-none-eabi/4.8.4/../../../../arm-none-eabi/lib/armv7-m\libm.a(lib_a-ef_atan2.o)
 .ARM.attributes
                0x00000960       0x2d c:/program files (x86)/gnu tools arm embedded/4.8 2014q2/bin/../lib/gcc/arm-none-eabi/4.8.4/../../../../arm-none-eabi/lib/armv7-m\libm.a(lib_a-ef_rem_pio2.o)
 .ARM.attributes
                0x0000098d       0x2d c:/program files (x86)/gnu tools arm embedded/4.8 2014q2/bin/../lib/gcc/arm-none-eabi/4.8.4/../../../../arm-none-eabi/lib/armv7-m\libm.a(lib_a-ef_sqrt.o)
 .ARM.attributes
                0x000009ba       0x2d c:/program files (x86)/gnu tools arm embedded/4.8 2014q2/bin/../lib/gcc/arm-none-eabi/4.8.4/../../../../arm-none-eabi/lib/armv7-m\libm.a(lib_a-kf_cos.o)
 .ARM.attributes
                0x000009e7       0x2d c:/program files (x86)/gnu tools arm embedded/4.8 2014q2/bin/../lib/gcc/arm-none-eabi/4.8.4/../../../../arm-none-eabi/lib/armv7-m\libm.a(lib_a-kf_rem_pio2.o)
 .ARM.attributes
                0x00000a14       0x2d c:/program files (x86)/gnu tools arm embedded/4.8 2014q2/bin/../lib/gcc/arm-none-eabi/4.8.4/../../../../arm-none-eabi/lib/armv7-m\libm.a(lib_a-kf_sin.o)
 .ARM.attributes
                0x00000a41       0x2d c:/program files (x86)/gnu tools arm embedded/4.8 2014q2/bin/../lib/gcc/arm-none-eabi/4.8.4/../../../../arm-none-eabi/lib/armv7-m\libm.a(lib_a-s_lib_ver.o)
 .ARM.attributes
                0x00000a6e       0x2d c:/program files (x86)/gnu tools arm embedded/4.8 2014q2/bin/../lib/gcc/arm-none-eabi/4.8.4/../../../../arm-none-eabi/lib/armv7-m\libm.a(lib_a-s_matherr.o)
 .ARM.attributes
                0x00000a9b       0x2d c:/program files (x86)/gnu tools arm embedded/4.8 2014q2/bin/../lib/gcc/arm-none-eabi/4.8.4/../../../../arm-none-eabi/lib/armv7-m\libm.a(lib_a-sf_atan.o)
 .ARM.attributes
                0x00000ac8       0x2d c:/program files (x86)/gnu tools arm embedded/4.8 2014q2/bin/../lib/gcc/arm-none-eabi/4.8.4/../../../../arm-none-eabi/lib/armv7-m\libm.a(lib_a-sf_fabs.o)
 .ARM.attributes
                0x00000af5       0x2d c:/program files (x86)/gnu tools arm embedded/4.8 2014q2/bin/../lib/gcc/arm-none-eabi/4.8.4/../../../../arm-none-eabi/lib/armv7-m\libm.a(lib_a-sf_floor.o)
 .ARM.attributes
                0x00000b22       0x2d c:/program files (x86)/gnu tools arm embedded/4.8 2014q2/bin/../lib/gcc/arm-none-eabi/4.8.4/../../../../arm-none-eabi/lib/armv7-m\libm.a(lib_a-sf_fpclassify.o)
 .ARM.attributes
                0x00000b4f       0x2d c:/program files (x86)/gnu tools arm embedded/4.8 2014q2/bin/../lib/gcc/arm-none-eabi/4.8.4/../../../../arm-none-eabi/lib/armv7-m\libm.a(lib_a-sf_scalbn.o)
 .ARM.attributes
                0x00000b7c       0x2d c:/program files (x86)/gnu tools arm embedded/4.8 2014q2/bin/../lib/gcc/arm-none-eabi/4.8.4/../../../../arm-none-eabi/lib/armv7-m\libm.a(lib_a-sf_copysign.o)
 .ARM.attributes
                0x00000ba9       0x1d c:/program files (x86)/gnu tools arm embedded/4.8 2014q2/bin/../lib/gcc/arm-none-eabi/4.8.4/armv7-m\libgcc.a(_arm_addsubdf3.o)
 .ARM.attributes
                0x00000bc6       0x1d c:/program files (x86)/gnu tools arm embedded/4.8 2014q2/bin/../lib/gcc/arm-none-eabi/4.8.4/armv7-m\libgcc.a(_arm_muldivdf3.o)
 .ARM.attributes
                0x00000be3       0x1d c:/program files (x86)/gnu tools arm embedded/4.8 2014q2/bin/../lib/gcc/arm-none-eabi/4.8.4/armv7-m\libgcc.a(_arm_cmpdf2.o)
 .ARM.attributes
                0x00000c00       0x1d c:/program files (x86)/gnu tools arm embedded/4.8 2014q2/bin/../lib/gcc/arm-none-eabi/4.8.4/armv7-m\libgcc.a(_arm_fixdfsi.o)
 .ARM.attributes
                0x00000c1d       0x1d c:/program files (x86)/gnu tools arm embedded/4.8 2014q2/bin/../lib/gcc/arm-none-eabi/4.8.4/armv7-m\libgcc.a(_arm_truncdfsf2.o)
 .ARM.attributes
                0x00000c3a       0x1d c:/program files (x86)/gnu tools arm embedded/4.8 2014q2/bin/../lib/gcc/arm-none-eabi/4.8.4/armv7-m\libgcc.a(_arm_addsubsf3.o)
 .ARM.attributes
                0x00000c57       0x1d c:/program files (x86)/gnu tools arm embedded/4.8 2014q2/bin/../lib/gcc/arm-none-eabi/4.8.4/armv7-m\libgcc.a(_arm_muldivsf3.o)
 .ARM.attributes
                0x00000c74       0x1d c:/program files (x86)/gnu tools arm embedded/4.8 2014q2/bin/../lib/gcc/arm-none-eabi/4.8.4/armv7-m\libgcc.a(_arm_cmpsf2.o)
 .ARM.attributes
                0x00000c91       0x1d c:/program files (x86)/gnu tools arm embedded/4.8 2014q2/bin/../lib/gcc/arm-none-eabi/4.8.4/armv7-m\libgcc.a(_arm_fixsfsi.o)
 .ARM.attributes
                0x00000cae       0x2d c:/program files (x86)/gnu tools arm embedded/4.8 2014q2/bin/../lib/gcc/arm-none-eabi/4.8.4/../../../../arm-none-eabi/lib/armv7-m\libc.a(lib_a-errno.o)
 .ARM.attributes
                0x00000cdb       0x2d c:/program files (x86)/gnu tools arm embedded/4.8 2014q2/bin/../lib/gcc/arm-none-eabi/4.8.4/../../../../arm-none-eabi/lib/armv7-m\libc.a(lib_a-impure.o)
 .ARM.attributes
                0x00000d08       0x2d c:/program files (x86)/gnu tools arm embedded/4.8 2014q2/bin/../lib/gcc/arm-none-eabi/4.8.4/../../../../arm-none-eabi/lib/armv7-m\libc.a(lib_a-init.o)
 .ARM.attributes
                0x00000d35       0x1b c:/program files (x86)/gnu tools arm embedded/4.8 2014q2/bin/../lib/gcc/arm-none-eabi/4.8.4/../../../../arm-none-eabi/lib/armv7-m\libc.a(lib_a-memcpy.o)
 .ARM.attributes
                0x00000d50       0x2d c:/program files (x86)/gnu tools arm embedded/4.8 2014q2/bin/../lib/gcc/arm-none-eabi/4.8.4/../../../../arm-none-eabi/lib/armv7-m\libc.a(lib_a-reent.o)
 .ARM.attributes
                0x00000d7d       0x2d c:/program files (x86)/gnu tools arm embedded/4.8 2014q2/bin/../lib/gcc/arm-none-eabi/4.8.4/../../../../arm-none-eabi/lib/armv7-m\libc.a(lib_a-strlen.o)
 .ARM.attributes
                0x00000daa       0x2d c:/program files (x86)/gnu tools arm embedded/4.8 2014q2/bin/../lib/gcc/arm-none-eabi/4.8.4/../../../../arm-none-eabi/lib/armv7-m\libc.a(lib_a-vsnprintf.o)
 .ARM.attributes
                0x00000dd7       0x2d c:/program files (x86)/gnu tools arm embedded/4.8 2014q2/bin/../lib/gcc/arm-none-eabi/4.8.4/../../../../arm-none-eabi/lib/armv7-m\libc.a(lib_a-freer.o)
 .ARM.attributes
                0x00000e04       0x2d c:/program files (x86)/gnu tools arm embedded/4.8 2014q2/bin/../lib/gcc/arm-none-eabi/4.8.4/../../../../arm-none-eabi/lib/armv7-m\libc.a(lib_a-mallocr.o)
 .ARM.attributes
                0x00000e31       0x2d c:/program files (x86)/gnu tools arm embedded/4.8 2014q2/bin/../lib/gcc/arm-none-eabi/4.8.4/../../../../arm-none-eabi/lib/armv7-m\libc.a(lib_a-mlock.o)
 .ARM.attributes
                0x00000e5e       0x2d c:/program files (x86)/gnu tools arm embedded/4.8 2014q2/bin/../lib/gcc/arm-none-eabi/4.8.4/../../../../arm-none-eabi/lib/armv7-m\libc.a(lib_a-sbrkr.o)
 .ARM.attributes
                0x00000e8b       0x2d c:/program files (x86)/gnu tools arm embedded/4.8 2014q2/bin/../lib/gcc/arm-none-eabi/4.8.4/../../../../arm-none-eabi/lib/armv7-m\libc.a(lib_a-svfprintf.o)
 .ARM.attributes
                0x00000eb8       0x2d c:/program files (x86)/gnu tools arm embedded/4.8 2014q2/bin/../lib/gcc/arm-none-eabi/4.8.4/../../../../arm-none-eabi/lib/armv7-m\libc.a(lib_a-dtoa.o)
 .ARM.attributes
                0x00000ee5       0x2d c:/program files (x86)/gnu tools arm embedded/4.8 2014q2/bin/../lib/gcc/arm-none-eabi/4.8.4/../../../../arm-none-eabi/lib/armv7-m\libc.a(lib_a-locale.o)
 .ARM.attributes
                0x00000f12       0x2d c:/program files (x86)/gnu tools arm embedded/4.8 2014q2/bin/../lib/gcc/arm-none-eabi/4.8.4/../../../../arm-none-eabi/lib/armv7-m\libc.a(lib_a-memchr-stub.o)
 .ARM.attributes
                0x00000f3f       0x2d c:/program files (x86)/gnu tools arm embedded/4.8 2014q2/bin/../lib/gcc/arm-none-eabi/4.8.4/../../../../arm-none-eabi/lib/armv7-m\libc.a(lib_a-mprec.o)
 .ARM.attributes
                0x00000f6c       0x2d c:/program files (x86)/gnu tools arm embedded/4.8 2014q2/bin/../lib/gcc/arm-none-eabi/4.8.4/../../../../arm-none-eabi/lib/armv7-m\libc.a(lib_a-s_fpclassify.o)
 .ARM.attributes
                0x00000f99       0x2d c:/program files (x86)/gnu tools arm embedded/4.8 2014q2/bin/../lib/gcc/arm-none-eabi/4.8.4/../../../../arm-none-eabi/lib/armv7-m\libc.a(lib_a-svfiprintf.o)
 .ARM.attributes
                0x00000fc6       0x2d c:/program files (x86)/gnu tools arm embedded/4.8 2014q2/bin/../lib/gcc/arm-none-eabi/4.8.4/../../../../arm-none-eabi/lib/armv7-m\libc.a(lib_a-callocr.o)
 .ARM.attributes
                0x00000ff3       0x2d c:/program files (x86)/gnu tools arm embedded/4.8 2014q2/bin/../lib/gcc/arm-none-eabi/4.8.4/../../../../arm-none-eabi/lib/armv7-m\libc.a(lib_a-memmove.o)
 .ARM.attributes
                0x00001020       0x2d c:/program files (x86)/gnu tools arm embedded/4.8 2014q2/bin/../lib/gcc/arm-none-eabi/4.8.4/../../../../arm-none-eabi/lib/armv7-m\libc.a(lib_a-memset.o)
 .ARM.attributes
                0x0000104d       0x2d c:/program files (x86)/gnu tools arm embedded/4.8 2014q2/bin/../lib/gcc/arm-none-eabi/4.8.4/../../../../arm-none-eabi/lib/armv7-m\libc.a(lib_a-reallocr.o)
 .ARM.attributes
                0x0000107a       0x1d c:/program files (x86)/gnu tools arm embedded/4.8 2014q2/bin/../lib/gcc/arm-none-eabi/4.8.4/armv7-m\libgcc.a(_aeabi_uldivmod.o)
 .ARM.attributes
                0x00001097       0x2d c:/program files (x86)/gnu tools arm embedded/4.8 2014q2/bin/../lib/gcc/arm-none-eabi/4.8.4/armv7-m\libgcc.a(bpabi.o)
 .ARM.attributes
                0x000010c4       0x1d c:/program files (x86)/gnu tools arm embedded/4.8 2014q2/bin/../lib/gcc/arm-none-eabi/4.8.4/armv7-m\libgcc.a(_dvmd_tls.o)
 .ARM.attributes
                0x000010e1       0x2d c:/program files (x86)/gnu tools arm embedded/4.8 2014q2/bin/../lib/gcc/arm-none-eabi/4.8.4/armv7-m\libgcc.a(_divdi3.o)
 .ARM.attributes
                0x0000110e       0x2d c:/program files (x86)/gnu tools arm embedded/4.8 2014q2/bin/../lib/gcc/arm-none-eabi/4.8.4/armv7-m\libgcc.a(_udivdi3.o)
OUTPUT(out/STM32Gimbal.elf elf32-littlearm)

.comment        0x00000000       0x70
 .comment       0x00000000       0x70 out/stm32f10x_gpio.o
                                 0x71 (size before relaxing)
 .comment       0x00000000       0x71 out/stm32f10x_exti.o
 .comment       0x00000000       0x71 out/stm32f10x_adc.o
 .comment       0x00000000       0x71 out/misc.o
 .comment       0x00000000       0x71 out/stm32f10x_tim.o
 .comment       0x00000000       0x71 out/stm32f10x_usart.o
 .comment       0x00000000       0x71 out/stm32f10x_rcc.o
 .comment       0x00000000       0x71 out/adc.o
 .comment       0x00000000       0x71 out/systick.o
 .comment       0x00000000       0x71 out/i2c.o
 .comment       0x00000000       0x71 out/usart.o
 .comment       0x00000000       0x71 out/usb.o
 .comment       0x00000000       0x71 out/stopwatch.o
 .comment       0x00000000       0x71 out/engine.o
 .comment       0x00000000       0x71 out/commhandler.o
 .comment       0x00000000       0x71 out/system_stm32f10x.o
 .comment       0x00000000       0x71 out/ringbuffer.o
 .comment       0x00000000       0x71 out/gyro.o
 .comment       0x00000000       0x71 out/utils.o
 .comment       0x00000000       0x71 out/newlib_stubs.o
 .comment       0x00000000       0x71 out/reboot.o
 .comment       0x00000000       0x71 out/pwm.o
 .comment       0x00000000       0x71 out/stm32_it.o
 .comment       0x00000000       0x71 out/eeprom.o
 .comment       0x00000000       0x71 out/comio.o
 .comment       0x00000000       0x71 out/main.o
 .comment       0x00000000       0x71 out/rc.o
 .comment       0x00000000       0x71 out/pins.o
 .comment       0x00000000       0x71 out/fasttrig.o
 .comment       0x00000000       0x71 out/config.o
 .comment       0x00000000       0x71 out/usb_int.o
 .comment       0x00000000       0x71 out/usb_regs.o
 .comment       0x00000000       0x71 out/usb_core.o
 .comment       0x00000000       0x71 out/usb_sil.o
 .comment       0x00000000       0x71 out/usb_init.o
 .comment       0x00000000       0x71 out/usb_mem.o
 .comment       0x00000000       0x71 out/usb_pwr.o
 .comment       0x00000000       0x71 out/usb_istr.o
 .comment       0x00000000       0x71 out/hw_config.o
 .comment       0x00000000       0x71 out/usb_prop.o
 .comment       0x00000000       0x71 out/usb_endp.o
 .comment       0x00000000       0x71 out/usb_desc.o

.debug_frame    0x00000000      0xa64
 .debug_frame   0x00000000       0x28 c:/program files (x86)/gnu tools arm embedded/4.8 2014q2/bin/../lib/gcc/arm-none-eabi/4.8.4/../../../../arm-none-eabi/lib/armv7-m\libm.a(lib_a-sf_cos.o)
 .debug_frame   0x00000028       0x28 c:/program files (x86)/gnu tools arm embedded/4.8 2014q2/bin/../lib/gcc/arm-none-eabi/4.8.4/../../../../arm-none-eabi/lib/armv7-m\libm.a(lib_a-sf_sin.o)
 .debug_frame   0x00000050       0x20 c:/program files (x86)/gnu tools arm embedded/4.8 2014q2/bin/../lib/gcc/arm-none-eabi/4.8.4/../../../../arm-none-eabi/lib/armv7-m\libm.a(lib_a-wf_atan2.o)
 .debug_frame   0x00000070       0x30 c:/program files (x86)/gnu tools arm embedded/4.8 2014q2/bin/../lib/gcc/arm-none-eabi/4.8.4/../../../../arm-none-eabi/lib/armv7-m\libm.a(lib_a-wf_sqrt.o)
 .debug_frame   0x000000a0       0x30 c:/program files (x86)/gnu tools arm embedded/4.8 2014q2/bin/../lib/gcc/arm-none-eabi/4.8.4/../../../../arm-none-eabi/lib/armv7-m\libm.a(lib_a-ef_atan2.o)
 .debug_frame   0x000000d0       0x38 c:/program files (x86)/gnu tools arm embedded/4.8 2014q2/bin/../lib/gcc/arm-none-eabi/4.8.4/../../../../arm-none-eabi/lib/armv7-m\libm.a(lib_a-ef_rem_pio2.o)
 .debug_frame   0x00000108       0x30 c:/program files (x86)/gnu tools arm embedded/4.8 2014q2/bin/../lib/gcc/arm-none-eabi/4.8.4/../../../../arm-none-eabi/lib/armv7-m\libm.a(lib_a-ef_sqrt.o)
 .debug_frame   0x00000138       0x34 c:/program files (x86)/gnu tools arm embedded/4.8 2014q2/bin/../lib/gcc/arm-none-eabi/4.8.4/../../../../arm-none-eabi/lib/armv7-m\libm.a(lib_a-kf_cos.o)
 .debug_frame   0x0000016c       0x3c c:/program files (x86)/gnu tools arm embedded/4.8 2014q2/bin/../lib/gcc/arm-none-eabi/4.8.4/../../../../arm-none-eabi/lib/armv7-m\libm.a(lib_a-kf_rem_pio2.o)
 .debug_frame   0x000001a8       0x34 c:/program files (x86)/gnu tools arm embedded/4.8 2014q2/bin/../lib/gcc/arm-none-eabi/4.8.4/../../../../arm-none-eabi/lib/armv7-m\libm.a(lib_a-kf_sin.o)
 .debug_frame   0x000001dc       0x20 c:/program files (x86)/gnu tools arm embedded/4.8 2014q2/bin/../lib/gcc/arm-none-eabi/4.8.4/../../../../arm-none-eabi/lib/armv7-m\libm.a(lib_a-s_matherr.o)
 .debug_frame   0x000001fc       0x30 c:/program files (x86)/gnu tools arm embedded/4.8 2014q2/bin/../lib/gcc/arm-none-eabi/4.8.4/../../../../arm-none-eabi/lib/armv7-m\libm.a(lib_a-sf_atan.o)
 .debug_frame   0x0000022c       0x20 c:/program files (x86)/gnu tools arm embedded/4.8 2014q2/bin/../lib/gcc/arm-none-eabi/4.8.4/../../../../arm-none-eabi/lib/armv7-m\libm.a(lib_a-sf_fabs.o)
 .debug_frame   0x0000024c       0x30 c:/program files (x86)/gnu tools arm embedded/4.8 2014q2/bin/../lib/gcc/arm-none-eabi/4.8.4/../../../../arm-none-eabi/lib/armv7-m\libm.a(lib_a-sf_floor.o)
 .debug_frame   0x0000027c       0x20 c:/program files (x86)/gnu tools arm embedded/4.8 2014q2/bin/../lib/gcc/arm-none-eabi/4.8.4/../../../../arm-none-eabi/lib/armv7-m\libm.a(lib_a-sf_fpclassify.o)
 .debug_frame   0x0000029c       0x2c c:/program files (x86)/gnu tools arm embedded/4.8 2014q2/bin/../lib/gcc/arm-none-eabi/4.8.4/../../../../arm-none-eabi/lib/armv7-m\libm.a(lib_a-sf_scalbn.o)
 .debug_frame   0x000002c8       0x20 c:/program files (x86)/gnu tools arm embedded/4.8 2014q2/bin/../lib/gcc/arm-none-eabi/4.8.4/../../../../arm-none-eabi/lib/armv7-m\libm.a(lib_a-sf_copysign.o)
 .debug_frame   0x000002e8       0x20 c:/program files (x86)/gnu tools arm embedded/4.8 2014q2/bin/../lib/gcc/arm-none-eabi/4.8.4/../../../../arm-none-eabi/lib/armv7-m\libc.a(lib_a-errno.o)
 .debug_frame   0x00000308       0x2c c:/program files (x86)/gnu tools arm embedded/4.8 2014q2/bin/../lib/gcc/arm-none-eabi/4.8.4/../../../../arm-none-eabi/lib/armv7-m\libc.a(lib_a-init.o)
 .debug_frame   0x00000334       0x48 c:/program files (x86)/gnu tools arm embedded/4.8 2014q2/bin/../lib/gcc/arm-none-eabi/4.8.4/../../../../arm-none-eabi/lib/armv7-m\libc.a(lib_a-reent.o)
 .debug_frame   0x0000037c       0x20 c:/program files (x86)/gnu tools arm embedded/4.8 2014q2/bin/../lib/gcc/arm-none-eabi/4.8.4/../../../../arm-none-eabi/lib/armv7-m\libc.a(lib_a-strlen.o)
 .debug_frame   0x0000039c       0x54 c:/program files (x86)/gnu tools arm embedded/4.8 2014q2/bin/../lib/gcc/arm-none-eabi/4.8.4/../../../../arm-none-eabi/lib/armv7-m\libc.a(lib_a-vsnprintf.o)
 .debug_frame   0x000003f0       0x50 c:/program files (x86)/gnu tools arm embedded/4.8 2014q2/bin/../lib/gcc/arm-none-eabi/4.8.4/../../../../arm-none-eabi/lib/armv7-m\libc.a(lib_a-freer.o)
 .debug_frame   0x00000440       0x38 c:/program files (x86)/gnu tools arm embedded/4.8 2014q2/bin/../lib/gcc/arm-none-eabi/4.8.4/../../../../arm-none-eabi/lib/armv7-m\libc.a(lib_a-mallocr.o)
 .debug_frame   0x00000478       0x30 c:/program files (x86)/gnu tools arm embedded/4.8 2014q2/bin/../lib/gcc/arm-none-eabi/4.8.4/../../../../arm-none-eabi/lib/armv7-m\libc.a(lib_a-mlock.o)
 .debug_frame   0x000004a8       0x2c c:/program files (x86)/gnu tools arm embedded/4.8 2014q2/bin/../lib/gcc/arm-none-eabi/4.8.4/../../../../arm-none-eabi/lib/armv7-m\libc.a(lib_a-sbrkr.o)
 .debug_frame   0x000004d4       0x3c c:/program files (x86)/gnu tools arm embedded/4.8 2014q2/bin/../lib/gcc/arm-none-eabi/4.8.4/../../../../arm-none-eabi/lib/armv7-m\libc.a(lib_a-svfprintf.o)
 .debug_frame   0x00000510       0x64 c:/program files (x86)/gnu tools arm embedded/4.8 2014q2/bin/../lib/gcc/arm-none-eabi/4.8.4/../../../../arm-none-eabi/lib/armv7-m\libc.a(lib_a-dtoa.o)
 .debug_frame   0x00000574       0x98 c:/program files (x86)/gnu tools arm embedded/4.8 2014q2/bin/../lib/gcc/arm-none-eabi/4.8.4/../../../../arm-none-eabi/lib/armv7-m\libc.a(lib_a-locale.o)
 .debug_frame   0x0000060c       0x2c c:/program files (x86)/gnu tools arm embedded/4.8 2014q2/bin/../lib/gcc/arm-none-eabi/4.8.4/../../../../arm-none-eabi/lib/armv7-m\libc.a(lib_a-memchr-stub.o)
 .debug_frame   0x00000638      0x228 c:/program files (x86)/gnu tools arm embedded/4.8 2014q2/bin/../lib/gcc/arm-none-eabi/4.8.4/../../../../arm-none-eabi/lib/armv7-m\libc.a(lib_a-mprec.o)
 .debug_frame   0x00000860       0x28 c:/program files (x86)/gnu tools arm embedded/4.8 2014q2/bin/../lib/gcc/arm-none-eabi/4.8.4/../../../../arm-none-eabi/lib/armv7-m\libc.a(lib_a-s_fpclassify.o)
 .debug_frame   0x00000888       0x64 c:/program files (x86)/gnu tools arm embedded/4.8 2014q2/bin/../lib/gcc/arm-none-eabi/4.8.4/../../../../arm-none-eabi/lib/armv7-m\libc.a(lib_a-svfiprintf.o)
 .debug_frame   0x000008ec       0x28 c:/program files (x86)/gnu tools arm embedded/4.8 2014q2/bin/../lib/gcc/arm-none-eabi/4.8.4/../../../../arm-none-eabi/lib/armv7-m\libc.a(lib_a-callocr.o)
 .debug_frame   0x00000914       0x2c c:/program files (x86)/gnu tools arm embedded/4.8 2014q2/bin/../lib/gcc/arm-none-eabi/4.8.4/../../../../arm-none-eabi/lib/armv7-m\libc.a(lib_a-memmove.o)
 .debug_frame   0x00000940       0x2c c:/program files (x86)/gnu tools arm embedded/4.8 2014q2/bin/../lib/gcc/arm-none-eabi/4.8.4/../../../../arm-none-eabi/lib/armv7-m\libc.a(lib_a-memset.o)
 .debug_frame   0x0000096c       0x38 c:/program files (x86)/gnu tools arm embedded/4.8 2014q2/bin/../lib/gcc/arm-none-eabi/4.8.4/../../../../arm-none-eabi/lib/armv7-m\libc.a(lib_a-reallocr.o)
 .debug_frame   0x000009a4       0x58 c:/program files (x86)/gnu tools arm embedded/4.8 2014q2/bin/../lib/gcc/arm-none-eabi/4.8.4/armv7-m\libgcc.a(bpabi.o)
 .debug_frame   0x000009fc       0x34 c:/program files (x86)/gnu tools arm embedded/4.8 2014q2/bin/../lib/gcc/arm-none-eabi/4.8.4/armv7-m\libgcc.a(_divdi3.o)
 .debug_frame   0x00000a30       0x34 c:/program files (x86)/gnu tools arm embedded/4.8 2014q2/bin/../lib/gcc/arm-none-eabi/4.8.4/armv7-m\libgcc.a(_udivdi3.o)

Cross Reference Table

Symbol                                            File
ADC1_2_IRQHandler                                 out/startup_stm32f10x_hd.o
ADC3_IRQHandler                                   out/startup_stm32f10x_hd.o
ADC_AnalogWatchdogCmd                             out/stm32f10x_adc.o
ADC_AnalogWatchdogSingleChannelConfig             out/stm32f10x_adc.o
ADC_AnalogWatchdogThresholdsConfig                out/stm32f10x_adc.o
ADC_AutoInjectedConvCmd                           out/stm32f10x_adc.o
ADC_ClearFlag                                     out/stm32f10x_adc.o
ADC_ClearITPendingBit                             out/stm32f10x_adc.o
ADC_Cmd                                           out/stm32f10x_adc.o
                                                  out/adc.o
ADC_Config                                        out/adc.o
                                                  out/main.o
ADC_DMACmd                                        out/stm32f10x_adc.o
ADC_DeInit                                        out/stm32f10x_adc.o
                                                  out/adc.o
ADC_DiscModeChannelCountConfig                    out/stm32f10x_adc.o
ADC_DiscModeCmd                                   out/stm32f10x_adc.o
ADC_ExternalTrigConvCmd                           out/stm32f10x_adc.o
ADC_ExternalTrigInjectedConvCmd                   out/stm32f10x_adc.o
ADC_ExternalTrigInjectedConvConfig                out/stm32f10x_adc.o
ADC_GetCalibrationStatus                          out/stm32f10x_adc.o
                                                  out/adc.o
ADC_GetConversionValue                            out/stm32f10x_adc.o
                                                  out/adc.o
ADC_GetDualModeConversionValue                    out/stm32f10x_adc.o
ADC_GetFlagStatus                                 out/stm32f10x_adc.o
                                                  out/adc.o
ADC_GetITStatus                                   out/stm32f10x_adc.o
ADC_GetInjectedConversionValue                    out/stm32f10x_adc.o
ADC_GetResetCalibrationStatus                     out/stm32f10x_adc.o
                                                  out/adc.o
ADC_GetSoftwareStartConvStatus                    out/stm32f10x_adc.o
ADC_GetSoftwareStartInjectedConvCmdStatus         out/stm32f10x_adc.o
ADC_ITConfig                                      out/stm32f10x_adc.o
ADC_Init                                          out/stm32f10x_adc.o
                                                  out/adc.o
ADC_InjectedChannelConfig                         out/stm32f10x_adc.o
ADC_InjectedDiscModeCmd                           out/stm32f10x_adc.o
ADC_InjectedSequencerLengthConfig                 out/stm32f10x_adc.o
ADC_RegularChannelConfig                          out/stm32f10x_adc.o
                                                  out/adc.o
ADC_ResetCalibration                              out/stm32f10x_adc.o
                                                  out/adc.o
ADC_SetInjectedOffset                             out/stm32f10x_adc.o
ADC_SoftwareStartConvCmd                          out/stm32f10x_adc.o
                                                  out/adc.o
ADC_SoftwareStartInjectedConvCmd                  out/stm32f10x_adc.o
ADC_StartCalibration                              out/stm32f10x_adc.o
                                                  out/adc.o
ADC_StructInit                                    out/stm32f10x_adc.o
ADC_TempSensorVrefintCmd                          out/stm32f10x_adc.o
AHBPrescTable                                     out/system_stm32f10x.o
AccAngleSmooth                                    out/engine.o
AccData                                           out/engine.o
ActivateIRQ                                       out/pwm.o
BKPInit                                           out/reboot.o
BKPRead                                           out/reboot.o
BKPWrite                                          out/reboot.o
BKP_ClearFlag                                     out/stm32f10x_bkp.o
BKP_ClearITPendingBit                             out/stm32f10x_bkp.o
BKP_DeInit                                        out/stm32f10x_bkp.o
BKP_GetFlagStatus                                 out/stm32f10x_bkp.o
BKP_GetITStatus                                   out/stm32f10x_bkp.o
BKP_ITConfig                                      out/stm32f10x_bkp.o
BKP_RTCOutputConfig                               out/stm32f10x_bkp.o
BKP_ReadBackupRegister                            out/stm32f10x_bkp.o
BKP_SetRTCCalibrationValue                        out/stm32f10x_bkp.o
BKP_TamperPinCmd                                  out/stm32f10x_bkp.o
BKP_TamperPinLevelConfig                          out/stm32f10x_bkp.o
BKP_WriteBackupRegister                           out/stm32f10x_bkp.o
Blink                                             out/utils.o
                                                  out/main.o
BusFault_Handler                                  out/stm32_it.o
                                                  out/startup_stm32f10x_hd.o
ByteSwap                                          out/usb_regs.o
                                                  out/usb_core.o
CAN1_RX1_IRQHandler                               out/startup_stm32f10x_hd.o
CAN1_SCE_IRQHandler                               out/startup_stm32f10x_hd.o
CAN_CancelTransmit                                out/stm32f10x_can.o
CAN_ClearFlag                                     out/stm32f10x_can.o
CAN_ClearITPendingBit                             out/stm32f10x_can.o
CAN_DBGFreeze                                     out/stm32f10x_can.o
CAN_DeInit                                        out/stm32f10x_can.o
CAN_FIFORelease                                   out/stm32f10x_can.o
CAN_FilterInit                                    out/stm32f10x_can.o
CAN_GetFlagStatus                                 out/stm32f10x_can.o
CAN_GetITStatus                                   out/stm32f10x_can.o
CAN_GetLSBTransmitErrorCounter                    out/stm32f10x_can.o
CAN_GetLastErrorCode                              out/stm32f10x_can.o
CAN_GetReceiveErrorCounter                        out/stm32f10x_can.o
CAN_ITConfig                                      out/stm32f10x_can.o
CAN_Init                                          out/stm32f10x_can.o
CAN_MessagePending                                out/stm32f10x_can.o
CAN_OperatingModeRequest                          out/stm32f10x_can.o
CAN_Receive                                       out/stm32f10x_can.o
CAN_SlaveStartBank                                out/stm32f10x_can.o
CAN_Sleep                                         out/stm32f10x_can.o
CAN_StructInit                                    out/stm32f10x_can.o
CAN_TTComModeCmd                                  out/stm32f10x_can.o
CAN_Transmit                                      out/stm32f10x_can.o
CAN_TransmitStatus                                out/stm32f10x_can.o
CAN_WakeUp                                        out/stm32f10x_can.o
CDC_Receive_DATA                                  out/hw_config.o
                                                  out/usb.o
CDC_Send_DATA                                     out/hw_config.o
                                                  out/usb.o
CEC_ClearFlag                                     out/stm32f10x_cec.o
CEC_ClearITPendingBit                             out/stm32f10x_cec.o
CEC_Cmd                                           out/stm32f10x_cec.o
CEC_DeInit                                        out/stm32f10x_cec.o
CEC_EndOfMessageCmd                               out/stm32f10x_cec.o
CEC_GetFlagStatus                                 out/stm32f10x_cec.o
CEC_GetITStatus                                   out/stm32f10x_cec.o
CEC_ITConfig                                      out/stm32f10x_cec.o
CEC_Init                                          out/stm32f10x_cec.o
CEC_OwnAddressConfig                              out/stm32f10x_cec.o
CEC_ReceiveDataByte                               out/stm32f10x_cec.o
CEC_SendDataByte                                  out/stm32f10x_cec.o
CEC_SetPrescaler                                  out/stm32f10x_cec.o
CEC_StartOfMessage                                out/stm32f10x_cec.o
CRC_CalcBlockCRC                                  out/stm32f10x_crc.o
CRC_CalcCRC                                       out/stm32f10x_crc.o
CRC_GetCRC                                        out/stm32f10x_crc.o
CRC_GetIDRegister                                 out/stm32f10x_crc.o
CRC_ResetDR                                       out/stm32f10x_crc.o
CRC_SetIDRegister                                 out/stm32f10x_crc.o
CTR_HP                                            out/usb_int.o
CTR_LP                                            out/usb_int.o
                                                  out/usb_istr.o
CameraOrient                                      out/engine.o
CharAvailable                                     out/comio.o
                                                  out/commhandler.o
ClearDTOG_RX                                      out/usb_regs.o
                                                  out/usb_core.o
ClearDTOG_TX                                      out/usb_regs.o
                                                  out/usb_core.o
ClearEPDoubleBuff                                 out/usb_regs.o
ClearEP_CTR_RX                                    out/usb_regs.o
ClearEP_CTR_TX                                    out/usb_regs.o
ClearEP_KIND                                      out/usb_regs.o
Clear_Status_Out                                  out/usb_regs.o
                                                  out/usb_prop.o
ComFlushInput                                     out/comio.o
                                                  out/main.o
ComInit                                           out/comio.o
                                                  out/main.o
CommHandler                                       out/commhandler.o
                                                  out/main.o
ConfigMode                                        out/main.o
                                                  out/commhandler.o
Config_Descriptor                                 out/usb_prop.o
DAC_Cmd                                           out/stm32f10x_dac.o
DAC_DMACmd                                        out/stm32f10x_dac.o
DAC_DeInit                                        out/stm32f10x_dac.o
DAC_DualSoftwareTriggerCmd                        out/stm32f10x_dac.o
DAC_GetDataOutputValue                            out/stm32f10x_dac.o
DAC_Init                                          out/stm32f10x_dac.o
DAC_SetChannel1Data                               out/stm32f10x_dac.o
DAC_SetChannel2Data                               out/stm32f10x_dac.o
DAC_SetDualChannelData                            out/stm32f10x_dac.o
DAC_SoftwareTriggerCmd                            out/stm32f10x_dac.o
DAC_StructInit                                    out/stm32f10x_dac.o
DAC_WaveGenerationCmd                             out/stm32f10x_dac.o
DBGMCU_Config                                     out/stm32f10x_dbgmcu.o
DBGMCU_GetDEVID                                   out/stm32f10x_dbgmcu.o
DBGMCU_GetREVID                                   out/stm32f10x_dbgmcu.o
DEBUG_LEDoff                                      out/utils.o
                                                  out/engine.o
DEBUG_LEDon                                       out/utils.o
                                                  out/i2c.o
DEBUG_LEDtoggle                                   out/utils.o
                                                  out/main.o
DEBUG_PutChar                                     out/comio.o
                                                  out/rc.o
                                                  out/main.o
                                                  out/pwm.o
                                                  out/utils.o
DEBUG_PutString                                   out/comio.o
DMA1_Channel1_IRQHandler                          out/startup_stm32f10x_hd.o
DMA1_Channel2_IRQHandler                          out/startup_stm32f10x_hd.o
DMA1_Channel3_IRQHandler                          out/startup_stm32f10x_hd.o
DMA1_Channel4_IRQHandler                          out/startup_stm32f10x_hd.o
DMA1_Channel5_IRQHandler                          out/startup_stm32f10x_hd.o
DMA1_Channel6_IRQHandler                          out/startup_stm32f10x_hd.o
DMA1_Channel7_IRQHandler                          out/startup_stm32f10x_hd.o
DMA2_Channel1_IRQHandler                          out/startup_stm32f10x_hd.o
DMA2_Channel2_IRQHandler                          out/startup_stm32f10x_hd.o
DMA2_Channel3_IRQHandler                          out/startup_stm32f10x_hd.o
DMA2_Channel4_5_IRQHandler                        out/startup_stm32f10x_hd.o
DMA_ClearFlag                                     out/stm32f10x_dma.o
DMA_ClearITPendingBit                             out/stm32f10x_dma.o
DMA_Cmd                                           out/stm32f10x_dma.o
DMA_DeInit                                        out/stm32f10x_dma.o
DMA_GetCurrDataCounter                            out/stm32f10x_dma.o
DMA_GetFlagStatus                                 out/stm32f10x_dma.o
DMA_GetITStatus                                   out/stm32f10x_dma.o
DMA_ITConfig                                      out/stm32f10x_dma.o
DMA_Init                                          out/stm32f10x_dma.o
DMA_SetCurrDataCounter                            out/stm32f10x_dma.o
DMA_StructInit                                    out/stm32f10x_dma.o
Data_Mul_MaxPacketSize                            out/usb_core.o
DebugMon_Handler                                  out/stm32_it.o
                                                  out/startup_stm32f10x_hd.o
Default_Handler                                   out/startup_stm32f10x_hd.o
Deg2Rad                                           out/utils.o
                                                  out/engine.o
Delay_ms                                          out/utils.o
                                                  out/hw_config.o
                                                  out/config.o
                                                  out/main.o
                                                  out/eeprom.o
                                                  out/gyro.o
                                                  out/commhandler.o
                                                  out/engine.o
Delay_us                                          out/utils.o
                                                  out/i2c.o
Device_Descriptor                                 out/usb_prop.o
Device_Info                                       out/usb_prop.o
                                                  out/hw_config.o
                                                  out/usb_init.o
Device_Property                                   out/usb_prop.o
                                                  out/usb_istr.o
                                                  out/usb_init.o
                                                  out/usb_core.o
Device_Table                                      out/usb_prop.o
                                                  out/usb_core.o
EP                                                out/usb_pwr.o
EP1_IN_Callback                                   out/usb.o
                                                  out/usb_istr.o
EP3_OUT_Callback                                  out/usb_endp.o
                                                  out/usb_istr.o
EPindex                                           out/usb_init.o
                                                  out/usb_int.o
ERR_Callback                                      out/hw_config.o
                                                  out/usb_istr.o
EXTI0_IRQHandler                                  out/startup_stm32f10x_hd.o
EXTI15_10_IRQHandler                              out/startup_stm32f10x_hd.o
EXTI1_IRQHandler                                  out/startup_stm32f10x_hd.o
EXTI2_IRQHandler                                  out/rc.o
                                                  out/startup_stm32f10x_hd.o
EXTI3_IRQHandler                                  out/rc.o
                                                  out/startup_stm32f10x_hd.o
EXTI4_IRQHandler                                  out/rc.o
                                                  out/startup_stm32f10x_hd.o
EXTI9_5_IRQHandler                                out/startup_stm32f10x_hd.o
EXTI_ClearFlag                                    out/stm32f10x_exti.o
EXTI_ClearITPendingBit                            out/stm32f10x_exti.o
                                                  out/hw_config.o
                                                  out/rc.o
                                                  out/stm32_it.o
EXTI_DeInit                                       out/stm32f10x_exti.o
EXTI_GenerateSWInterrupt                          out/stm32f10x_exti.o
                                                  out/rc.o
EXTI_GetFlagStatus                                out/stm32f10x_exti.o
EXTI_GetITStatus                                  out/stm32f10x_exti.o
EXTI_Init                                         out/stm32f10x_exti.o
                                                  out/hw_config.o
                                                  out/rc.o
EXTI_InitStructure                                out/hw_config.o
EXTI_StructInit                                   out/stm32f10x_exti.o
Enter_LowPowerMode                                out/hw_config.o
FLASH_ClearFlag                                   out/stm32f10x_flash.o
FLASH_EnableWriteProtection                       out/stm32f10x_flash.o
FLASH_EraseAllBank1Pages                          out/stm32f10x_flash.o
FLASH_EraseAllPages                               out/stm32f10x_flash.o
FLASH_EraseOptionBytes                            out/stm32f10x_flash.o
FLASH_ErasePage                                   out/stm32f10x_flash.o
FLASH_GetBank1Status                              out/stm32f10x_flash.o
FLASH_GetFlagStatus                               out/stm32f10x_flash.o
FLASH_GetPrefetchBufferStatus                     out/stm32f10x_flash.o
FLASH_GetReadOutProtectionStatus                  out/stm32f10x_flash.o
FLASH_GetStatus                                   out/stm32f10x_flash.o
FLASH_GetUserOptionByte                           out/stm32f10x_flash.o
FLASH_GetWriteProtectionOptionByte                out/stm32f10x_flash.o
FLASH_HalfCycleAccessCmd                          out/stm32f10x_flash.o
FLASH_IRQHandler                                  out/startup_stm32f10x_hd.o
FLASH_ITConfig                                    out/stm32f10x_flash.o
FLASH_Lock                                        out/stm32f10x_flash.o
FLASH_LockBank1                                   out/stm32f10x_flash.o
FLASH_PrefetchBufferCmd                           out/stm32f10x_flash.o
FLASH_ProgramHalfWord                             out/stm32f10x_flash.o
FLASH_ProgramOptionByteData                       out/stm32f10x_flash.o
FLASH_ProgramWord                                 out/stm32f10x_flash.o
FLASH_ReadOutProtection                           out/stm32f10x_flash.o
FLASH_SetLatency                                  out/stm32f10x_flash.o
FLASH_Unlock                                      out/stm32f10x_flash.o
FLASH_UnlockBank1                                 out/stm32f10x_flash.o
FLASH_UserOptionByteConfig                        out/stm32f10x_flash.o
FLASH_WaitForLastBank1Operation                   out/stm32f10x_flash.o
FLASH_WaitForLastOperation                        out/stm32f10x_flash.o
FSMC_ClearFlag                                    out/stm32f10x_fsmc.o
FSMC_ClearITPendingBit                            out/stm32f10x_fsmc.o
FSMC_GetECC                                       out/stm32f10x_fsmc.o
FSMC_GetFlagStatus                                out/stm32f10x_fsmc.o
FSMC_GetITStatus                                  out/stm32f10x_fsmc.o
FSMC_IRQHandler                                   out/startup_stm32f10x_hd.o
FSMC_ITConfig                                     out/stm32f10x_fsmc.o
FSMC_NANDCmd                                      out/stm32f10x_fsmc.o
FSMC_NANDDeInit                                   out/stm32f10x_fsmc.o
FSMC_NANDECCCmd                                   out/stm32f10x_fsmc.o
FSMC_NANDInit                                     out/stm32f10x_fsmc.o
FSMC_NANDStructInit                               out/stm32f10x_fsmc.o
FSMC_NORSRAMCmd                                   out/stm32f10x_fsmc.o
FSMC_NORSRAMDeInit                                out/stm32f10x_fsmc.o
FSMC_NORSRAMInit                                  out/stm32f10x_fsmc.o
FSMC_NORSRAMStructInit                            out/stm32f10x_fsmc.o
FSMC_PCCARDCmd                                    out/stm32f10x_fsmc.o
FSMC_PCCARDDeInit                                 out/stm32f10x_fsmc.o
FSMC_PCCARDInit                                   out/stm32f10x_fsmc.o
FSMC_PCCARDStructInit                             out/stm32f10x_fsmc.o
FreeUserBuffer                                    out/usb_regs.o
GPIO_AFIODeInit                                   out/stm32f10x_gpio.o
GPIO_Config                                       out/pins.o
                                                  out/main.o
GPIO_DeInit                                       out/stm32f10x_gpio.o
GPIO_ETH_MediaInterfaceConfig                     out/stm32f10x_gpio.o
GPIO_EXTILineConfig                               out/stm32f10x_gpio.o
                                                  out/rc.o
GPIO_EventOutputCmd                               out/stm32f10x_gpio.o
GPIO_EventOutputConfig                            out/stm32f10x_gpio.o
GPIO_Init                                         out/stm32f10x_gpio.o
                                                  out/hw_config.o
                                                  out/pins.o
                                                  out/rc.o
                                                  out/usart.o
                                                  out/adc.o
GPIO_PinLockConfig                                out/stm32f10x_gpio.o
GPIO_PinRemapConfig                               out/stm32f10x_gpio.o
                                                  out/rc.o
GPIO_ReadInputData                                out/stm32f10x_gpio.o
GPIO_ReadInputDataBit                             out/stm32f10x_gpio.o
                                                  out/rc.o
                                                  out/i2c.o
GPIO_ReadOutputData                               out/stm32f10x_gpio.o
GPIO_ReadOutputDataBit                            out/stm32f10x_gpio.o
GPIO_ResetBits                                    out/stm32f10x_gpio.o
                                                  out/hw_config.o
                                                  out/utils.o
GPIO_SetBits                                      out/stm32f10x_gpio.o
                                                  out/hw_config.o
                                                  out/utils.o
GPIO_StructInit                                   out/stm32f10x_gpio.o
GPIO_ToggleBits                                   out/stm32f10x_gpio.o
                                                  out/utils.o
GPIO_Write                                        out/stm32f10x_gpio.o
GPIO_WriteBit                                     out/stm32f10x_gpio.o
                                                  out/i2c.o
GetAUX2                                           out/rc.o
GetAUX3                                           out/rc.o
GetAUX4                                           out/rc.o
GetBTABLE                                         out/usb_regs.o
GetCNTR                                           out/usb_regs.o
GetChar                                           out/comio.o
                                                  out/commhandler.o
GetDADDR                                          out/usb_regs.o
GetENDPOINT                                       out/usb_regs.o
GetEPAddress                                      out/usb_regs.o
GetEPDblBuf0Addr                                  out/usb_regs.o
GetEPDblBuf0Count                                 out/usb_regs.o
GetEPDblBuf1Addr                                  out/usb_regs.o
GetEPDblBuf1Count                                 out/usb_regs.o
GetEPDblBufDir                                    out/usb_regs.o
GetEPRxAddr                                       out/usb_regs.o
                                                  out/usb_sil.o
                                                  out/usb_core.o
GetEPRxCount                                      out/usb_regs.o
                                                  out/usb_endp.o
                                                  out/usb_sil.o
GetEPRxStatus                                     out/usb_regs.o
GetEPTxAddr                                       out/usb_regs.o
                                                  out/usb_sil.o
                                                  out/usb_core.o
GetEPTxCount                                      out/usb_regs.o
GetEPTxStatus                                     out/usb_regs.o
GetEPType                                         out/usb_regs.o
GetFNR                                            out/usb_regs.o
GetISTR                                           out/usb_regs.o
GetIdlePerf                                       out/main.o
                                                  out/engine.o
GetRxStallStatus                                  out/usb_regs.o
GetTxStallStatus                                  out/usb_regs.o
GetVCPConnectMode                                 out/hw_config.o
                                                  out/main.o
                                                  out/commhandler.o
Get_Orientation                                   out/engine.o
Get_RC_Step                                       out/rc.o
                                                  out/engine.o
Get_SerialNum                                     out/hw_config.o
                                                  out/usb_prop.o
GyroData                                          out/engine.o
HSEStartUpStatus                                  out/hw_config.o
HardFault_Handler                                 out/stm32_it.o
                                                  out/startup_stm32f10x_hd.o
I2C1_Ack                                          out/i2c.o
                                                  out/gyro.o
I2C1_ER_IRQHandler                                out/startup_stm32f10x_hd.o
I2C1_EV_IRQHandler                                out/startup_stm32f10x_hd.o
I2C1_NoAck                                        out/i2c.o
                                                  out/eeprom.o
                                                  out/gyro.o
I2C1_ReceiveByte                                  out/i2c.o
                                                  out/eeprom.o
                                                  out/gyro.o
I2C1_SendByte                                     out/i2c.o
                                                  out/eeprom.o
                                                  out/gyro.o
I2C1_Start                                        out/i2c.o
                                                  out/eeprom.o
                                                  out/gyro.o
I2C1_Stop                                         out/i2c.o
                                                  out/eeprom.o
                                                  out/gyro.o
I2C1_WaitAck                                      out/i2c.o
                                                  out/eeprom.o
                                                  out/gyro.o
I2C2_ER_IRQHandler                                out/startup_stm32f10x_hd.o
I2C2_EV_IRQHandler                                out/startup_stm32f10x_hd.o
I2C_ARPCmd                                        out/stm32f10x_i2c.o
I2C_AcknowledgeConfig                             out/stm32f10x_i2c.o
I2C_CalculatePEC                                  out/stm32f10x_i2c.o
I2C_CheckEvent                                    out/stm32f10x_i2c.o
I2C_ClearFlag                                     out/stm32f10x_i2c.o
I2C_ClearITPendingBit                             out/stm32f10x_i2c.o
I2C_Cmd                                           out/stm32f10x_i2c.o
I2C_DMACmd                                        out/stm32f10x_i2c.o
I2C_DMALastTransferCmd                            out/stm32f10x_i2c.o
I2C_DeInit                                        out/stm32f10x_i2c.o
I2C_DualAddressCmd                                out/stm32f10x_i2c.o
I2C_FastModeDutyCycleConfig                       out/stm32f10x_i2c.o
I2C_GeneralCallCmd                                out/stm32f10x_i2c.o
I2C_GenerateSTART                                 out/stm32f10x_i2c.o
I2C_GenerateSTOP                                  out/stm32f10x_i2c.o
I2C_GetFlagStatus                                 out/stm32f10x_i2c.o
I2C_GetITStatus                                   out/stm32f10x_i2c.o
I2C_GetLastEvent                                  out/stm32f10x_i2c.o
I2C_GetPEC                                        out/stm32f10x_i2c.o
I2C_ITConfig                                      out/stm32f10x_i2c.o
I2C_Init                                          out/stm32f10x_i2c.o
I2C_NACKPositionConfig                            out/stm32f10x_i2c.o
I2C_OwnAddress2Config                             out/stm32f10x_i2c.o
I2C_PECPositionConfig                             out/stm32f10x_i2c.o
I2C_ReadRegister                                  out/stm32f10x_i2c.o
I2C_ReceiveData                                   out/stm32f10x_i2c.o
I2C_SMBusAlertConfig                              out/stm32f10x_i2c.o
I2C_Send7bitAddress                               out/stm32f10x_i2c.o
I2C_SendData                                      out/stm32f10x_i2c.o
I2C_SoftwareResetCmd                              out/stm32f10x_i2c.o
I2C_StretchClockCmd                               out/stm32f10x_i2c.o
I2C_StructInit                                    out/stm32f10x_i2c.o
I2C_TransmitPEC                                   out/stm32f10x_i2c.o
I2C_delay                                         out/i2c.o
I2Cerror                                          out/eeprom.o
                                                  out/gyro.o
                                                  out/i2c.o
I2Cerrorcount                                     out/engine.o
                                                  out/i2c.o
I2S_Cmd                                           out/stm32f10x_spi.o
I2S_Init                                          out/stm32f10x_spi.o
I2S_StructInit                                    out/stm32f10x_spi.o
IWDG_Enable                                       out/stm32f10x_iwdg.o
IWDG_GetFlagStatus                                out/stm32f10x_iwdg.o
IWDG_ReloadCounter                                out/stm32f10x_iwdg.o
IWDG_SetPrescaler                                 out/stm32f10x_iwdg.o
IWDG_SetReload                                    out/stm32f10x_iwdg.o
IWDG_WriteAccessCmd                               out/stm32f10x_iwdg.o
In0_Process                                       out/usb_core.o
                                                  out/usb_int.o
InitSinArray                                      out/fasttrig.o
                                                  out/main.o
InitSysTick                                       out/systick.o
                                                  out/main.o
InitUart4Buffer                                   out/usart.o
InitUart4BufferIRQ                                out/usart.o
Init_Orientation                                  out/engine.o
                                                  out/main.o
IrqCnt                                            out/pwm.o
                                                  out/engine.o
IrqCntUart4                                       out/usart.o
LAKITU_enable                                     out/engine.o
                                                  out/commhandler.o
LEDoff                                            out/utils.o
                                                  out/config.o
                                                  out/main.o
                                                  out/engine.o
LEDon                                             out/utils.o
                                                  out/config.o
                                                  out/commhandler.o
                                                  out/engine.o
LEDtoggle                                         out/utils.o
                                                  out/main.o
LakituAngles                                      out/commhandler.o
                                                  out/engine.o
Leave_LowPowerMode                                out/hw_config.o
                                                  out/usb_pwr.o
LimitYawPWM                                       out/pwm.o
Limit_Pitch                                       out/engine.o
MPU6050_ACC_get                                   out/gyro.o
                                                  out/engine.o
MPU6050_Gyro_calibration                          out/gyro.o
                                                  out/main.o
MPU6050_Gyro_get                                  out/gyro.o
                                                  out/engine.o
MPU6050_Init                                      out/gyro.o
                                                  out/main.o
MPU6050_get                                       out/gyro.o
MaxCnt                                            out/pwm.o
                                                  out/engine.o
MaxCntClear                                       out/pwm.o
MemManage_Handler                                 out/stm32_it.o
                                                  out/startup_stm32f10x_hd.o
MinCnt                                            out/pwm.o
                                                  out/engine.o
NMI_Handler                                       out/stm32_it.o
                                                  out/startup_stm32f10x_hd.o
NOP_Process                                       out/usb_core.o
                                                  out/usb_prop.o
                                                  out/usb_istr.o
NVIC_Init                                         out/misc.o
                                                  out/hw_config.o
                                                  out/pwm.o
                                                  out/usart.o
NVIC_PriorityGroupConfig                          out/misc.o
                                                  out/hw_config.o
                                                  out/usart.o
NVIC_SetVectorTable                               out/misc.o
NVIC_SystemLPConfig                               out/misc.o
Out0_Process                                      out/usb_core.o
                                                  out/usb_int.o
Output                                            out/engine.o
PMAToUserBufferCopy                               out/usb_mem.o
                                                  out/usb_endp.o
                                                  out/usb_sil.o
                                                  out/usb_core.o
PVD_IRQHandler                                    out/startup_stm32f10x_hd.o
PWMConfig                                         out/pwm.o
                                                  out/main.o
PWMOff                                            out/pwm.o
                                                  out/main.o
PWR_BackupAccessCmd                               out/stm32f10x_pwr.o
PWR_ClearFlag                                     out/stm32f10x_pwr.o
PWR_DeInit                                        out/stm32f10x_pwr.o
PWR_EnterSTANDBYMode                              out/stm32f10x_pwr.o
PWR_EnterSTOPMode                                 out/stm32f10x_pwr.o
PWR_GetFlagStatus                                 out/stm32f10x_pwr.o
PWR_PVDCmd                                        out/stm32f10x_pwr.o
PWR_PVDLevelConfig                                out/stm32f10x_pwr.o
PWR_WakeUpPinCmd                                  out/stm32f10x_pwr.o
PendSV_Handler                                    out/stm32_it.o
                                                  out/startup_stm32f10x_hd.o
Periph_clock_enable                               out/main.o
Post0_Process                                     out/usb_core.o
PowerOff                                          out/usb_pwr.o
PowerOn                                           out/usb_pwr.o
                                                  out/usb_prop.o
PutChar                                           out/comio.o
                                                  out/commhandler.o
RCC_ADCCLKConfig                                  out/stm32f10x_rcc.o
                                                  out/adc.o
RCC_AHBPeriphClockCmd                             out/stm32f10x_rcc.o
                                                  out/main.o
RCC_APB1PeriphClockCmd                            out/stm32f10x_rcc.o
                                                  out/hw_config.o
                                                  out/main.o
RCC_APB1PeriphResetCmd                            out/stm32f10x_rcc.o
                                                  out/stm32f10x_dac.o
                                                  out/stm32f10x_can.o
                                                  out/stm32f10x_pwr.o
                                                  out/stm32f10x_i2c.o
                                                  out/stm32f10x_usart.o
                                                  out/stm32f10x_tim.o
                                                  out/stm32f10x_wwdg.o
                                                  out/stm32f10x_cec.o
                                                  out/stm32f10x_spi.o
RCC_APB2PeriphClockCmd                            out/stm32f10x_rcc.o
                                                  out/hw_config.o
                                                  out/main.o
                                                  out/adc.o
RCC_APB2PeriphResetCmd                            out/stm32f10x_rcc.o
                                                  out/stm32f10x_usart.o
                                                  out/stm32f10x_tim.o
                                                  out/stm32f10x_adc.o
                                                  out/stm32f10x_spi.o
                                                  out/stm32f10x_gpio.o
RCC_AdjustHSICalibrationValue                     out/stm32f10x_rcc.o
RCC_BackupResetCmd                                out/stm32f10x_rcc.o
                                                  out/stm32f10x_bkp.o
RCC_ClearFlag                                     out/stm32f10x_rcc.o
RCC_ClearITPendingBit                             out/stm32f10x_rcc.o
RCC_ClockSecuritySystemCmd                        out/stm32f10x_rcc.o
RCC_DeInit                                        out/stm32f10x_rcc.o
RCC_GetClocksFreq                                 out/stm32f10x_rcc.o
                                                  out/stm32f10x_i2c.o
                                                  out/stm32f10x_usart.o
                                                  out/stm32f10x_spi.o
RCC_GetFlagStatus                                 out/stm32f10x_rcc.o
RCC_GetITStatus                                   out/stm32f10x_rcc.o
RCC_GetSYSCLKSource                               out/stm32f10x_rcc.o
RCC_HCLKConfig                                    out/stm32f10x_rcc.o
RCC_HSEConfig                                     out/stm32f10x_rcc.o
RCC_HSICmd                                        out/stm32f10x_rcc.o
RCC_IRQHandler                                    out/startup_stm32f10x_hd.o
RCC_ITConfig                                      out/stm32f10x_rcc.o
RCC_LSEConfig                                     out/stm32f10x_rcc.o
RCC_LSICmd                                        out/stm32f10x_rcc.o
RCC_MCOConfig                                     out/stm32f10x_rcc.o
RCC_PCLK1Config                                   out/stm32f10x_rcc.o
RCC_PCLK2Config                                   out/stm32f10x_rcc.o
RCC_PLLCmd                                        out/stm32f10x_rcc.o
RCC_PLLConfig                                     out/stm32f10x_rcc.o
RCC_RTCCLKCmd                                     out/stm32f10x_rcc.o
RCC_RTCCLKConfig                                  out/stm32f10x_rcc.o
RCC_SYSCLKConfig                                  out/stm32f10x_rcc.o
RCC_USBCLKConfig                                  out/stm32f10x_rcc.o
                                                  out/hw_config.o
RCC_WaitForHSEStartUp                             out/stm32f10x_rcc.o
RCSmooth                                          out/engine.o
RC_Config                                         out/rc.o
                                                  out/main.o
RTCAlarm_IRQHandler                               out/startup_stm32f10x_hd.o
RTC_ClearFlag                                     out/stm32f10x_rtc.o
RTC_ClearITPendingBit                             out/stm32f10x_rtc.o
RTC_EnterConfigMode                               out/stm32f10x_rtc.o
RTC_ExitConfigMode                                out/stm32f10x_rtc.o
RTC_GetCounter                                    out/stm32f10x_rtc.o
RTC_GetDivider                                    out/stm32f10x_rtc.o
RTC_GetFlagStatus                                 out/stm32f10x_rtc.o
RTC_GetITStatus                                   out/stm32f10x_rtc.o
RTC_IRQHandler                                    out/startup_stm32f10x_hd.o
RTC_ITConfig                                      out/stm32f10x_rtc.o
RTC_SetAlarm                                      out/stm32f10x_rtc.o
RTC_SetCounter                                    out/stm32f10x_rtc.o
RTC_SetPrescaler                                  out/stm32f10x_rtc.o
RTC_WaitForLastTask                               out/stm32f10x_rtc.o
RTC_WaitForSynchro                                out/stm32f10x_rtc.o
Rad2Deg                                           out/utils.o
                                                  out/engine.o
ReadFromEEPROM                                    out/eeprom.o
                                                  out/config.o
Request                                           out/usb_prop.o
Reset_Handler                                     out/startup_stm32f10x_hd.o
Resume                                            out/usb_pwr.o
                                                  out/usb_istr.o
ResumeS                                           out/usb_pwr.o
Resume_Init                                       out/usb_pwr.o
RingBufferFillLevel                               out/ringbuffer.o
                                                  out/usart.o
RingBufferGet                                     out/ringbuffer.o
                                                  out/usart.o
RingBufferInit                                    out/ringbuffer.o
                                                  out/usb.o
                                                  out/usart.o
RingBufferPeek                                    out/ringbuffer.o
                                                  out/usart.o
RingBufferPut                                     out/ringbuffer.o
                                                  out/usart.o
RingBufferPutBlock                                out/ringbuffer.o
                                                  out/usb.o
RingBufferSize                                    out/ringbuffer.o
                                                  out/usb.o
                                                  out/usart.o
RingBufferUSBTX                                   out/usb.o
Round                                             out/utils.o
                                                  out/fasttrig.o
                                                  out/pwm.o
SDIO_CEATAITCmd                                   out/stm32f10x_sdio.o
SDIO_ClearFlag                                    out/stm32f10x_sdio.o
SDIO_ClearITPendingBit                            out/stm32f10x_sdio.o
SDIO_ClockCmd                                     out/stm32f10x_sdio.o
SDIO_CmdStructInit                                out/stm32f10x_sdio.o
SDIO_CommandCompletionCmd                         out/stm32f10x_sdio.o
SDIO_DMACmd                                       out/stm32f10x_sdio.o
SDIO_DataConfig                                   out/stm32f10x_sdio.o
SDIO_DataStructInit                               out/stm32f10x_sdio.o
SDIO_DeInit                                       out/stm32f10x_sdio.o
SDIO_GetCommandResponse                           out/stm32f10x_sdio.o
SDIO_GetDataCounter                               out/stm32f10x_sdio.o
SDIO_GetFIFOCount                                 out/stm32f10x_sdio.o
SDIO_GetFlagStatus                                out/stm32f10x_sdio.o
SDIO_GetITStatus                                  out/stm32f10x_sdio.o
SDIO_GetPowerState                                out/stm32f10x_sdio.o
SDIO_GetResponse                                  out/stm32f10x_sdio.o
SDIO_IRQHandler                                   out/startup_stm32f10x_hd.o
SDIO_ITConfig                                     out/stm32f10x_sdio.o
SDIO_Init                                         out/stm32f10x_sdio.o
SDIO_ReadData                                     out/stm32f10x_sdio.o
SDIO_SendCEATACmd                                 out/stm32f10x_sdio.o
SDIO_SendCommand                                  out/stm32f10x_sdio.o
SDIO_SendSDIOSuspendCmd                           out/stm32f10x_sdio.o
SDIO_SetPowerState                                out/stm32f10x_sdio.o
SDIO_SetSDIOOperation                             out/stm32f10x_sdio.o
SDIO_SetSDIOReadWaitMode                          out/stm32f10x_sdio.o
SDIO_StartSDIOReadWait                            out/stm32f10x_sdio.o
SDIO_StopSDIOReadWait                             out/stm32f10x_sdio.o
SDIO_StructInit                                   out/stm32f10x_sdio.o
SDIO_WriteData                                    out/stm32f10x_sdio.o
SPI1_IRQHandler                                   out/startup_stm32f10x_hd.o
SPI2_IRQHandler                                   out/startup_stm32f10x_hd.o
SPI3_IRQHandler                                   out/startup_stm32f10x_hd.o
SPI_BiDirectionalLineConfig                       out/stm32f10x_spi.o
SPI_CalculateCRC                                  out/stm32f10x_spi.o
SPI_Cmd                                           out/stm32f10x_spi.o
SPI_DataSizeConfig                                out/stm32f10x_spi.o
SPI_GetCRC                                        out/stm32f10x_spi.o
SPI_GetCRCPolynomial                              out/stm32f10x_spi.o
SPI_I2S_ClearFlag                                 out/stm32f10x_spi.o
SPI_I2S_ClearITPendingBit                         out/stm32f10x_spi.o
SPI_I2S_DMACmd                                    out/stm32f10x_spi.o
SPI_I2S_DeInit                                    out/stm32f10x_spi.o
SPI_I2S_GetFlagStatus                             out/stm32f10x_spi.o
SPI_I2S_GetITStatus                               out/stm32f10x_spi.o
SPI_I2S_ITConfig                                  out/stm32f10x_spi.o
SPI_I2S_ReceiveData                               out/stm32f10x_spi.o
SPI_I2S_SendData                                  out/stm32f10x_spi.o
SPI_Init                                          out/stm32f10x_spi.o
SPI_NSSInternalSoftwareConfig                     out/stm32f10x_spi.o
SPI_SSOutputCmd                                   out/stm32f10x_spi.o
SPI_StructInit                                    out/stm32f10x_spi.o
SPI_TransmitCRC                                   out/stm32f10x_spi.o
SVC_Handler                                       out/stm32_it.o
                                                  out/startup_stm32f10x_hd.o
SaveRState                                        out/usb_core.o
                                                  out/usb_int.o
SaveState                                         out/usb_init.o
SaveTState                                        out/usb_core.o
                                                  out/usb_int.o
SetBTABLE                                         out/usb_regs.o
                                                  out/usb_prop.o
SetCNTR                                           out/usb_regs.o
SetDADDR                                          out/usb_regs.o
SetDeviceAddress                                  out/usb_core.o
                                                  out/usb_prop.o
SetDouBleBuffEPStall                              out/usb_regs.o
SetENDPOINT                                       out/usb_regs.o
SetEPAddress                                      out/usb_regs.o
SetEPCountRxReg                                   out/usb_regs.o
SetEPDblBuf0Addr                                  out/usb_regs.o
SetEPDblBuf0Count                                 out/usb_regs.o
SetEPDblBuf1Addr                                  out/usb_regs.o
SetEPDblBuf1Count                                 out/usb_regs.o
SetEPDblBuffAddr                                  out/usb_regs.o
SetEPDblBuffCount                                 out/usb_regs.o
SetEPDoubleBuff                                   out/usb_regs.o
SetEPRxAddr                                       out/usb_regs.o
                                                  out/usb_prop.o
SetEPRxCount                                      out/usb_regs.o
                                                  out/usb_prop.o
                                                  out/hw_config.o
                                                  out/usb_core.o
SetEPRxStatus                                     out/usb_regs.o
                                                  out/usb_prop.o
                                                  out/hw_config.o
SetEPRxValid                                      out/usb_regs.o
                                                  out/usb_prop.o
SetEPTxAddr                                       out/usb_regs.o
                                                  out/usb_prop.o
SetEPTxCount                                      out/usb_regs.o
                                                  out/hw_config.o
                                                  out/usb_sil.o
                                                  out/usb_core.o
SetEPTxStatus                                     out/usb_regs.o
                                                  out/usb_prop.o
                                                  out/usb_core.o
SetEPTxValid                                      out/usb_regs.o
                                                  out/hw_config.o
SetEPType                                         out/usb_regs.o
                                                  out/usb_prop.o
SetEP_KIND                                        out/usb_regs.o
SetISTR                                           out/usb_regs.o
SetPWM                                            out/pwm.o
SetPWMData                                        out/pwm.o
SetPWMFastTable                                   out/pwm.o
SetPWMOrg                                         out/pwm.o
SetPWMOrgFaster                                   out/pwm.o
SetPitchMotor                                     out/pwm.o
                                                  out/engine.o
SetRollMotor                                      out/pwm.o
                                                  out/engine.o
SetVCPConnectMode                                 out/hw_config.o
                                                  out/usb_prop.o
SetYawMotor                                       out/pwm.o
                                                  out/engine.o
Set_Status_Out                                    out/usb_regs.o
Set_System                                        out/hw_config.o
                                                  out/usb.o
Set_USBClock                                      out/hw_config.o
                                                  out/usb.o
Setup0_Process                                    out/usb_core.o
                                                  out/usb_int.o
Standard_ClearFeature                             out/usb_core.o
Standard_GetConfiguration                         out/usb_core.o
Standard_GetDescriptorData                        out/usb_core.o
                                                  out/usb_prop.o
Standard_GetInterface                             out/usb_core.o
Standard_GetStatus                                out/usb_core.o
Standard_SetConfiguration                         out/usb_core.o
Standard_SetDeviceFeature                         out/usb_core.o
Standard_SetEndPointFeature                       out/usb_core.o
Standard_SetInterface                             out/usb_core.o
StatusInfo                                        out/usb_core.o
Step                                              out/engine.o
StopWatchInit                                     out/stopwatch.o
                                                  out/engine.o
StopWatchLap                                      out/stopwatch.o
                                                  out/engine.o
StopWatchNow                                      out/stopwatch.o
StopWatchTotal                                    out/stopwatch.o
                                                  out/engine.o
String_Descriptor                                 out/usb_prop.o
Suspend                                           out/usb_pwr.o
SysTickAttachCallback                             out/systick.o
                                                  out/main.o
SysTick_CLKSourceConfig                           out/misc.o
SysTick_Handler                                   out/systick.o
                                                  out/startup_stm32f10x_hd.o
SystemCoreClock                                   out/system_stm32f10x.o
                                                  out/main.o
                                                  out/systick.o
SystemCoreClockUpdate                             out/system_stm32f10x.o
SystemInit                                        out/system_stm32f10x.o
                                                  out/hw_config.o
                                                  out/startup_stm32f10x_hd.o
TAMPER_IRQHandler                                 out/startup_stm32f10x_hd.o
TIM1_BRK_IRQHandler                               out/startup_stm32f10x_hd.o
TIM1_CC_IRQHandler                                out/startup_stm32f10x_hd.o
TIM1_TRG_COM_IRQHandler                           out/startup_stm32f10x_hd.o
TIM1_UP_IRQHandler                                out/pwm.o
                                                  out/startup_stm32f10x_hd.o
TIM2_IRQHandler                                   out/startup_stm32f10x_hd.o
TIM3_IRQHandler                                   out/startup_stm32f10x_hd.o
TIM4_IRQHandler                                   out/startup_stm32f10x_hd.o
TIM5_IRQHandler                                   out/pwm.o
                                                  out/startup_stm32f10x_hd.o
TIM6_IRQHandler                                   out/startup_stm32f10x_hd.o
TIM7_IRQHandler                                   out/startup_stm32f10x_hd.o
TIM8_BRK_IRQHandler                               out/startup_stm32f10x_hd.o
TIM8_CC_IRQHandler                                out/startup_stm32f10x_hd.o
TIM8_TRG_COM_IRQHandler                           out/startup_stm32f10x_hd.o
TIM8_UP_IRQHandler                                out/pwm.o
                                                  out/startup_stm32f10x_hd.o
TIM_ARRPreloadConfig                              out/stm32f10x_tim.o
TIM_BDTRConfig                                    out/stm32f10x_tim.o
                                                  out/pwm.o
TIM_BDTRStructInit                                out/stm32f10x_tim.o
TIM_CCPreloadControl                              out/stm32f10x_tim.o
TIM_CCxCmd                                        out/stm32f10x_tim.o
TIM_CCxNCmd                                       out/stm32f10x_tim.o
TIM_ClearFlag                                     out/stm32f10x_tim.o
TIM_ClearITPendingBit                             out/stm32f10x_tim.o
TIM_ClearOC1Ref                                   out/stm32f10x_tim.o
TIM_ClearOC2Ref                                   out/stm32f10x_tim.o
TIM_ClearOC3Ref                                   out/stm32f10x_tim.o
TIM_ClearOC4Ref                                   out/stm32f10x_tim.o
TIM_Cmd                                           out/stm32f10x_tim.o
                                                  out/rc.o
TIM_CounterModeConfig                             out/stm32f10x_tim.o
TIM_CtrlPWMOutputs                                out/stm32f10x_tim.o
                                                  out/pwm.o
TIM_DMACmd                                        out/stm32f10x_tim.o
TIM_DMAConfig                                     out/stm32f10x_tim.o
TIM_DeInit                                        out/stm32f10x_tim.o
TIM_ETRClockMode1Config                           out/stm32f10x_tim.o
TIM_ETRClockMode2Config                           out/stm32f10x_tim.o
TIM_ETRConfig                                     out/stm32f10x_tim.o
TIM_EncoderInterfaceConfig                        out/stm32f10x_tim.o
TIM_ForcedOC1Config                               out/stm32f10x_tim.o
TIM_ForcedOC2Config                               out/stm32f10x_tim.o
TIM_ForcedOC3Config                               out/stm32f10x_tim.o
TIM_ForcedOC4Config                               out/stm32f10x_tim.o
TIM_GenerateEvent                                 out/stm32f10x_tim.o
TIM_GetCapture1                                   out/stm32f10x_tim.o
TIM_GetCapture2                                   out/stm32f10x_tim.o
TIM_GetCapture3                                   out/stm32f10x_tim.o
TIM_GetCapture4                                   out/stm32f10x_tim.o
TIM_GetCounter                                    out/stm32f10x_tim.o
TIM_GetFlagStatus                                 out/stm32f10x_tim.o
TIM_GetITStatus                                   out/stm32f10x_tim.o
TIM_GetPrescaler                                  out/stm32f10x_tim.o
TIM_ICInit                                        out/stm32f10x_tim.o
TIM_ICStructInit                                  out/stm32f10x_tim.o
TIM_ITConfig                                      out/stm32f10x_tim.o
TIM_ITRxExternalClockConfig                       out/stm32f10x_tim.o
TIM_InternalClockConfig                           out/stm32f10x_tim.o
TIM_OC1FastConfig                                 out/stm32f10x_tim.o
TIM_OC1Init                                       out/stm32f10x_tim.o
                                                  out/pwm.o
TIM_OC1NPolarityConfig                            out/stm32f10x_tim.o
TIM_OC1PolarityConfig                             out/stm32f10x_tim.o
TIM_OC1PreloadConfig                              out/stm32f10x_tim.o
                                                  out/pwm.o
TIM_OC2FastConfig                                 out/stm32f10x_tim.o
TIM_OC2Init                                       out/stm32f10x_tim.o
                                                  out/pwm.o
TIM_OC2NPolarityConfig                            out/stm32f10x_tim.o
TIM_OC2PolarityConfig                             out/stm32f10x_tim.o
TIM_OC2PreloadConfig                              out/stm32f10x_tim.o
                                                  out/pwm.o
TIM_OC3FastConfig                                 out/stm32f10x_tim.o
TIM_OC3Init                                       out/stm32f10x_tim.o
                                                  out/pwm.o
TIM_OC3NPolarityConfig                            out/stm32f10x_tim.o
TIM_OC3PolarityConfig                             out/stm32f10x_tim.o
TIM_OC3PreloadConfig                              out/stm32f10x_tim.o
                                                  out/pwm.o
TIM_OC4FastConfig                                 out/stm32f10x_tim.o
TIM_OC4Init                                       out/stm32f10x_tim.o
TIM_OC4PolarityConfig                             out/stm32f10x_tim.o
TIM_OC4PreloadConfig                              out/stm32f10x_tim.o
TIM_OCStructInit                                  out/stm32f10x_tim.o
TIM_PWMIConfig                                    out/stm32f10x_tim.o
TIM_PrescalerConfig                               out/stm32f10x_tim.o
TIM_SelectCCDMA                                   out/stm32f10x_tim.o
TIM_SelectCOM                                     out/stm32f10x_tim.o
TIM_SelectHallSensor                              out/stm32f10x_tim.o
TIM_SelectInputTrigger                            out/stm32f10x_tim.o
TIM_SelectMasterSlaveMode                         out/stm32f10x_tim.o
TIM_SelectOCxM                                    out/stm32f10x_tim.o
TIM_SelectOnePulseMode                            out/stm32f10x_tim.o
TIM_SelectOutputTrigger                           out/stm32f10x_tim.o
TIM_SelectSlaveMode                               out/stm32f10x_tim.o
TIM_SetAutoreload                                 out/stm32f10x_tim.o
TIM_SetClockDivision                              out/stm32f10x_tim.o
TIM_SetCompare1                                   out/stm32f10x_tim.o
TIM_SetCompare2                                   out/stm32f10x_tim.o
TIM_SetCompare3                                   out/stm32f10x_tim.o
TIM_SetCompare4                                   out/stm32f10x_tim.o
TIM_SetCounter                                    out/stm32f10x_tim.o
TIM_SetIC1Prescaler                               out/stm32f10x_tim.o
TIM_SetIC2Prescaler                               out/stm32f10x_tim.o
TIM_SetIC3Prescaler                               out/stm32f10x_tim.o
TIM_SetIC4Prescaler                               out/stm32f10x_tim.o
TIM_TIxExternalClockConfig                        out/stm32f10x_tim.o
TIM_TimeBaseInit                                  out/stm32f10x_tim.o
                                                  out/rc.o
                                                  out/pwm.o
TIM_TimeBaseStructInit                            out/stm32f10x_tim.o
TIM_UpdateDisableConfig                           out/stm32f10x_tim.o
TIM_UpdateRequestConfig                           out/stm32f10x_tim.o
Timer3_Config                                     out/rc.o
ToWord                                            out/usb_regs.o
ToggleDTOG_RX                                     out/usb_regs.o
ToggleDTOG_TX                                     out/usb_regs.o
UART4EnableTxInterrupt                            out/usart.o
UART4_IRQHandler                                  out/usart.o
                                                  out/startup_stm32f10x_hd.o
UART5_IRQHandler                                  out/startup_stm32f10x_hd.o
USART1_IRQHandler                                 out/startup_stm32f10x_hd.o
USART2_IRQHandler                                 out/startup_stm32f10x_hd.o
USART3_IRQHandler                                 out/startup_stm32f10x_hd.o
USART_Available                                   out/usart.o
                                                  out/comio.o
USART_ClearFlag                                   out/stm32f10x_usart.o
USART_ClearITPendingBit                           out/stm32f10x_usart.o
USART_ClockInit                                   out/stm32f10x_usart.o
                                                  out/usart.o
USART_ClockStructInit                             out/stm32f10x_usart.o
                                                  out/usart.o
USART_Cmd                                         out/stm32f10x_usart.o
                                                  out/usart.o
USART_DMACmd                                      out/stm32f10x_usart.o
USART_DeInit                                      out/stm32f10x_usart.o
USART_Flush                                       out/usart.o
                                                  out/comio.o
USART_GetChar                                     out/usart.o
                                                  out/comio.o
USART_GetFlagStatus                               out/stm32f10x_usart.o
USART_GetITStatus                                 out/stm32f10x_usart.o
USART_HalfDuplexCmd                               out/stm32f10x_usart.o
USART_ITConfig                                    out/stm32f10x_usart.o
                                                  out/usart.o
USART_Init                                        out/stm32f10x_usart.o
                                                  out/usart.o
USART_IrDACmd                                     out/stm32f10x_usart.o
USART_IrDAConfig                                  out/stm32f10x_usart.o
USART_LINBreakDetectLengthConfig                  out/stm32f10x_usart.o
USART_LINCmd                                      out/stm32f10x_usart.o
USART_OneBitMethodCmd                             out/stm32f10x_usart.o
USART_OverSampling8Cmd                            out/stm32f10x_usart.o
USART_Peek                                        out/usart.o
USART_PutChar                                     out/usart.o
                                                  out/comio.o
USART_PutCharDirect                               out/usart.o
USART_PutString                                   out/usart.o
                                                  out/comio.o
USART_PutStringDirect                             out/usart.o
                                                  out/comio.o
USART_ReceiveData                                 out/stm32f10x_usart.o
USART_ReceiverWakeUpCmd                           out/stm32f10x_usart.o
USART_SendBreak                                   out/stm32f10x_usart.o
USART_SendData                                    out/stm32f10x_usart.o
USART_SetAddress                                  out/stm32f10x_usart.o
USART_SetGuardTime                                out/stm32f10x_usart.o
USART_SetPrescaler                                out/stm32f10x_usart.o
USART_SmartCardCmd                                out/stm32f10x_usart.o
USART_SmartCardNACKCmd                            out/stm32f10x_usart.o
USART_StructInit                                  out/stm32f10x_usart.o
USART_WakeUpConfig                                out/stm32f10x_usart.o
USBPushTX                                         out/usb.o
USBPushTXData                                     out/usb.o
USBWakeUp_IRQHandler                              out/stm32_it.o
                                                  out/startup_stm32f10x_hd.o
USB_Cable_Config                                  out/hw_config.o
                                                  out/usb_pwr.o
USB_HP_CAN1_TX_IRQHandler                         out/startup_stm32f10x_hd.o
USB_Init                                          out/usb_init.o
                                                  out/usb.o
USB_Interrupts_Config                             out/hw_config.o
                                                  out/usb.o
USB_Istr                                          out/usb_istr.o
                                                  out/stm32_it.o
USB_LP_CAN1_RX0_IRQHandler                        out/stm32_it.o
                                                  out/startup_stm32f10x_hd.o
USB_SIL_Init                                      out/usb_sil.o
                                                  out/usb_prop.o
USB_SIL_Read                                      out/usb_sil.o
USB_SIL_Write                                     out/usb_sil.o
UnGetChar                                         out/comio.o
                                                  out/commhandler.o
UsageFault_Handler                                out/stm32_it.o
                                                  out/startup_stm32f10x_hd.o
Usart4Init                                        out/usart.o
                                                  out/comio.o
UserToPMABufferCopy                               out/usb_mem.o
                                                  out/hw_config.o
                                                  out/usb_sil.o
                                                  out/usb_core.o
User_Standard_Requests                            out/usb_prop.o
                                                  out/usb_init.o
Virtual_Com_Port_ConfigDescriptor                 out/usb_desc.o
                                                  out/usb_prop.o
Virtual_Com_Port_Data_Setup                       out/usb_prop.o
Virtual_Com_Port_DeviceDescriptor                 out/usb_desc.o
                                                  out/usb_prop.o
Virtual_Com_Port_GetConfigDescriptor              out/usb_prop.o
Virtual_Com_Port_GetDeviceDescriptor              out/usb_prop.o
Virtual_Com_Port_GetLineCoding                    out/usb_prop.o
Virtual_Com_Port_GetStringDescriptor              out/usb_prop.o
Virtual_Com_Port_Get_Interface_Setting            out/usb_prop.o
Virtual_Com_Port_NoData_Setup                     out/usb_prop.o
Virtual_Com_Port_Reset                            out/usb_prop.o
Virtual_Com_Port_SetConfiguration                 out/usb_prop.o
Virtual_Com_Port_SetDeviceAddress                 out/usb_prop.o
Virtual_Com_Port_SetLineCoding                    out/usb_prop.o
Virtual_Com_Port_Status_In                        out/usb_prop.o
Virtual_Com_Port_Status_Out                       out/usb_prop.o
Virtual_Com_Port_StringLangID                     out/usb_desc.o
                                                  out/usb_prop.o
Virtual_Com_Port_StringProduct                    out/usb_desc.o
                                                  out/usb_prop.o
Virtual_Com_Port_StringSerial                     out/usb_desc.o
                                                  out/usb_prop.o
                                                  out/hw_config.o
Virtual_Com_Port_StringVendor                     out/usb_desc.o
                                                  out/usb_prop.o
Virtual_Com_Port_init                             out/usb_prop.o
WWDG_ClearFlag                                    out/stm32f10x_wwdg.o
WWDG_DeInit                                       out/stm32f10x_wwdg.o
WWDG_Enable                                       out/stm32f10x_wwdg.o
WWDG_EnableIT                                     out/stm32f10x_wwdg.o
WWDG_GetFlagStatus                                out/stm32f10x_wwdg.o
WWDG_IRQHandler                                   out/startup_stm32f10x_hd.o
WWDG_SetCounter                                   out/stm32f10x_wwdg.o
WWDG_SetPrescaler                                 out/stm32f10x_wwdg.o
WWDG_SetWindowValue                               out/stm32f10x_wwdg.o
WatchDog                                          out/main.o
WriteToEEPROM                                     out/eeprom.o
                                                  out/config.o
_Balloc                                           c:/program files (x86)/gnu tools arm embedded/4.8 2014q2/bin/../lib/gcc/arm-none-eabi/4.8.4/../../../../arm-none-eabi/lib/armv7-m\libc.a(lib_a-mprec.o)
                                                  c:/program files (x86)/gnu tools arm embedded/4.8 2014q2/bin/../lib/gcc/arm-none-eabi/4.8.4/../../../../arm-none-eabi/lib/armv7-m\libc.a(lib_a-dtoa.o)
_Bfree                                            c:/program files (x86)/gnu tools arm embedded/4.8 2014q2/bin/../lib/gcc/arm-none-eabi/4.8.4/../../../../arm-none-eabi/lib/armv7-m\libc.a(lib_a-mprec.o)
                                                  c:/program files (x86)/gnu tools arm embedded/4.8 2014q2/bin/../lib/gcc/arm-none-eabi/4.8.4/../../../../arm-none-eabi/lib/armv7-m\libc.a(lib_a-dtoa.o)
_PathLocale                                       c:/program files (x86)/gnu tools arm embedded/4.8 2014q2/bin/../lib/gcc/arm-none-eabi/4.8.4/../../../../arm-none-eabi/lib/armv7-m\libc.a(lib_a-locale.o)
__adddf3                                          c:/program files (x86)/gnu tools arm embedded/4.8 2014q2/bin/../lib/gcc/arm-none-eabi/4.8.4/armv7-m\libgcc.a(_arm_addsubdf3.o)
__addsf3                                          c:/program files (x86)/gnu tools arm embedded/4.8 2014q2/bin/../lib/gcc/arm-none-eabi/4.8.4/armv7-m\libgcc.a(_arm_addsubsf3.o)
__aeabi_cdcmpeq                                   c:/program files (x86)/gnu tools arm embedded/4.8 2014q2/bin/../lib/gcc/arm-none-eabi/4.8.4/armv7-m\libgcc.a(_arm_cmpdf2.o)
__aeabi_cdcmple                                   c:/program files (x86)/gnu tools arm embedded/4.8 2014q2/bin/../lib/gcc/arm-none-eabi/4.8.4/armv7-m\libgcc.a(_arm_cmpdf2.o)
__aeabi_cdrcmple                                  c:/program files (x86)/gnu tools arm embedded/4.8 2014q2/bin/../lib/gcc/arm-none-eabi/4.8.4/armv7-m\libgcc.a(_arm_cmpdf2.o)
__aeabi_cfcmpeq                                   c:/program files (x86)/gnu tools arm embedded/4.8 2014q2/bin/../lib/gcc/arm-none-eabi/4.8.4/armv7-m\libgcc.a(_arm_cmpsf2.o)
__aeabi_cfcmple                                   c:/program files (x86)/gnu tools arm embedded/4.8 2014q2/bin/../lib/gcc/arm-none-eabi/4.8.4/armv7-m\libgcc.a(_arm_cmpsf2.o)
__aeabi_cfrcmple                                  c:/program files (x86)/gnu tools arm embedded/4.8 2014q2/bin/../lib/gcc/arm-none-eabi/4.8.4/armv7-m\libgcc.a(_arm_cmpsf2.o)
__aeabi_d2f                                       c:/program files (x86)/gnu tools arm embedded/4.8 2014q2/bin/../lib/gcc/arm-none-eabi/4.8.4/armv7-m\libgcc.a(_arm_truncdfsf2.o)
                                                  c:/program files (x86)/gnu tools arm embedded/4.8 2014q2/bin/../lib/gcc/arm-none-eabi/4.8.4/../../../../arm-none-eabi/lib/armv7-m\libm.a(lib_a-wf_sqrt.o)
                                                  c:/program files (x86)/gnu tools arm embedded/4.8 2014q2/bin/../lib/gcc/arm-none-eabi/4.8.4/../../../../arm-none-eabi/lib/armv7-m\libm.a(lib_a-wf_fmod.o)
__aeabi_d2iz                                      c:/program files (x86)/gnu tools arm embedded/4.8 2014q2/bin/../lib/gcc/arm-none-eabi/4.8.4/armv7-m\libgcc.a(_arm_fixdfsi.o)
                                                  c:/program files (x86)/gnu tools arm embedded/4.8 2014q2/bin/../lib/gcc/arm-none-eabi/4.8.4/../../../../arm-none-eabi/lib/armv7-m\libc.a(lib_a-dtoa.o)
                                                  c:/program files (x86)/gnu tools arm embedded/4.8 2014q2/bin/../lib/gcc/arm-none-eabi/4.8.4/../../../../arm-none-eabi/lib/armv7-m\libm.a(lib_a-k_sin.o)
                                                  c:/program files (x86)/gnu tools arm embedded/4.8 2014q2/bin/../lib/gcc/arm-none-eabi/4.8.4/../../../../arm-none-eabi/lib/armv7-m\libm.a(lib_a-k_rem_pio2.o)
                                                  c:/program files (x86)/gnu tools arm embedded/4.8 2014q2/bin/../lib/gcc/arm-none-eabi/4.8.4/../../../../arm-none-eabi/lib/armv7-m\libm.a(lib_a-k_cos.o)
                                                  c:/program files (x86)/gnu tools arm embedded/4.8 2014q2/bin/../lib/gcc/arm-none-eabi/4.8.4/../../../../arm-none-eabi/lib/armv7-m\libm.a(lib_a-e_rem_pio2.o)
                                                  out/pwm.o
__aeabi_dadd                                      c:/program files (x86)/gnu tools arm embedded/4.8 2014q2/bin/../lib/gcc/arm-none-eabi/4.8.4/armv7-m\libgcc.a(_arm_addsubdf3.o)
                                                  c:/program files (x86)/gnu tools arm embedded/4.8 2014q2/bin/../lib/gcc/arm-none-eabi/4.8.4/../../../../arm-none-eabi/lib/armv7-m\libc.a(lib_a-dtoa.o)
                                                  c:/program files (x86)/gnu tools arm embedded/4.8 2014q2/bin/../lib/gcc/arm-none-eabi/4.8.4/../../../../arm-none-eabi/lib/armv7-m\libm.a(lib_a-s_scalbn.o)
                                                  c:/program files (x86)/gnu tools arm embedded/4.8 2014q2/bin/../lib/gcc/arm-none-eabi/4.8.4/../../../../arm-none-eabi/lib/armv7-m\libm.a(lib_a-s_floor.o)
                                                  c:/program files (x86)/gnu tools arm embedded/4.8 2014q2/bin/../lib/gcc/arm-none-eabi/4.8.4/../../../../arm-none-eabi/lib/armv7-m\libm.a(lib_a-k_sin.o)
                                                  c:/program files (x86)/gnu tools arm embedded/4.8 2014q2/bin/../lib/gcc/arm-none-eabi/4.8.4/../../../../arm-none-eabi/lib/armv7-m\libm.a(lib_a-k_rem_pio2.o)
                                                  c:/program files (x86)/gnu tools arm embedded/4.8 2014q2/bin/../lib/gcc/arm-none-eabi/4.8.4/../../../../arm-none-eabi/lib/armv7-m\libm.a(lib_a-k_cos.o)
                                                  c:/program files (x86)/gnu tools arm embedded/4.8 2014q2/bin/../lib/gcc/arm-none-eabi/4.8.4/../../../../arm-none-eabi/lib/armv7-m\libm.a(lib_a-e_rem_pio2.o)
                                                  out/pwm.o
__aeabi_dcmpeq                                    c:/program files (x86)/gnu tools arm embedded/4.8 2014q2/bin/../lib/gcc/arm-none-eabi/4.8.4/armv7-m\libgcc.a(_arm_cmpdf2.o)
                                                  c:/program files (x86)/gnu tools arm embedded/4.8 2014q2/bin/../lib/gcc/arm-none-eabi/4.8.4/../../../../arm-none-eabi/lib/armv7-m\libc.a(lib_a-dtoa.o)
                                                  c:/program files (x86)/gnu tools arm embedded/4.8 2014q2/bin/../lib/gcc/arm-none-eabi/4.8.4/../../../../arm-none-eabi/lib/armv7-m\libc.a(lib_a-svfprintf.o)
                                                  c:/program files (x86)/gnu tools arm embedded/4.8 2014q2/bin/../lib/gcc/arm-none-eabi/4.8.4/../../../../arm-none-eabi/lib/armv7-m\libm.a(lib_a-k_rem_pio2.o)
                                                  c:/program files (x86)/gnu tools arm embedded/4.8 2014q2/bin/../lib/gcc/arm-none-eabi/4.8.4/../../../../arm-none-eabi/lib/armv7-m\libm.a(lib_a-e_rem_pio2.o)
__aeabi_dcmpge                                    c:/program files (x86)/gnu tools arm embedded/4.8 2014q2/bin/../lib/gcc/arm-none-eabi/4.8.4/armv7-m\libgcc.a(_arm_cmpdf2.o)
                                                  c:/program files (x86)/gnu tools arm embedded/4.8 2014q2/bin/../lib/gcc/arm-none-eabi/4.8.4/../../../../arm-none-eabi/lib/armv7-m\libc.a(lib_a-dtoa.o)
                                                  c:/program files (x86)/gnu tools arm embedded/4.8 2014q2/bin/../lib/gcc/arm-none-eabi/4.8.4/../../../../arm-none-eabi/lib/armv7-m\libm.a(lib_a-k_rem_pio2.o)
__aeabi_dcmpgt                                    c:/program files (x86)/gnu tools arm embedded/4.8 2014q2/bin/../lib/gcc/arm-none-eabi/4.8.4/armv7-m\libgcc.a(_arm_cmpdf2.o)
                                                  c:/program files (x86)/gnu tools arm embedded/4.8 2014q2/bin/../lib/gcc/arm-none-eabi/4.8.4/../../../../arm-none-eabi/lib/armv7-m\libc.a(lib_a-dtoa.o)
                                                  c:/program files (x86)/gnu tools arm embedded/4.8 2014q2/bin/../lib/gcc/arm-none-eabi/4.8.4/../../../../arm-none-eabi/lib/armv7-m\libm.a(lib_a-s_floor.o)
__aeabi_dcmple                                    c:/program files (x86)/gnu tools arm embedded/4.8 2014q2/bin/../lib/gcc/arm-none-eabi/4.8.4/armv7-m\libgcc.a(_arm_cmpdf2.o)
__aeabi_dcmplt                                    c:/program files (x86)/gnu tools arm embedded/4.8 2014q2/bin/../lib/gcc/arm-none-eabi/4.8.4/armv7-m\libgcc.a(_arm_cmpdf2.o)
                                                  c:/program files (x86)/gnu tools arm embedded/4.8 2014q2/bin/../lib/gcc/arm-none-eabi/4.8.4/../../../../arm-none-eabi/lib/armv7-m\libc.a(lib_a-dtoa.o)
                                                  c:/program files (x86)/gnu tools arm embedded/4.8 2014q2/bin/../lib/gcc/arm-none-eabi/4.8.4/../../../../arm-none-eabi/lib/armv7-m\libc.a(lib_a-svfprintf.o)
__aeabi_ddiv                                      c:/program files (x86)/gnu tools arm embedded/4.8 2014q2/bin/../lib/gcc/arm-none-eabi/4.8.4/armv7-m\libgcc.a(_arm_muldivdf3.o)
                                                  c:/program files (x86)/gnu tools arm embedded/4.8 2014q2/bin/../lib/gcc/arm-none-eabi/4.8.4/../../../../arm-none-eabi/lib/armv7-m\libc.a(lib_a-mprec.o)
                                                  c:/program files (x86)/gnu tools arm embedded/4.8 2014q2/bin/../lib/gcc/arm-none-eabi/4.8.4/../../../../arm-none-eabi/lib/armv7-m\libc.a(lib_a-dtoa.o)
                                                  c:/program files (x86)/gnu tools arm embedded/4.8 2014q2/bin/../lib/gcc/arm-none-eabi/4.8.4/../../../../arm-none-eabi/lib/armv7-m\libm.a(lib_a-wf_sqrt.o)
                                                  c:/program files (x86)/gnu tools arm embedded/4.8 2014q2/bin/../lib/gcc/arm-none-eabi/4.8.4/../../../../arm-none-eabi/lib/armv7-m\libm.a(lib_a-wf_fmod.o)
__aeabi_dmul                                      c:/program files (x86)/gnu tools arm embedded/4.8 2014q2/bin/../lib/gcc/arm-none-eabi/4.8.4/armv7-m\libgcc.a(_arm_muldivdf3.o)
                                                  c:/program files (x86)/gnu tools arm embedded/4.8 2014q2/bin/../lib/gcc/arm-none-eabi/4.8.4/../../../../arm-none-eabi/lib/armv7-m\libc.a(lib_a-mprec.o)
                                                  c:/program files (x86)/gnu tools arm embedded/4.8 2014q2/bin/../lib/gcc/arm-none-eabi/4.8.4/../../../../arm-none-eabi/lib/armv7-m\libc.a(lib_a-dtoa.o)
                                                  c:/program files (x86)/gnu tools arm embedded/4.8 2014q2/bin/../lib/gcc/arm-none-eabi/4.8.4/../../../../arm-none-eabi/lib/armv7-m\libm.a(lib_a-s_scalbn.o)
                                                  c:/program files (x86)/gnu tools arm embedded/4.8 2014q2/bin/../lib/gcc/arm-none-eabi/4.8.4/../../../../arm-none-eabi/lib/armv7-m\libm.a(lib_a-k_sin.o)
                                                  c:/program files (x86)/gnu tools arm embedded/4.8 2014q2/bin/../lib/gcc/arm-none-eabi/4.8.4/../../../../arm-none-eabi/lib/armv7-m\libm.a(lib_a-k_rem_pio2.o)
                                                  c:/program files (x86)/gnu tools arm embedded/4.8 2014q2/bin/../lib/gcc/arm-none-eabi/4.8.4/../../../../arm-none-eabi/lib/armv7-m\libm.a(lib_a-k_cos.o)
                                                  c:/program files (x86)/gnu tools arm embedded/4.8 2014q2/bin/../lib/gcc/arm-none-eabi/4.8.4/../../../../arm-none-eabi/lib/armv7-m\libm.a(lib_a-e_rem_pio2.o)
                                                  out/pwm.o
__aeabi_drsub                                     c:/program files (x86)/gnu tools arm embedded/4.8 2014q2/bin/../lib/gcc/arm-none-eabi/4.8.4/armv7-m\libgcc.a(_arm_addsubdf3.o)
__aeabi_dsub                                      c:/program files (x86)/gnu tools arm embedded/4.8 2014q2/bin/../lib/gcc/arm-none-eabi/4.8.4/armv7-m\libgcc.a(_arm_addsubdf3.o)
                                                  c:/program files (x86)/gnu tools arm embedded/4.8 2014q2/bin/../lib/gcc/arm-none-eabi/4.8.4/../../../../arm-none-eabi/lib/armv7-m\libc.a(lib_a-dtoa.o)
                                                  c:/program files (x86)/gnu tools arm embedded/4.8 2014q2/bin/../lib/gcc/arm-none-eabi/4.8.4/../../../../arm-none-eabi/lib/armv7-m\libm.a(lib_a-k_sin.o)
                                                  c:/program files (x86)/gnu tools arm embedded/4.8 2014q2/bin/../lib/gcc/arm-none-eabi/4.8.4/../../../../arm-none-eabi/lib/armv7-m\libm.a(lib_a-k_rem_pio2.o)
                                                  c:/program files (x86)/gnu tools arm embedded/4.8 2014q2/bin/../lib/gcc/arm-none-eabi/4.8.4/../../../../arm-none-eabi/lib/armv7-m\libm.a(lib_a-k_cos.o)
                                                  c:/program files (x86)/gnu tools arm embedded/4.8 2014q2/bin/../lib/gcc/arm-none-eabi/4.8.4/../../../../arm-none-eabi/lib/armv7-m\libm.a(lib_a-e_rem_pio2.o)
                                                  c:/program files (x86)/gnu tools arm embedded/4.8 2014q2/bin/../lib/gcc/arm-none-eabi/4.8.4/../../../../arm-none-eabi/lib/armv7-m\libm.a(lib_a-s_sin.o)
__aeabi_f2d                                       c:/program files (x86)/gnu tools arm embedded/4.8 2014q2/bin/../lib/gcc/arm-none-eabi/4.8.4/armv7-m\libgcc.a(_arm_addsubdf3.o)
                                                  c:/program files (x86)/gnu tools arm embedded/4.8 2014q2/bin/../lib/gcc/arm-none-eabi/4.8.4/../../../../arm-none-eabi/lib/armv7-m\libm.a(lib_a-wf_sqrt.o)
                                                  c:/program files (x86)/gnu tools arm embedded/4.8 2014q2/bin/../lib/gcc/arm-none-eabi/4.8.4/../../../../arm-none-eabi/lib/armv7-m\libm.a(lib_a-wf_fmod.o)
                                                  out/pwm.o
                                                  out/commhandler.o
                                                  out/engine.o
__aeabi_f2iz                                      c:/program files (x86)/gnu tools arm embedded/4.8 2014q2/bin/../lib/gcc/arm-none-eabi/4.8.4/armv7-m\libgcc.a(_arm_fixsfsi.o)
                                                  c:/program files (x86)/gnu tools arm embedded/4.8 2014q2/bin/../lib/gcc/arm-none-eabi/4.8.4/../../../../arm-none-eabi/lib/armv7-m\libm.a(lib_a-kf_sin.o)
                                                  c:/program files (x86)/gnu tools arm embedded/4.8 2014q2/bin/../lib/gcc/arm-none-eabi/4.8.4/../../../../arm-none-eabi/lib/armv7-m\libm.a(lib_a-kf_rem_pio2.o)
                                                  c:/program files (x86)/gnu tools arm embedded/4.8 2014q2/bin/../lib/gcc/arm-none-eabi/4.8.4/../../../../arm-none-eabi/lib/armv7-m\libm.a(lib_a-kf_cos.o)
                                                  c:/program files (x86)/gnu tools arm embedded/4.8 2014q2/bin/../lib/gcc/arm-none-eabi/4.8.4/../../../../arm-none-eabi/lib/armv7-m\libm.a(lib_a-ef_rem_pio2.o)
                                                  out/fasttrig.o
                                                  out/pwm.o
__aeabi_fadd                                      c:/program files (x86)/gnu tools arm embedded/4.8 2014q2/bin/../lib/gcc/arm-none-eabi/4.8.4/armv7-m\libgcc.a(_arm_addsubsf3.o)
                                                  c:/program files (x86)/gnu tools arm embedded/4.8 2014q2/bin/../lib/gcc/arm-none-eabi/4.8.4/../../../../arm-none-eabi/lib/armv7-m\libm.a(lib_a-sf_scalbn.o)
                                                  c:/program files (x86)/gnu tools arm embedded/4.8 2014q2/bin/../lib/gcc/arm-none-eabi/4.8.4/../../../../arm-none-eabi/lib/armv7-m\libm.a(lib_a-sf_floor.o)
                                                  c:/program files (x86)/gnu tools arm embedded/4.8 2014q2/bin/../lib/gcc/arm-none-eabi/4.8.4/../../../../arm-none-eabi/lib/armv7-m\libm.a(lib_a-sf_atan.o)
                                                  c:/program files (x86)/gnu tools arm embedded/4.8 2014q2/bin/../lib/gcc/arm-none-eabi/4.8.4/../../../../arm-none-eabi/lib/armv7-m\libm.a(lib_a-kf_sin.o)
                                                  c:/program files (x86)/gnu tools arm embedded/4.8 2014q2/bin/../lib/gcc/arm-none-eabi/4.8.4/../../../../arm-none-eabi/lib/armv7-m\libm.a(lib_a-kf_rem_pio2.o)
                                                  c:/program files (x86)/gnu tools arm embedded/4.8 2014q2/bin/../lib/gcc/arm-none-eabi/4.8.4/../../../../arm-none-eabi/lib/armv7-m\libm.a(lib_a-kf_cos.o)
                                                  c:/program files (x86)/gnu tools arm embedded/4.8 2014q2/bin/../lib/gcc/arm-none-eabi/4.8.4/../../../../arm-none-eabi/lib/armv7-m\libm.a(lib_a-ef_sqrt.o)
                                                  c:/program files (x86)/gnu tools arm embedded/4.8 2014q2/bin/../lib/gcc/arm-none-eabi/4.8.4/../../../../arm-none-eabi/lib/armv7-m\libm.a(lib_a-ef_rem_pio2.o)
                                                  c:/program files (x86)/gnu tools arm embedded/4.8 2014q2/bin/../lib/gcc/arm-none-eabi/4.8.4/../../../../arm-none-eabi/lib/armv7-m\libm.a(lib_a-ef_atan2.o)
                                                  out/rc.o
                                                  out/pwm.o
                                                  out/utils.o
                                                  out/gyro.o
                                                  out/commhandler.o
                                                  out/engine.o
__aeabi_fcmpeq                                    c:/program files (x86)/gnu tools arm embedded/4.8 2014q2/bin/../lib/gcc/arm-none-eabi/4.8.4/armv7-m\libgcc.a(_arm_cmpsf2.o)
                                                  c:/program files (x86)/gnu tools arm embedded/4.8 2014q2/bin/../lib/gcc/arm-none-eabi/4.8.4/../../../../arm-none-eabi/lib/armv7-m\libm.a(lib_a-kf_rem_pio2.o)
                                                  c:/program files (x86)/gnu tools arm embedded/4.8 2014q2/bin/../lib/gcc/arm-none-eabi/4.8.4/../../../../arm-none-eabi/lib/armv7-m\libm.a(lib_a-ef_rem_pio2.o)
                                                  c:/program files (x86)/gnu tools arm embedded/4.8 2014q2/bin/../lib/gcc/arm-none-eabi/4.8.4/../../../../arm-none-eabi/lib/armv7-m\libm.a(lib_a-wf_fmod.o)
__aeabi_fcmpge                                    c:/program files (x86)/gnu tools arm embedded/4.8 2014q2/bin/../lib/gcc/arm-none-eabi/4.8.4/armv7-m\libgcc.a(_arm_cmpsf2.o)
                                                  c:/program files (x86)/gnu tools arm embedded/4.8 2014q2/bin/../lib/gcc/arm-none-eabi/4.8.4/../../../../arm-none-eabi/lib/armv7-m\libm.a(lib_a-kf_rem_pio2.o)
                                                  out/fasttrig.o
                                                  out/pwm.o
                                                  out/utils.o
__aeabi_fcmpgt                                    c:/program files (x86)/gnu tools arm embedded/4.8 2014q2/bin/../lib/gcc/arm-none-eabi/4.8.4/armv7-m\libgcc.a(_arm_cmpsf2.o)
                                                  c:/program files (x86)/gnu tools arm embedded/4.8 2014q2/bin/../lib/gcc/arm-none-eabi/4.8.4/../../../../arm-none-eabi/lib/armv7-m\libm.a(lib_a-sf_floor.o)
                                                  c:/program files (x86)/gnu tools arm embedded/4.8 2014q2/bin/../lib/gcc/arm-none-eabi/4.8.4/../../../../arm-none-eabi/lib/armv7-m\libm.a(lib_a-sf_atan.o)
                                                  out/rc.o
                                                  out/engine.o
__aeabi_fcmple                                    c:/program files (x86)/gnu tools arm embedded/4.8 2014q2/bin/../lib/gcc/arm-none-eabi/4.8.4/armv7-m\libgcc.a(_arm_cmpsf2.o)
__aeabi_fcmplt                                    c:/program files (x86)/gnu tools arm embedded/4.8 2014q2/bin/../lib/gcc/arm-none-eabi/4.8.4/armv7-m\libgcc.a(_arm_cmpsf2.o)
                                                  c:/program files (x86)/gnu tools arm embedded/4.8 2014q2/bin/../lib/gcc/arm-none-eabi/4.8.4/../../../../arm-none-eabi/lib/armv7-m\libm.a(lib_a-wf_sqrt.o)
                                                  out/rc.o
                                                  out/engine.o
__aeabi_fdiv                                      c:/program files (x86)/gnu tools arm embedded/4.8 2014q2/bin/../lib/gcc/arm-none-eabi/4.8.4/armv7-m\libgcc.a(_arm_muldivsf3.o)
                                                  c:/program files (x86)/gnu tools arm embedded/4.8 2014q2/bin/../lib/gcc/arm-none-eabi/4.8.4/../../../../arm-none-eabi/lib/armv7-m\libm.a(lib_a-sf_atan.o)
                                                  c:/program files (x86)/gnu tools arm embedded/4.8 2014q2/bin/../lib/gcc/arm-none-eabi/4.8.4/../../../../arm-none-eabi/lib/armv7-m\libm.a(lib_a-ef_sqrt.o)
                                                  c:/program files (x86)/gnu tools arm embedded/4.8 2014q2/bin/../lib/gcc/arm-none-eabi/4.8.4/../../../../arm-none-eabi/lib/armv7-m\libm.a(lib_a-ef_fmod.o)
                                                  c:/program files (x86)/gnu tools arm embedded/4.8 2014q2/bin/../lib/gcc/arm-none-eabi/4.8.4/../../../../arm-none-eabi/lib/armv7-m\libm.a(lib_a-ef_atan2.o)
                                                  out/fasttrig.o
                                                  out/rc.o
                                                  out/main.o
                                                  out/pwm.o
                                                  out/gyro.o
                                                  out/engine.o
__aeabi_fmul                                      c:/program files (x86)/gnu tools arm embedded/4.8 2014q2/bin/../lib/gcc/arm-none-eabi/4.8.4/armv7-m\libgcc.a(_arm_muldivsf3.o)
                                                  c:/program files (x86)/gnu tools arm embedded/4.8 2014q2/bin/../lib/gcc/arm-none-eabi/4.8.4/../../../../arm-none-eabi/lib/armv7-m\libm.a(lib_a-sf_scalbn.o)
                                                  c:/program files (x86)/gnu tools arm embedded/4.8 2014q2/bin/../lib/gcc/arm-none-eabi/4.8.4/../../../../arm-none-eabi/lib/armv7-m\libm.a(lib_a-sf_atan.o)
                                                  c:/program files (x86)/gnu tools arm embedded/4.8 2014q2/bin/../lib/gcc/arm-none-eabi/4.8.4/../../../../arm-none-eabi/lib/armv7-m\libm.a(lib_a-kf_sin.o)
                                                  c:/program files (x86)/gnu tools arm embedded/4.8 2014q2/bin/../lib/gcc/arm-none-eabi/4.8.4/../../../../arm-none-eabi/lib/armv7-m\libm.a(lib_a-kf_rem_pio2.o)
                                                  c:/program files (x86)/gnu tools arm embedded/4.8 2014q2/bin/../lib/gcc/arm-none-eabi/4.8.4/../../../../arm-none-eabi/lib/armv7-m\libm.a(lib_a-kf_cos.o)
                                                  c:/program files (x86)/gnu tools arm embedded/4.8 2014q2/bin/../lib/gcc/arm-none-eabi/4.8.4/../../../../arm-none-eabi/lib/armv7-m\libm.a(lib_a-ef_sqrt.o)
                                                  c:/program files (x86)/gnu tools arm embedded/4.8 2014q2/bin/../lib/gcc/arm-none-eabi/4.8.4/../../../../arm-none-eabi/lib/armv7-m\libm.a(lib_a-ef_rem_pio2.o)
                                                  c:/program files (x86)/gnu tools arm embedded/4.8 2014q2/bin/../lib/gcc/arm-none-eabi/4.8.4/../../../../arm-none-eabi/lib/armv7-m\libm.a(lib_a-ef_fmod.o)
                                                  out/fasttrig.o
                                                  out/rc.o
                                                  out/main.o
                                                  out/pwm.o
                                                  out/utils.o
                                                  out/commhandler.o
                                                  out/engine.o
__aeabi_frsub                                     c:/program files (x86)/gnu tools arm embedded/4.8 2014q2/bin/../lib/gcc/arm-none-eabi/4.8.4/armv7-m\libgcc.a(_arm_addsubsf3.o)
__aeabi_fsub                                      c:/program files (x86)/gnu tools arm embedded/4.8 2014q2/bin/../lib/gcc/arm-none-eabi/4.8.4/armv7-m\libgcc.a(_arm_addsubsf3.o)
                                                  c:/program files (x86)/gnu tools arm embedded/4.8 2014q2/bin/../lib/gcc/arm-none-eabi/4.8.4/../../../../arm-none-eabi/lib/armv7-m\libm.a(lib_a-sf_atan.o)
                                                  c:/program files (x86)/gnu tools arm embedded/4.8 2014q2/bin/../lib/gcc/arm-none-eabi/4.8.4/../../../../arm-none-eabi/lib/armv7-m\libm.a(lib_a-kf_sin.o)
                                                  c:/program files (x86)/gnu tools arm embedded/4.8 2014q2/bin/../lib/gcc/arm-none-eabi/4.8.4/../../../../arm-none-eabi/lib/armv7-m\libm.a(lib_a-kf_rem_pio2.o)
                                                  c:/program files (x86)/gnu tools arm embedded/4.8 2014q2/bin/../lib/gcc/arm-none-eabi/4.8.4/../../../../arm-none-eabi/lib/armv7-m\libm.a(lib_a-kf_cos.o)
                                                  c:/program files (x86)/gnu tools arm embedded/4.8 2014q2/bin/../lib/gcc/arm-none-eabi/4.8.4/../../../../arm-none-eabi/lib/armv7-m\libm.a(lib_a-ef_sqrt.o)
                                                  c:/program files (x86)/gnu tools arm embedded/4.8 2014q2/bin/../lib/gcc/arm-none-eabi/4.8.4/../../../../arm-none-eabi/lib/armv7-m\libm.a(lib_a-ef_rem_pio2.o)
                                                  c:/program files (x86)/gnu tools arm embedded/4.8 2014q2/bin/../lib/gcc/arm-none-eabi/4.8.4/../../../../arm-none-eabi/lib/armv7-m\libm.a(lib_a-ef_atan2.o)
                                                  c:/program files (x86)/gnu tools arm embedded/4.8 2014q2/bin/../lib/gcc/arm-none-eabi/4.8.4/../../../../arm-none-eabi/lib/armv7-m\libm.a(lib_a-sf_sin.o)
                                                  c:/program files (x86)/gnu tools arm embedded/4.8 2014q2/bin/../lib/gcc/arm-none-eabi/4.8.4/../../../../arm-none-eabi/lib/armv7-m\libm.a(lib_a-sf_cos.o)
                                                  out/rc.o
                                                  out/utils.o
                                                  out/gyro.o
                                                  out/commhandler.o
                                                  out/engine.o
__aeabi_i2d                                       c:/program files (x86)/gnu tools arm embedded/4.8 2014q2/bin/../lib/gcc/arm-none-eabi/4.8.4/armv7-m\libgcc.a(_arm_addsubdf3.o)
                                                  c:/program files (x86)/gnu tools arm embedded/4.8 2014q2/bin/../lib/gcc/arm-none-eabi/4.8.4/../../../../arm-none-eabi/lib/armv7-m\libc.a(lib_a-dtoa.o)
                                                  c:/program files (x86)/gnu tools arm embedded/4.8 2014q2/bin/../lib/gcc/arm-none-eabi/4.8.4/../../../../arm-none-eabi/lib/armv7-m\libm.a(lib_a-k_rem_pio2.o)
                                                  c:/program files (x86)/gnu tools arm embedded/4.8 2014q2/bin/../lib/gcc/arm-none-eabi/4.8.4/../../../../arm-none-eabi/lib/armv7-m\libm.a(lib_a-e_rem_pio2.o)
                                                  out/pwm.o
__aeabi_i2f                                       c:/program files (x86)/gnu tools arm embedded/4.8 2014q2/bin/../lib/gcc/arm-none-eabi/4.8.4/armv7-m\libgcc.a(_arm_addsubsf3.o)
                                                  c:/program files (x86)/gnu tools arm embedded/4.8 2014q2/bin/../lib/gcc/arm-none-eabi/4.8.4/../../../../arm-none-eabi/lib/armv7-m\libm.a(lib_a-kf_rem_pio2.o)
                                                  c:/program files (x86)/gnu tools arm embedded/4.8 2014q2/bin/../lib/gcc/arm-none-eabi/4.8.4/../../../../arm-none-eabi/lib/armv7-m\libm.a(lib_a-ef_rem_pio2.o)
                                                  out/fasttrig.o
                                                  out/rc.o
                                                  out/main.o
                                                  out/pwm.o
                                                  out/gyro.o
                                                  out/commhandler.o
                                                  out/engine.o
__aeabi_idiv0                                     c:/program files (x86)/gnu tools arm embedded/4.8 2014q2/bin/../lib/gcc/arm-none-eabi/4.8.4/armv7-m\libgcc.a(_dvmd_tls.o)
__aeabi_l2d                                       c:/program files (x86)/gnu tools arm embedded/4.8 2014q2/bin/../lib/gcc/arm-none-eabi/4.8.4/armv7-m\libgcc.a(_arm_addsubdf3.o)
__aeabi_l2f                                       c:/program files (x86)/gnu tools arm embedded/4.8 2014q2/bin/../lib/gcc/arm-none-eabi/4.8.4/armv7-m\libgcc.a(_arm_addsubsf3.o)
__aeabi_ldiv0                                     c:/program files (x86)/gnu tools arm embedded/4.8 2014q2/bin/../lib/gcc/arm-none-eabi/4.8.4/armv7-m\libgcc.a(_dvmd_tls.o)
                                                  c:/program files (x86)/gnu tools arm embedded/4.8 2014q2/bin/../lib/gcc/arm-none-eabi/4.8.4/armv7-m\libgcc.a(_aeabi_uldivmod.o)
__aeabi_ui2d                                      c:/program files (x86)/gnu tools arm embedded/4.8 2014q2/bin/../lib/gcc/arm-none-eabi/4.8.4/armv7-m\libgcc.a(_arm_addsubdf3.o)
                                                  c:/program files (x86)/gnu tools arm embedded/4.8 2014q2/bin/../lib/gcc/arm-none-eabi/4.8.4/../../../../arm-none-eabi/lib/armv7-m\libc.a(lib_a-dtoa.o)
__aeabi_ui2f                                      c:/program files (x86)/gnu tools arm embedded/4.8 2014q2/bin/../lib/gcc/arm-none-eabi/4.8.4/armv7-m\libgcc.a(_arm_addsubsf3.o)
                                                  out/main.o
                                                  out/engine.o
__aeabi_ul2d                                      c:/program files (x86)/gnu tools arm embedded/4.8 2014q2/bin/../lib/gcc/arm-none-eabi/4.8.4/armv7-m\libgcc.a(_arm_addsubdf3.o)
__aeabi_ul2f                                      c:/program files (x86)/gnu tools arm embedded/4.8 2014q2/bin/../lib/gcc/arm-none-eabi/4.8.4/armv7-m\libgcc.a(_arm_addsubsf3.o)
__aeabi_uldivmod                                  c:/program files (x86)/gnu tools arm embedded/4.8 2014q2/bin/../lib/gcc/arm-none-eabi/4.8.4/armv7-m\libgcc.a(_aeabi_uldivmod.o)
                                                  c:/program files (x86)/gnu tools arm embedded/4.8 2014q2/bin/../lib/gcc/arm-none-eabi/4.8.4/../../../../arm-none-eabi/lib/armv7-m\libc.a(lib_a-svfiprintf.o)
                                                  c:/program files (x86)/gnu tools arm embedded/4.8 2014q2/bin/../lib/gcc/arm-none-eabi/4.8.4/../../../../arm-none-eabi/lib/armv7-m\libc.a(lib_a-svfprintf.o)
__any_on                                          c:/program files (x86)/gnu tools arm embedded/4.8 2014q2/bin/../lib/gcc/arm-none-eabi/4.8.4/../../../../arm-none-eabi/lib/armv7-m\libc.a(lib_a-mprec.o)
__b2d                                             c:/program files (x86)/gnu tools arm embedded/4.8 2014q2/bin/../lib/gcc/arm-none-eabi/4.8.4/../../../../arm-none-eabi/lib/armv7-m\libc.a(lib_a-mprec.o)
__cmpdf2                                          c:/program files (x86)/gnu tools arm embedded/4.8 2014q2/bin/../lib/gcc/arm-none-eabi/4.8.4/armv7-m\libgcc.a(_arm_cmpdf2.o)
__cmpsf2                                          c:/program files (x86)/gnu tools arm embedded/4.8 2014q2/bin/../lib/gcc/arm-none-eabi/4.8.4/armv7-m\libgcc.a(_arm_cmpsf2.o)
__copybits                                        c:/program files (x86)/gnu tools arm embedded/4.8 2014q2/bin/../lib/gcc/arm-none-eabi/4.8.4/../../../../arm-none-eabi/lib/armv7-m\libc.a(lib_a-mprec.o)
__d2b                                             c:/program files (x86)/gnu tools arm embedded/4.8 2014q2/bin/../lib/gcc/arm-none-eabi/4.8.4/../../../../arm-none-eabi/lib/armv7-m\libc.a(lib_a-mprec.o)
                                                  c:/program files (x86)/gnu tools arm embedded/4.8 2014q2/bin/../lib/gcc/arm-none-eabi/4.8.4/../../../../arm-none-eabi/lib/armv7-m\libc.a(lib_a-dtoa.o)
__divdf3                                          c:/program files (x86)/gnu tools arm embedded/4.8 2014q2/bin/../lib/gcc/arm-none-eabi/4.8.4/armv7-m\libgcc.a(_arm_muldivdf3.o)
__divdi3                                          c:/program files (x86)/gnu tools arm embedded/4.8 2014q2/bin/../lib/gcc/arm-none-eabi/4.8.4/armv7-m\libgcc.a(_divdi3.o)
                                                  c:/program files (x86)/gnu tools arm embedded/4.8 2014q2/bin/../lib/gcc/arm-none-eabi/4.8.4/armv7-m\libgcc.a(bpabi.o)
__divsf3                                          c:/program files (x86)/gnu tools arm embedded/4.8 2014q2/bin/../lib/gcc/arm-none-eabi/4.8.4/armv7-m\libgcc.a(_arm_muldivsf3.o)
__env                                             out/newlib_stubs.o
__eqdf2                                           c:/program files (x86)/gnu tools arm embedded/4.8 2014q2/bin/../lib/gcc/arm-none-eabi/4.8.4/armv7-m\libgcc.a(_arm_cmpdf2.o)
__eqsf2                                           c:/program files (x86)/gnu tools arm embedded/4.8 2014q2/bin/../lib/gcc/arm-none-eabi/4.8.4/armv7-m\libgcc.a(_arm_cmpsf2.o)
__errno                                           c:/program files (x86)/gnu tools arm embedded/4.8 2014q2/bin/../lib/gcc/arm-none-eabi/4.8.4/../../../../arm-none-eabi/lib/armv7-m\libc.a(lib_a-errno.o)
                                                  c:/program files (x86)/gnu tools arm embedded/4.8 2014q2/bin/../lib/gcc/arm-none-eabi/4.8.4/../../../../arm-none-eabi/lib/armv7-m\libm.a(lib_a-wf_sqrt.o)
                                                  c:/program files (x86)/gnu tools arm embedded/4.8 2014q2/bin/../lib/gcc/arm-none-eabi/4.8.4/../../../../arm-none-eabi/lib/armv7-m\libm.a(lib_a-wf_fmod.o)
__extendsfdf2                                     c:/program files (x86)/gnu tools arm embedded/4.8 2014q2/bin/../lib/gcc/arm-none-eabi/4.8.4/armv7-m\libgcc.a(_arm_addsubdf3.o)
__fdlib_version                                   c:/program files (x86)/gnu tools arm embedded/4.8 2014q2/bin/../lib/gcc/arm-none-eabi/4.8.4/../../../../arm-none-eabi/lib/armv7-m\libm.a(lib_a-s_lib_ver.o)
                                                  c:/program files (x86)/gnu tools arm embedded/4.8 2014q2/bin/../lib/gcc/arm-none-eabi/4.8.4/../../../../arm-none-eabi/lib/armv7-m\libm.a(lib_a-wf_sqrt.o)
                                                  c:/program files (x86)/gnu tools arm embedded/4.8 2014q2/bin/../lib/gcc/arm-none-eabi/4.8.4/../../../../arm-none-eabi/lib/armv7-m\libm.a(lib_a-wf_fmod.o)
__fixdfsi                                         c:/program files (x86)/gnu tools arm embedded/4.8 2014q2/bin/../lib/gcc/arm-none-eabi/4.8.4/armv7-m\libgcc.a(_arm_fixdfsi.o)
__fixsfsi                                         c:/program files (x86)/gnu tools arm embedded/4.8 2014q2/bin/../lib/gcc/arm-none-eabi/4.8.4/armv7-m\libgcc.a(_arm_fixsfsi.o)
__floatdidf                                       c:/program files (x86)/gnu tools arm embedded/4.8 2014q2/bin/../lib/gcc/arm-none-eabi/4.8.4/armv7-m\libgcc.a(_arm_addsubdf3.o)
__floatdisf                                       c:/program files (x86)/gnu tools arm embedded/4.8 2014q2/bin/../lib/gcc/arm-none-eabi/4.8.4/armv7-m\libgcc.a(_arm_addsubsf3.o)
__floatsidf                                       c:/program files (x86)/gnu tools arm embedded/4.8 2014q2/bin/../lib/gcc/arm-none-eabi/4.8.4/armv7-m\libgcc.a(_arm_addsubdf3.o)
__floatsisf                                       c:/program files (x86)/gnu tools arm embedded/4.8 2014q2/bin/../lib/gcc/arm-none-eabi/4.8.4/armv7-m\libgcc.a(_arm_addsubsf3.o)
__floatundidf                                     c:/program files (x86)/gnu tools arm embedded/4.8 2014q2/bin/../lib/gcc/arm-none-eabi/4.8.4/armv7-m\libgcc.a(_arm_addsubdf3.o)
__floatundisf                                     c:/program files (x86)/gnu tools arm embedded/4.8 2014q2/bin/../lib/gcc/arm-none-eabi/4.8.4/armv7-m\libgcc.a(_arm_addsubsf3.o)
__floatunsidf                                     c:/program files (x86)/gnu tools arm embedded/4.8 2014q2/bin/../lib/gcc/arm-none-eabi/4.8.4/armv7-m\libgcc.a(_arm_addsubdf3.o)
__floatunsisf                                     c:/program files (x86)/gnu tools arm embedded/4.8 2014q2/bin/../lib/gcc/arm-none-eabi/4.8.4/armv7-m\libgcc.a(_arm_addsubsf3.o)
__fpclassifyd                                     c:/program files (x86)/gnu tools arm embedded/4.8 2014q2/bin/../lib/gcc/arm-none-eabi/4.8.4/../../../../arm-none-eabi/lib/armv7-m\libc.a(lib_a-s_fpclassify.o)
                                                  c:/program files (x86)/gnu tools arm embedded/4.8 2014q2/bin/../lib/gcc/arm-none-eabi/4.8.4/../../../../arm-none-eabi/lib/armv7-m\libc.a(lib_a-svfprintf.o)
__fpclassifyf                                     c:/program files (x86)/gnu tools arm embedded/4.8 2014q2/bin/../lib/gcc/arm-none-eabi/4.8.4/../../../../arm-none-eabi/lib/armv7-m\libm.a(lib_a-sf_fpclassify.o)
                                                  c:/program files (x86)/gnu tools arm embedded/4.8 2014q2/bin/../lib/gcc/arm-none-eabi/4.8.4/../../../../arm-none-eabi/lib/armv7-m\libm.a(lib_a-wf_sqrt.o)
                                                  c:/program files (x86)/gnu tools arm embedded/4.8 2014q2/bin/../lib/gcc/arm-none-eabi/4.8.4/../../../../arm-none-eabi/lib/armv7-m\libm.a(lib_a-wf_fmod.o)
__gedf2                                           c:/program files (x86)/gnu tools arm embedded/4.8 2014q2/bin/../lib/gcc/arm-none-eabi/4.8.4/armv7-m\libgcc.a(_arm_cmpdf2.o)
__gesf2                                           c:/program files (x86)/gnu tools arm embedded/4.8 2014q2/bin/../lib/gcc/arm-none-eabi/4.8.4/armv7-m\libgcc.a(_arm_cmpsf2.o)
__gnu_ldivmod_helper                              c:/program files (x86)/gnu tools arm embedded/4.8 2014q2/bin/../lib/gcc/arm-none-eabi/4.8.4/armv7-m\libgcc.a(bpabi.o)
__gnu_uldivmod_helper                             c:/program files (x86)/gnu tools arm embedded/4.8 2014q2/bin/../lib/gcc/arm-none-eabi/4.8.4/armv7-m\libgcc.a(bpabi.o)
                                                  c:/program files (x86)/gnu tools arm embedded/4.8 2014q2/bin/../lib/gcc/arm-none-eabi/4.8.4/armv7-m\libgcc.a(_aeabi_uldivmod.o)
__gtdf2                                           c:/program files (x86)/gnu tools arm embedded/4.8 2014q2/bin/../lib/gcc/arm-none-eabi/4.8.4/armv7-m\libgcc.a(_arm_cmpdf2.o)
__gtsf2                                           c:/program files (x86)/gnu tools arm embedded/4.8 2014q2/bin/../lib/gcc/arm-none-eabi/4.8.4/armv7-m\libgcc.a(_arm_cmpsf2.o)
__hi0bits                                         c:/program files (x86)/gnu tools arm embedded/4.8 2014q2/bin/../lib/gcc/arm-none-eabi/4.8.4/../../../../arm-none-eabi/lib/armv7-m\libc.a(lib_a-mprec.o)
                                                  c:/program files (x86)/gnu tools arm embedded/4.8 2014q2/bin/../lib/gcc/arm-none-eabi/4.8.4/../../../../arm-none-eabi/lib/armv7-m\libc.a(lib_a-dtoa.o)
__i2b                                             c:/program files (x86)/gnu tools arm embedded/4.8 2014q2/bin/../lib/gcc/arm-none-eabi/4.8.4/../../../../arm-none-eabi/lib/armv7-m\libc.a(lib_a-mprec.o)
                                                  c:/program files (x86)/gnu tools arm embedded/4.8 2014q2/bin/../lib/gcc/arm-none-eabi/4.8.4/../../../../arm-none-eabi/lib/armv7-m\libc.a(lib_a-dtoa.o)
__ieee754_atan2f                                  c:/program files (x86)/gnu tools arm embedded/4.8 2014q2/bin/../lib/gcc/arm-none-eabi/4.8.4/../../../../arm-none-eabi/lib/armv7-m\libm.a(lib_a-ef_atan2.o)
                                                  c:/program files (x86)/gnu tools arm embedded/4.8 2014q2/bin/../lib/gcc/arm-none-eabi/4.8.4/../../../../arm-none-eabi/lib/armv7-m\libm.a(lib_a-wf_atan2.o)
__ieee754_fmodf                                   c:/program files (x86)/gnu tools arm embedded/4.8 2014q2/bin/../lib/gcc/arm-none-eabi/4.8.4/../../../../arm-none-eabi/lib/armv7-m\libm.a(lib_a-ef_fmod.o)
                                                  c:/program files (x86)/gnu tools arm embedded/4.8 2014q2/bin/../lib/gcc/arm-none-eabi/4.8.4/../../../../arm-none-eabi/lib/armv7-m\libm.a(lib_a-wf_fmod.o)
__ieee754_rem_pio2                                c:/program files (x86)/gnu tools arm embedded/4.8 2014q2/bin/../lib/gcc/arm-none-eabi/4.8.4/../../../../arm-none-eabi/lib/armv7-m\libm.a(lib_a-e_rem_pio2.o)
                                                  c:/program files (x86)/gnu tools arm embedded/4.8 2014q2/bin/../lib/gcc/arm-none-eabi/4.8.4/../../../../arm-none-eabi/lib/armv7-m\libm.a(lib_a-s_sin.o)
__ieee754_rem_pio2f                               c:/program files (x86)/gnu tools arm embedded/4.8 2014q2/bin/../lib/gcc/arm-none-eabi/4.8.4/../../../../arm-none-eabi/lib/armv7-m\libm.a(lib_a-ef_rem_pio2.o)
                                                  c:/program files (x86)/gnu tools arm embedded/4.8 2014q2/bin/../lib/gcc/arm-none-eabi/4.8.4/../../../../arm-none-eabi/lib/armv7-m\libm.a(lib_a-sf_sin.o)
                                                  c:/program files (x86)/gnu tools arm embedded/4.8 2014q2/bin/../lib/gcc/arm-none-eabi/4.8.4/../../../../arm-none-eabi/lib/armv7-m\libm.a(lib_a-sf_cos.o)
__ieee754_sqrtf                                   c:/program files (x86)/gnu tools arm embedded/4.8 2014q2/bin/../lib/gcc/arm-none-eabi/4.8.4/../../../../arm-none-eabi/lib/armv7-m\libm.a(lib_a-ef_sqrt.o)
                                                  c:/program files (x86)/gnu tools arm embedded/4.8 2014q2/bin/../lib/gcc/arm-none-eabi/4.8.4/../../../../arm-none-eabi/lib/armv7-m\libm.a(lib_a-wf_sqrt.o)
__init_array_end                                  c:/program files (x86)/gnu tools arm embedded/4.8 2014q2/bin/../lib/gcc/arm-none-eabi/4.8.4/../../../../arm-none-eabi/lib/armv7-m\libc.a(lib_a-init.o)
__init_array_start                                c:/program files (x86)/gnu tools arm embedded/4.8 2014q2/bin/../lib/gcc/arm-none-eabi/4.8.4/../../../../arm-none-eabi/lib/armv7-m\libc.a(lib_a-init.o)
__kernel_cos                                      c:/program files (x86)/gnu tools arm embedded/4.8 2014q2/bin/../lib/gcc/arm-none-eabi/4.8.4/../../../../arm-none-eabi/lib/armv7-m\libm.a(lib_a-k_cos.o)
                                                  c:/program files (x86)/gnu tools arm embedded/4.8 2014q2/bin/../lib/gcc/arm-none-eabi/4.8.4/../../../../arm-none-eabi/lib/armv7-m\libm.a(lib_a-s_sin.o)
__kernel_cosf                                     c:/program files (x86)/gnu tools arm embedded/4.8 2014q2/bin/../lib/gcc/arm-none-eabi/4.8.4/../../../../arm-none-eabi/lib/armv7-m\libm.a(lib_a-kf_cos.o)
                                                  c:/program files (x86)/gnu tools arm embedded/4.8 2014q2/bin/../lib/gcc/arm-none-eabi/4.8.4/../../../../arm-none-eabi/lib/armv7-m\libm.a(lib_a-sf_sin.o)
                                                  c:/program files (x86)/gnu tools arm embedded/4.8 2014q2/bin/../lib/gcc/arm-none-eabi/4.8.4/../../../../arm-none-eabi/lib/armv7-m\libm.a(lib_a-sf_cos.o)
__kernel_rem_pio2                                 c:/program files (x86)/gnu tools arm embedded/4.8 2014q2/bin/../lib/gcc/arm-none-eabi/4.8.4/../../../../arm-none-eabi/lib/armv7-m\libm.a(lib_a-k_rem_pio2.o)
                                                  c:/program files (x86)/gnu tools arm embedded/4.8 2014q2/bin/../lib/gcc/arm-none-eabi/4.8.4/../../../../arm-none-eabi/lib/armv7-m\libm.a(lib_a-e_rem_pio2.o)
__kernel_rem_pio2f                                c:/program files (x86)/gnu tools arm embedded/4.8 2014q2/bin/../lib/gcc/arm-none-eabi/4.8.4/../../../../arm-none-eabi/lib/armv7-m\libm.a(lib_a-kf_rem_pio2.o)
                                                  c:/program files (x86)/gnu tools arm embedded/4.8 2014q2/bin/../lib/gcc/arm-none-eabi/4.8.4/../../../../arm-none-eabi/lib/armv7-m\libm.a(lib_a-ef_rem_pio2.o)
__kernel_sin                                      c:/program files (x86)/gnu tools arm embedded/4.8 2014q2/bin/../lib/gcc/arm-none-eabi/4.8.4/../../../../arm-none-eabi/lib/armv7-m\libm.a(lib_a-k_sin.o)
                                                  c:/program files (x86)/gnu tools arm embedded/4.8 2014q2/bin/../lib/gcc/arm-none-eabi/4.8.4/../../../../arm-none-eabi/lib/armv7-m\libm.a(lib_a-s_sin.o)
__kernel_sinf                                     c:/program files (x86)/gnu tools arm embedded/4.8 2014q2/bin/../lib/gcc/arm-none-eabi/4.8.4/../../../../arm-none-eabi/lib/armv7-m\libm.a(lib_a-kf_sin.o)
                                                  c:/program files (x86)/gnu tools arm embedded/4.8 2014q2/bin/../lib/gcc/arm-none-eabi/4.8.4/../../../../arm-none-eabi/lib/armv7-m\libm.a(lib_a-sf_sin.o)
                                                  c:/program files (x86)/gnu tools arm embedded/4.8 2014q2/bin/../lib/gcc/arm-none-eabi/4.8.4/../../../../arm-none-eabi/lib/armv7-m\libm.a(lib_a-sf_cos.o)
__ledf2                                           c:/program files (x86)/gnu tools arm embedded/4.8 2014q2/bin/../lib/gcc/arm-none-eabi/4.8.4/armv7-m\libgcc.a(_arm_cmpdf2.o)
__lesf2                                           c:/program files (x86)/gnu tools arm embedded/4.8 2014q2/bin/../lib/gcc/arm-none-eabi/4.8.4/armv7-m\libgcc.a(_arm_cmpsf2.o)
__libc_init_array                                 c:/program files (x86)/gnu tools arm embedded/4.8 2014q2/bin/../lib/gcc/arm-none-eabi/4.8.4/../../../../arm-none-eabi/lib/armv7-m\libc.a(lib_a-init.o)
                                                  out/startup_stm32f10x_hd.o
__lo0bits                                         c:/program files (x86)/gnu tools arm embedded/4.8 2014q2/bin/../lib/gcc/arm-none-eabi/4.8.4/../../../../arm-none-eabi/lib/armv7-m\libc.a(lib_a-mprec.o)
__locale_charset                                  c:/program files (x86)/gnu tools arm embedded/4.8 2014q2/bin/../lib/gcc/arm-none-eabi/4.8.4/../../../../arm-none-eabi/lib/armv7-m\libc.a(lib_a-locale.o)
__locale_cjk_lang                                 c:/program files (x86)/gnu tools arm embedded/4.8 2014q2/bin/../lib/gcc/arm-none-eabi/4.8.4/../../../../arm-none-eabi/lib/armv7-m\libc.a(lib_a-locale.o)
__locale_mb_cur_max                               c:/program files (x86)/gnu tools arm embedded/4.8 2014q2/bin/../lib/gcc/arm-none-eabi/4.8.4/../../../../arm-none-eabi/lib/armv7-m\libc.a(lib_a-locale.o)
__locale_msgcharset                               c:/program files (x86)/gnu tools arm embedded/4.8 2014q2/bin/../lib/gcc/arm-none-eabi/4.8.4/../../../../arm-none-eabi/lib/armv7-m\libc.a(lib_a-locale.o)
__lshift                                          c:/program files (x86)/gnu tools arm embedded/4.8 2014q2/bin/../lib/gcc/arm-none-eabi/4.8.4/../../../../arm-none-eabi/lib/armv7-m\libc.a(lib_a-mprec.o)
                                                  c:/program files (x86)/gnu tools arm embedded/4.8 2014q2/bin/../lib/gcc/arm-none-eabi/4.8.4/../../../../arm-none-eabi/lib/armv7-m\libc.a(lib_a-dtoa.o)
__ltdf2                                           c:/program files (x86)/gnu tools arm embedded/4.8 2014q2/bin/../lib/gcc/arm-none-eabi/4.8.4/armv7-m\libgcc.a(_arm_cmpdf2.o)
__ltsf2                                           c:/program files (x86)/gnu tools arm embedded/4.8 2014q2/bin/../lib/gcc/arm-none-eabi/4.8.4/armv7-m\libgcc.a(_arm_cmpsf2.o)
__malloc_av_                                      c:/program files (x86)/gnu tools arm embedded/4.8 2014q2/bin/../lib/gcc/arm-none-eabi/4.8.4/../../../../arm-none-eabi/lib/armv7-m\libc.a(lib_a-mallocr.o)
                                                  c:/program files (x86)/gnu tools arm embedded/4.8 2014q2/bin/../lib/gcc/arm-none-eabi/4.8.4/../../../../arm-none-eabi/lib/armv7-m\libc.a(lib_a-reallocr.o)
                                                  c:/program files (x86)/gnu tools arm embedded/4.8 2014q2/bin/../lib/gcc/arm-none-eabi/4.8.4/../../../../arm-none-eabi/lib/armv7-m\libc.a(lib_a-freer.o)
__malloc_current_mallinfo                         c:/program files (x86)/gnu tools arm embedded/4.8 2014q2/bin/../lib/gcc/arm-none-eabi/4.8.4/../../../../arm-none-eabi/lib/armv7-m\libc.a(lib_a-mallocr.o)
                                                  c:/program files (x86)/gnu tools arm embedded/4.8 2014q2/bin/../lib/gcc/arm-none-eabi/4.8.4/../../../../arm-none-eabi/lib/armv7-m\libc.a(lib_a-freer.o)
__malloc_lock                                     c:/program files (x86)/gnu tools arm embedded/4.8 2014q2/bin/../lib/gcc/arm-none-eabi/4.8.4/../../../../arm-none-eabi/lib/armv7-m\libc.a(lib_a-mlock.o)
                                                  c:/program files (x86)/gnu tools arm embedded/4.8 2014q2/bin/../lib/gcc/arm-none-eabi/4.8.4/../../../../arm-none-eabi/lib/armv7-m\libc.a(lib_a-reallocr.o)
                                                  c:/program files (x86)/gnu tools arm embedded/4.8 2014q2/bin/../lib/gcc/arm-none-eabi/4.8.4/../../../../arm-none-eabi/lib/armv7-m\libc.a(lib_a-mallocr.o)
                                                  c:/program files (x86)/gnu tools arm embedded/4.8 2014q2/bin/../lib/gcc/arm-none-eabi/4.8.4/../../../../arm-none-eabi/lib/armv7-m\libc.a(lib_a-freer.o)
__malloc_max_sbrked_mem                           c:/program files (x86)/gnu tools arm embedded/4.8 2014q2/bin/../lib/gcc/arm-none-eabi/4.8.4/../../../../arm-none-eabi/lib/armv7-m\libc.a(lib_a-mallocr.o)
__malloc_max_total_mem                            c:/program files (x86)/gnu tools arm embedded/4.8 2014q2/bin/../lib/gcc/arm-none-eabi/4.8.4/../../../../arm-none-eabi/lib/armv7-m\libc.a(lib_a-mallocr.o)
__malloc_sbrk_base                                c:/program files (x86)/gnu tools arm embedded/4.8 2014q2/bin/../lib/gcc/arm-none-eabi/4.8.4/../../../../arm-none-eabi/lib/armv7-m\libc.a(lib_a-mallocr.o)
                                                  c:/program files (x86)/gnu tools arm embedded/4.8 2014q2/bin/../lib/gcc/arm-none-eabi/4.8.4/../../../../arm-none-eabi/lib/armv7-m\libc.a(lib_a-freer.o)
__malloc_top_pad                                  c:/program files (x86)/gnu tools arm embedded/4.8 2014q2/bin/../lib/gcc/arm-none-eabi/4.8.4/../../../../arm-none-eabi/lib/armv7-m\libc.a(lib_a-mallocr.o)
                                                  c:/program files (x86)/gnu tools arm embedded/4.8 2014q2/bin/../lib/gcc/arm-none-eabi/4.8.4/../../../../arm-none-eabi/lib/armv7-m\libc.a(lib_a-freer.o)
__malloc_trim_threshold                           c:/program files (x86)/gnu tools arm embedded/4.8 2014q2/bin/../lib/gcc/arm-none-eabi/4.8.4/../../../../arm-none-eabi/lib/armv7-m\libc.a(lib_a-mallocr.o)
                                                  c:/program files (x86)/gnu tools arm embedded/4.8 2014q2/bin/../lib/gcc/arm-none-eabi/4.8.4/../../../../arm-none-eabi/lib/armv7-m\libc.a(lib_a-freer.o)
__malloc_unlock                                   c:/program files (x86)/gnu tools arm embedded/4.8 2014q2/bin/../lib/gcc/arm-none-eabi/4.8.4/../../../../arm-none-eabi/lib/armv7-m\libc.a(lib_a-mlock.o)
                                                  c:/program files (x86)/gnu tools arm embedded/4.8 2014q2/bin/../lib/gcc/arm-none-eabi/4.8.4/../../../../arm-none-eabi/lib/armv7-m\libc.a(lib_a-reallocr.o)
                                                  c:/program files (x86)/gnu tools arm embedded/4.8 2014q2/bin/../lib/gcc/arm-none-eabi/4.8.4/../../../../arm-none-eabi/lib/armv7-m\libc.a(lib_a-mallocr.o)
                                                  c:/program files (x86)/gnu tools arm embedded/4.8 2014q2/bin/../lib/gcc/arm-none-eabi/4.8.4/../../../../arm-none-eabi/lib/armv7-m\libc.a(lib_a-freer.o)
__mb_cur_max                                      c:/program files (x86)/gnu tools arm embedded/4.8 2014q2/bin/../lib/gcc/arm-none-eabi/4.8.4/../../../../arm-none-eabi/lib/armv7-m\libc.a(lib_a-locale.o)
__mcmp                                            c:/program files (x86)/gnu tools arm embedded/4.8 2014q2/bin/../lib/gcc/arm-none-eabi/4.8.4/../../../../arm-none-eabi/lib/armv7-m\libc.a(lib_a-mprec.o)
                                                  c:/program files (x86)/gnu tools arm embedded/4.8 2014q2/bin/../lib/gcc/arm-none-eabi/4.8.4/../../../../arm-none-eabi/lib/armv7-m\libc.a(lib_a-dtoa.o)
__mdiff                                           c:/program files (x86)/gnu tools arm embedded/4.8 2014q2/bin/../lib/gcc/arm-none-eabi/4.8.4/../../../../arm-none-eabi/lib/armv7-m\libc.a(lib_a-mprec.o)
                                                  c:/program files (x86)/gnu tools arm embedded/4.8 2014q2/bin/../lib/gcc/arm-none-eabi/4.8.4/../../../../arm-none-eabi/lib/armv7-m\libc.a(lib_a-dtoa.o)
__mlocale_changed                                 c:/program files (x86)/gnu tools arm embedded/4.8 2014q2/bin/../lib/gcc/arm-none-eabi/4.8.4/../../../../arm-none-eabi/lib/armv7-m\libc.a(lib_a-locale.o)
__mprec_bigtens                                   c:/program files (x86)/gnu tools arm embedded/4.8 2014q2/bin/../lib/gcc/arm-none-eabi/4.8.4/../../../../arm-none-eabi/lib/armv7-m\libc.a(lib_a-mprec.o)
                                                  c:/program files (x86)/gnu tools arm embedded/4.8 2014q2/bin/../lib/gcc/arm-none-eabi/4.8.4/../../../../arm-none-eabi/lib/armv7-m\libc.a(lib_a-dtoa.o)
__mprec_tens                                      c:/program files (x86)/gnu tools arm embedded/4.8 2014q2/bin/../lib/gcc/arm-none-eabi/4.8.4/../../../../arm-none-eabi/lib/armv7-m\libc.a(lib_a-mprec.o)
                                                  c:/program files (x86)/gnu tools arm embedded/4.8 2014q2/bin/../lib/gcc/arm-none-eabi/4.8.4/../../../../arm-none-eabi/lib/armv7-m\libc.a(lib_a-dtoa.o)
__mprec_tinytens                                  c:/program files (x86)/gnu tools arm embedded/4.8 2014q2/bin/../lib/gcc/arm-none-eabi/4.8.4/../../../../arm-none-eabi/lib/armv7-m\libc.a(lib_a-mprec.o)
__muldf3                                          c:/program files (x86)/gnu tools arm embedded/4.8 2014q2/bin/../lib/gcc/arm-none-eabi/4.8.4/armv7-m\libgcc.a(_arm_muldivdf3.o)
__mulsf3                                          c:/program files (x86)/gnu tools arm embedded/4.8 2014q2/bin/../lib/gcc/arm-none-eabi/4.8.4/armv7-m\libgcc.a(_arm_muldivsf3.o)
__multadd                                         c:/program files (x86)/gnu tools arm embedded/4.8 2014q2/bin/../lib/gcc/arm-none-eabi/4.8.4/../../../../arm-none-eabi/lib/armv7-m\libc.a(lib_a-mprec.o)
                                                  c:/program files (x86)/gnu tools arm embedded/4.8 2014q2/bin/../lib/gcc/arm-none-eabi/4.8.4/../../../../arm-none-eabi/lib/armv7-m\libc.a(lib_a-dtoa.o)
__multiply                                        c:/program files (x86)/gnu tools arm embedded/4.8 2014q2/bin/../lib/gcc/arm-none-eabi/4.8.4/../../../../arm-none-eabi/lib/armv7-m\libc.a(lib_a-mprec.o)
                                                  c:/program files (x86)/gnu tools arm embedded/4.8 2014q2/bin/../lib/gcc/arm-none-eabi/4.8.4/../../../../arm-none-eabi/lib/armv7-m\libc.a(lib_a-dtoa.o)
__nedf2                                           c:/program files (x86)/gnu tools arm embedded/4.8 2014q2/bin/../lib/gcc/arm-none-eabi/4.8.4/armv7-m\libgcc.a(_arm_cmpdf2.o)
__nesf2                                           c:/program files (x86)/gnu tools arm embedded/4.8 2014q2/bin/../lib/gcc/arm-none-eabi/4.8.4/armv7-m\libgcc.a(_arm_cmpsf2.o)
__nlocale_changed                                 c:/program files (x86)/gnu tools arm embedded/4.8 2014q2/bin/../lib/gcc/arm-none-eabi/4.8.4/../../../../arm-none-eabi/lib/armv7-m\libc.a(lib_a-locale.o)
__pow5mult                                        c:/program files (x86)/gnu tools arm embedded/4.8 2014q2/bin/../lib/gcc/arm-none-eabi/4.8.4/../../../../arm-none-eabi/lib/armv7-m\libc.a(lib_a-mprec.o)
                                                  c:/program files (x86)/gnu tools arm embedded/4.8 2014q2/bin/../lib/gcc/arm-none-eabi/4.8.4/../../../../arm-none-eabi/lib/armv7-m\libc.a(lib_a-dtoa.o)
__preinit_array_end                               c:/program files (x86)/gnu tools arm embedded/4.8 2014q2/bin/../lib/gcc/arm-none-eabi/4.8.4/../../../../arm-none-eabi/lib/armv7-m\libc.a(lib_a-init.o)
__preinit_array_start                             c:/program files (x86)/gnu tools arm embedded/4.8 2014q2/bin/../lib/gcc/arm-none-eabi/4.8.4/../../../../arm-none-eabi/lib/armv7-m\libc.a(lib_a-init.o)
__ratio                                           c:/program files (x86)/gnu tools arm embedded/4.8 2014q2/bin/../lib/gcc/arm-none-eabi/4.8.4/../../../../arm-none-eabi/lib/armv7-m\libc.a(lib_a-mprec.o)
__s2b                                             c:/program files (x86)/gnu tools arm embedded/4.8 2014q2/bin/../lib/gcc/arm-none-eabi/4.8.4/../../../../arm-none-eabi/lib/armv7-m\libc.a(lib_a-mprec.o)
__ssprint_r                                       c:/program files (x86)/gnu tools arm embedded/4.8 2014q2/bin/../lib/gcc/arm-none-eabi/4.8.4/../../../../arm-none-eabi/lib/armv7-m\libc.a(lib_a-svfiprintf.o)
                                                  c:/program files (x86)/gnu tools arm embedded/4.8 2014q2/bin/../lib/gcc/arm-none-eabi/4.8.4/../../../../arm-none-eabi/lib/armv7-m\libc.a(lib_a-svfprintf.o)
__subdf3                                          c:/program files (x86)/gnu tools arm embedded/4.8 2014q2/bin/../lib/gcc/arm-none-eabi/4.8.4/armv7-m\libgcc.a(_arm_addsubdf3.o)
__subsf3                                          c:/program files (x86)/gnu tools arm embedded/4.8 2014q2/bin/../lib/gcc/arm-none-eabi/4.8.4/armv7-m\libgcc.a(_arm_addsubsf3.o)
__truncdfsf2                                      c:/program files (x86)/gnu tools arm embedded/4.8 2014q2/bin/../lib/gcc/arm-none-eabi/4.8.4/armv7-m\libgcc.a(_arm_truncdfsf2.o)
__udivdi3                                         c:/program files (x86)/gnu tools arm embedded/4.8 2014q2/bin/../lib/gcc/arm-none-eabi/4.8.4/armv7-m\libgcc.a(_udivdi3.o)
                                                  c:/program files (x86)/gnu tools arm embedded/4.8 2014q2/bin/../lib/gcc/arm-none-eabi/4.8.4/armv7-m\libgcc.a(bpabi.o)
__ulp                                             c:/program files (x86)/gnu tools arm embedded/4.8 2014q2/bin/../lib/gcc/arm-none-eabi/4.8.4/../../../../arm-none-eabi/lib/armv7-m\libc.a(lib_a-mprec.o)
_calloc_r                                         c:/program files (x86)/gnu tools arm embedded/4.8 2014q2/bin/../lib/gcc/arm-none-eabi/4.8.4/../../../../arm-none-eabi/lib/armv7-m\libc.a(lib_a-callocr.o)
                                                  c:/program files (x86)/gnu tools arm embedded/4.8 2014q2/bin/../lib/gcc/arm-none-eabi/4.8.4/../../../../arm-none-eabi/lib/armv7-m\libc.a(lib_a-mprec.o)
_close                                            out/newlib_stubs.o
_dtoa_r                                           c:/program files (x86)/gnu tools arm embedded/4.8 2014q2/bin/../lib/gcc/arm-none-eabi/4.8.4/../../../../arm-none-eabi/lib/armv7-m\libc.a(lib_a-dtoa.o)
                                                  c:/program files (x86)/gnu tools arm embedded/4.8 2014q2/bin/../lib/gcc/arm-none-eabi/4.8.4/../../../../arm-none-eabi/lib/armv7-m\libc.a(lib_a-svfprintf.o)
_ebss                                             out/newlib_stubs.o
                                                  out/startup_stm32f10x_hd.o
_edata                                            out/startup_stm32f10x_hd.o
_estack                                           out/startup_stm32f10x_hd.o
_execve                                           out/newlib_stubs.o
_exit                                             out/newlib_stubs.o
_fork                                             out/newlib_stubs.o
_free_r                                           c:/program files (x86)/gnu tools arm embedded/4.8 2014q2/bin/../lib/gcc/arm-none-eabi/4.8.4/../../../../arm-none-eabi/lib/armv7-m\libc.a(lib_a-freer.o)
                                                  c:/program files (x86)/gnu tools arm embedded/4.8 2014q2/bin/../lib/gcc/arm-none-eabi/4.8.4/../../../../arm-none-eabi/lib/armv7-m\libc.a(lib_a-reallocr.o)
                                                  c:/program files (x86)/gnu tools arm embedded/4.8 2014q2/bin/../lib/gcc/arm-none-eabi/4.8.4/../../../../arm-none-eabi/lib/armv7-m\libc.a(lib_a-svfiprintf.o)
                                                  c:/program files (x86)/gnu tools arm embedded/4.8 2014q2/bin/../lib/gcc/arm-none-eabi/4.8.4/../../../../arm-none-eabi/lib/armv7-m\libc.a(lib_a-mallocr.o)
                                                  c:/program files (x86)/gnu tools arm embedded/4.8 2014q2/bin/../lib/gcc/arm-none-eabi/4.8.4/../../../../arm-none-eabi/lib/armv7-m\libc.a(lib_a-reent.o)
_fstat                                            out/newlib_stubs.o
_getpid                                           out/newlib_stubs.o
_global_impure_ptr                                c:/program files (x86)/gnu tools arm embedded/4.8 2014q2/bin/../lib/gcc/arm-none-eabi/4.8.4/../../../../arm-none-eabi/lib/armv7-m\libc.a(lib_a-impure.o)
_impure_ptr                                       c:/program files (x86)/gnu tools arm embedded/4.8 2014q2/bin/../lib/gcc/arm-none-eabi/4.8.4/../../../../arm-none-eabi/lib/armv7-m\libc.a(lib_a-impure.o)
                                                  c:/program files (x86)/gnu tools arm embedded/4.8 2014q2/bin/../lib/gcc/arm-none-eabi/4.8.4/../../../../arm-none-eabi/lib/armv7-m\libc.a(lib_a-locale.o)
                                                  c:/program files (x86)/gnu tools arm embedded/4.8 2014q2/bin/../lib/gcc/arm-none-eabi/4.8.4/../../../../arm-none-eabi/lib/armv7-m\libc.a(lib_a-vsnprintf.o)
                                                  c:/program files (x86)/gnu tools arm embedded/4.8 2014q2/bin/../lib/gcc/arm-none-eabi/4.8.4/../../../../arm-none-eabi/lib/armv7-m\libc.a(lib_a-reent.o)
                                                  c:/program files (x86)/gnu tools arm embedded/4.8 2014q2/bin/../lib/gcc/arm-none-eabi/4.8.4/../../../../arm-none-eabi/lib/armv7-m\libc.a(lib_a-errno.o)
_init                                             out/newlib_stubs.o
                                                  c:/program files (x86)/gnu tools arm embedded/4.8 2014q2/bin/../lib/gcc/arm-none-eabi/4.8.4/../../../../arm-none-eabi/lib/armv7-m\libc.a(lib_a-init.o)
_isatty                                           out/newlib_stubs.o
_kill                                             out/newlib_stubs.o
_link                                             out/newlib_stubs.o
_localeconv_r                                     c:/program files (x86)/gnu tools arm embedded/4.8 2014q2/bin/../lib/gcc/arm-none-eabi/4.8.4/../../../../arm-none-eabi/lib/armv7-m\libc.a(lib_a-locale.o)
                                                  c:/program files (x86)/gnu tools arm embedded/4.8 2014q2/bin/../lib/gcc/arm-none-eabi/4.8.4/../../../../arm-none-eabi/lib/armv7-m\libc.a(lib_a-svfprintf.o)
_lseek                                            out/newlib_stubs.o
_malloc_r                                         c:/program files (x86)/gnu tools arm embedded/4.8 2014q2/bin/../lib/gcc/arm-none-eabi/4.8.4/../../../../arm-none-eabi/lib/armv7-m\libc.a(lib_a-mallocr.o)
                                                  c:/program files (x86)/gnu tools arm embedded/4.8 2014q2/bin/../lib/gcc/arm-none-eabi/4.8.4/../../../../arm-none-eabi/lib/armv7-m\libc.a(lib_a-reallocr.o)
                                                  c:/program files (x86)/gnu tools arm embedded/4.8 2014q2/bin/../lib/gcc/arm-none-eabi/4.8.4/../../../../arm-none-eabi/lib/armv7-m\libc.a(lib_a-callocr.o)
                                                  c:/program files (x86)/gnu tools arm embedded/4.8 2014q2/bin/../lib/gcc/arm-none-eabi/4.8.4/../../../../arm-none-eabi/lib/armv7-m\libc.a(lib_a-svfiprintf.o)
                                                  c:/program files (x86)/gnu tools arm embedded/4.8 2014q2/bin/../lib/gcc/arm-none-eabi/4.8.4/../../../../arm-none-eabi/lib/armv7-m\libc.a(lib_a-svfprintf.o)
_malloc_trim_r                                    c:/program files (x86)/gnu tools arm embedded/4.8 2014q2/bin/../lib/gcc/arm-none-eabi/4.8.4/../../../../arm-none-eabi/lib/armv7-m\libc.a(lib_a-freer.o)
_mprec_log10                                      c:/program files (x86)/gnu tools arm embedded/4.8 2014q2/bin/../lib/gcc/arm-none-eabi/4.8.4/../../../../arm-none-eabi/lib/armv7-m\libc.a(lib_a-mprec.o)
_read                                             out/newlib_stubs.o
_realloc_r                                        c:/program files (x86)/gnu tools arm embedded/4.8 2014q2/bin/../lib/gcc/arm-none-eabi/4.8.4/../../../../arm-none-eabi/lib/armv7-m\libc.a(lib_a-reallocr.o)
                                                  c:/program files (x86)/gnu tools arm embedded/4.8 2014q2/bin/../lib/gcc/arm-none-eabi/4.8.4/../../../../arm-none-eabi/lib/armv7-m\libc.a(lib_a-svfiprintf.o)
_reclaim_reent                                    c:/program files (x86)/gnu tools arm embedded/4.8 2014q2/bin/../lib/gcc/arm-none-eabi/4.8.4/../../../../arm-none-eabi/lib/armv7-m\libc.a(lib_a-reent.o)
_sbrk                                             out/newlib_stubs.o
                                                  c:/program files (x86)/gnu tools arm embedded/4.8 2014q2/bin/../lib/gcc/arm-none-eabi/4.8.4/../../../../arm-none-eabi/lib/armv7-m\libc.a(lib_a-sbrkr.o)
_sbrk_r                                           c:/program files (x86)/gnu tools arm embedded/4.8 2014q2/bin/../lib/gcc/arm-none-eabi/4.8.4/../../../../arm-none-eabi/lib/armv7-m\libc.a(lib_a-sbrkr.o)
                                                  c:/program files (x86)/gnu tools arm embedded/4.8 2014q2/bin/../lib/gcc/arm-none-eabi/4.8.4/../../../../arm-none-eabi/lib/armv7-m\libc.a(lib_a-mallocr.o)
                                                  c:/program files (x86)/gnu tools arm embedded/4.8 2014q2/bin/../lib/gcc/arm-none-eabi/4.8.4/../../../../arm-none-eabi/lib/armv7-m\libc.a(lib_a-freer.o)
_sbss                                             out/startup_stm32f10x_hd.o
_sdata                                            out/startup_stm32f10x_hd.o
_setlocale_r                                      c:/program files (x86)/gnu tools arm embedded/4.8 2014q2/bin/../lib/gcc/arm-none-eabi/4.8.4/../../../../arm-none-eabi/lib/armv7-m\libc.a(lib_a-locale.o)
_sidata                                           out/startup_stm32f10x_hd.o
_stat                                             out/newlib_stubs.o
_svfiprintf_r                                     c:/program files (x86)/gnu tools arm embedded/4.8 2014q2/bin/../lib/gcc/arm-none-eabi/4.8.4/../../../../arm-none-eabi/lib/armv7-m\libc.a(lib_a-svfiprintf.o)
_svfprintf_r                                      c:/program files (x86)/gnu tools arm embedded/4.8 2014q2/bin/../lib/gcc/arm-none-eabi/4.8.4/../../../../arm-none-eabi/lib/armv7-m\libc.a(lib_a-svfprintf.o)
                                                  c:/program files (x86)/gnu tools arm embedded/4.8 2014q2/bin/../lib/gcc/arm-none-eabi/4.8.4/../../../../arm-none-eabi/lib/armv7-m\libc.a(lib_a-vsnprintf.o)
_times                                            out/newlib_stubs.o
_unlink                                           out/newlib_stubs.o
_vsnprintf_r                                      c:/program files (x86)/gnu tools arm embedded/4.8 2014q2/bin/../lib/gcc/arm-none-eabi/4.8.4/../../../../arm-none-eabi/lib/armv7-m\libc.a(lib_a-vsnprintf.o)
_wait                                             out/newlib_stubs.o
_write                                            out/newlib_stubs.o
atan2f                                            c:/program files (x86)/gnu tools arm embedded/4.8 2014q2/bin/../lib/gcc/arm-none-eabi/4.8.4/../../../../arm-none-eabi/lib/armv7-m\libm.a(lib_a-wf_atan2.o)
                                                  out/engine.o
atanf                                             c:/program files (x86)/gnu tools arm embedded/4.8 2014q2/bin/../lib/gcc/arm-none-eabi/4.8.4/../../../../arm-none-eabi/lib/armv7-m\libm.a(lib_a-sf_atan.o)
                                                  c:/program files (x86)/gnu tools arm embedded/4.8 2014q2/bin/../lib/gcc/arm-none-eabi/4.8.4/../../../../arm-none-eabi/lib/armv7-m\libm.a(lib_a-ef_atan2.o)
autoPan                                           out/engine.o
bDeviceState                                      out/usb_pwr.o
                                                  out/usb_prop.o
                                                  out/hw_config.o
                                                  out/commhandler.o
bIntPackSOF                                       out/usb_istr.o
bootloader                                        out/reboot.o
                                                  out/usb_prop.o
                                                  out/commhandler.o
centerPoint                                       out/engine.o
cleanup_glue                                      c:/program files (x86)/gnu tools arm embedded/4.8 2014q2/bin/../lib/gcc/arm-none-eabi/4.8.4/../../../../arm-none-eabi/lib/armv7-m\libc.a(lib_a-reent.o)
configData                                        out/config.o
                                                  out/commhandler.o
                                                  out/engine.o
configLoad                                        out/config.o
                                                  out/main.o
configSave                                        out/config.o
                                                  out/commhandler.o
constrain                                         out/engine.o
copysign                                          c:/program files (x86)/gnu tools arm embedded/4.8 2014q2/bin/../lib/gcc/arm-none-eabi/4.8.4/../../../../arm-none-eabi/lib/armv7-m\libm.a(lib_a-s_copysign.o)
                                                  c:/program files (x86)/gnu tools arm embedded/4.8 2014q2/bin/../lib/gcc/arm-none-eabi/4.8.4/../../../../arm-none-eabi/lib/armv7-m\libm.a(lib_a-s_scalbn.o)
copysignf                                         c:/program files (x86)/gnu tools arm embedded/4.8 2014q2/bin/../lib/gcc/arm-none-eabi/4.8.4/../../../../arm-none-eabi/lib/armv7-m\libm.a(lib_a-sf_copysign.o)
                                                  c:/program files (x86)/gnu tools arm embedded/4.8 2014q2/bin/../lib/gcc/arm-none-eabi/4.8.4/../../../../arm-none-eabi/lib/armv7-m\libm.a(lib_a-sf_scalbn.o)
cosf                                              c:/program files (x86)/gnu tools arm embedded/4.8 2014q2/bin/../lib/gcc/arm-none-eabi/4.8.4/../../../../arm-none-eabi/lib/armv7-m\libm.a(lib_a-sf_cos.o)
                                                  out/engine.o
debugAutoPan                                      out/engine.o
                                                  out/commhandler.o
debugCnt                                          out/engine.o
                                                  out/commhandler.o
debugLAKITU                                       out/engine.o
                                                  out/commhandler.o
debugOrient                                       out/engine.o
                                                  out/commhandler.o
debugPerf                                         out/engine.o
                                                  out/commhandler.o
debugPrint                                        out/engine.o
                                                  out/commhandler.o
debugRC                                           out/engine.o
                                                  out/commhandler.o
debugSense                                        out/engine.o
                                                  out/commhandler.o
dist                                              out/pwm.o
engineProcess                                     out/engine.o
                                                  out/main.o
environ                                           out/newlib_stubs.o
errno                                             c:/program files (x86)/gnu tools arm embedded/4.8 2014q2/bin/../lib/gcc/arm-none-eabi/4.8.4/../../../../arm-none-eabi/lib/armv7-m\libc.a(lib_a-sbrkr.o)
                                                  c:/program files (x86)/gnu tools arm embedded/4.8 2014q2/bin/../lib/gcc/arm-none-eabi/4.8.4/../../../../arm-none-eabi/lib/armv7-m\libc.a(lib_a-reent.o)
                                                  out/newlib_stubs.o
esof_counter                                      out/usb_istr.o
fSuspendEnabled                                   out/usb_pwr.o
fabs                                              c:/program files (x86)/gnu tools arm embedded/4.8 2014q2/bin/../lib/gcc/arm-none-eabi/4.8.4/../../../../arm-none-eabi/lib/armv7-m\libm.a(lib_a-s_fabs.o)
                                                  c:/program files (x86)/gnu tools arm embedded/4.8 2014q2/bin/../lib/gcc/arm-none-eabi/4.8.4/../../../../arm-none-eabi/lib/armv7-m\libm.a(lib_a-e_rem_pio2.o)
fabsf                                             c:/program files (x86)/gnu tools arm embedded/4.8 2014q2/bin/../lib/gcc/arm-none-eabi/4.8.4/../../../../arm-none-eabi/lib/armv7-m\libm.a(lib_a-sf_fabs.o)
                                                  c:/program files (x86)/gnu tools arm embedded/4.8 2014q2/bin/../lib/gcc/arm-none-eabi/4.8.4/../../../../arm-none-eabi/lib/armv7-m\libm.a(lib_a-sf_atan.o)
                                                  c:/program files (x86)/gnu tools arm embedded/4.8 2014q2/bin/../lib/gcc/arm-none-eabi/4.8.4/../../../../arm-none-eabi/lib/armv7-m\libm.a(lib_a-ef_rem_pio2.o)
                                                  c:/program files (x86)/gnu tools arm embedded/4.8 2014q2/bin/../lib/gcc/arm-none-eabi/4.8.4/../../../../arm-none-eabi/lib/armv7-m\libm.a(lib_a-ef_atan2.o)
fastSin                                           out/fasttrig.o
floor                                             c:/program files (x86)/gnu tools arm embedded/4.8 2014q2/bin/../lib/gcc/arm-none-eabi/4.8.4/../../../../arm-none-eabi/lib/armv7-m\libm.a(lib_a-s_floor.o)
                                                  c:/program files (x86)/gnu tools arm embedded/4.8 2014q2/bin/../lib/gcc/arm-none-eabi/4.8.4/../../../../arm-none-eabi/lib/armv7-m\libm.a(lib_a-k_rem_pio2.o)
floorf                                            c:/program files (x86)/gnu tools arm embedded/4.8 2014q2/bin/../lib/gcc/arm-none-eabi/4.8.4/../../../../arm-none-eabi/lib/armv7-m\libm.a(lib_a-sf_floor.o)
                                                  c:/program files (x86)/gnu tools arm embedded/4.8 2014q2/bin/../lib/gcc/arm-none-eabi/4.8.4/../../../../arm-none-eabi/lib/armv7-m\libm.a(lib_a-kf_rem_pio2.o)
fmodf                                             c:/program files (x86)/gnu tools arm embedded/4.8 2014q2/bin/../lib/gcc/arm-none-eabi/4.8.4/../../../../arm-none-eabi/lib/armv7-m\libm.a(lib_a-wf_fmod.o)
                                                  out/pwm.o
g_pfnVectors                                      out/startup_stm32f10x_hd.o
                                                  out/reboot.o
                                                  out/system_stm32f10x.o
itoa                                              out/itoa.o
                                                  out/printf.o
linecoding                                        out/usb_prop.o
localeconv                                        c:/program files (x86)/gnu tools arm embedded/4.8 2014q2/bin/../lib/gcc/arm-none-eabi/4.8.4/../../../../arm-none-eabi/lib/armv7-m\libc.a(lib_a-locale.o)
main                                              out/main.o
                                                  out/startup_stm32f10x_hd.o
matherr                                           c:/program files (x86)/gnu tools arm embedded/4.8 2014q2/bin/../lib/gcc/arm-none-eabi/4.8.4/../../../../arm-none-eabi/lib/armv7-m\libm.a(lib_a-s_matherr.o)
                                                  c:/program files (x86)/gnu tools arm embedded/4.8 2014q2/bin/../lib/gcc/arm-none-eabi/4.8.4/../../../../arm-none-eabi/lib/armv7-m\libm.a(lib_a-wf_sqrt.o)
                                                  c:/program files (x86)/gnu tools arm embedded/4.8 2014q2/bin/../lib/gcc/arm-none-eabi/4.8.4/../../../../arm-none-eabi/lib/armv7-m\libm.a(lib_a-wf_fmod.o)
memchr                                            c:/program files (x86)/gnu tools arm embedded/4.8 2014q2/bin/../lib/gcc/arm-none-eabi/4.8.4/../../../../arm-none-eabi/lib/armv7-m\libc.a(lib_a-memchr-stub.o)
                                                  c:/program files (x86)/gnu tools arm embedded/4.8 2014q2/bin/../lib/gcc/arm-none-eabi/4.8.4/../../../../arm-none-eabi/lib/armv7-m\libc.a(lib_a-svfiprintf.o)
                                                  c:/program files (x86)/gnu tools arm embedded/4.8 2014q2/bin/../lib/gcc/arm-none-eabi/4.8.4/../../../../arm-none-eabi/lib/armv7-m\libc.a(lib_a-svfprintf.o)
memcpy                                            c:/program files (x86)/gnu tools arm embedded/4.8 2014q2/bin/../lib/gcc/arm-none-eabi/4.8.4/../../../../arm-none-eabi/lib/armv7-m\libc.a(lib_a-memcpy.o)
                                                  c:/program files (x86)/gnu tools arm embedded/4.8 2014q2/bin/../lib/gcc/arm-none-eabi/4.8.4/../../../../arm-none-eabi/lib/armv7-m\libc.a(lib_a-svfiprintf.o)
                                                  c:/program files (x86)/gnu tools arm embedded/4.8 2014q2/bin/../lib/gcc/arm-none-eabi/4.8.4/../../../../arm-none-eabi/lib/armv7-m\libc.a(lib_a-mprec.o)
                                                  c:/program files (x86)/gnu tools arm embedded/4.8 2014q2/bin/../lib/gcc/arm-none-eabi/4.8.4/../../../../arm-none-eabi/lib/armv7-m\libc.a(lib_a-dtoa.o)
                                                  out/ringbuffer.o
memmove                                           c:/program files (x86)/gnu tools arm embedded/4.8 2014q2/bin/../lib/gcc/arm-none-eabi/4.8.4/../../../../arm-none-eabi/lib/armv7-m\libc.a(lib_a-memmove.o)
                                                  c:/program files (x86)/gnu tools arm embedded/4.8 2014q2/bin/../lib/gcc/arm-none-eabi/4.8.4/../../../../arm-none-eabi/lib/armv7-m\libc.a(lib_a-reallocr.o)
                                                  c:/program files (x86)/gnu tools arm embedded/4.8 2014q2/bin/../lib/gcc/arm-none-eabi/4.8.4/../../../../arm-none-eabi/lib/armv7-m\libc.a(lib_a-svfiprintf.o)
memset                                            c:/program files (x86)/gnu tools arm embedded/4.8 2014q2/bin/../lib/gcc/arm-none-eabi/4.8.4/../../../../arm-none-eabi/lib/armv7-m\libc.a(lib_a-memset.o)
                                                  c:/program files (x86)/gnu tools arm embedded/4.8 2014q2/bin/../lib/gcc/arm-none-eabi/4.8.4/../../../../arm-none-eabi/lib/armv7-m\libc.a(lib_a-callocr.o)
micros                                            out/systick.o
                                                  out/main.o
                                                  out/stopwatch.o
millis                                            out/systick.o
                                                  out/usb_prop.o
                                                  out/main.o
                                                  out/usb.o
pEpInt_IN                                         out/usb_istr.o
                                                  out/usb_int.o
pEpInt_OUT                                        out/usb_istr.o
                                                  out/usb_int.o
pInformation                                      out/usb_prop.o
                                                  out/usb_init.o
                                                  out/usb_core.o
pProperty                                         out/usb_init.o
                                                  out/usb_core.o
pUser_Standard_Requests                           out/usb_init.o
                                                  out/usb_core.o
packetSent                                        out/usb_endp.o
                                                  out/hw_config.o
                                                  out/usb.o
pitch_Error_last                                  out/engine.o
pitch_PID                                         out/engine.o
pitch_angle_correction                            out/engine.o
pitch_setpoint                                    out/engine.o
print                                             out/comio.o
                                                  out/config.o
                                                  out/main.o
                                                  out/commhandler.o
                                                  out/engine.o
printConfig                                       out/config.o
                                                  out/commhandler.o
printDirect                                       out/comio.o
printUSART                                        out/comio.o
                                                  out/commhandler.o
readADC1                                          out/adc.o
reboot                                            out/reboot.o
                                                  out/commhandler.o
receiveBuffer                                     out/usb_endp.o
                                                  out/hw_config.o
receiveLength                                     out/usb_endp.o
                                                  out/hw_config.o
                                                  out/usb.o
remotewakeupon                                    out/usb_pwr.o
roll_Error_last                                   out/engine.o
roll_PID                                          out/engine.o
roll_angle_correction                             out/engine.o
roll_setpoint                                     out/engine.o
scalbn                                            c:/program files (x86)/gnu tools arm embedded/4.8 2014q2/bin/../lib/gcc/arm-none-eabi/4.8.4/../../../../arm-none-eabi/lib/armv7-m\libm.a(lib_a-s_scalbn.o)
                                                  c:/program files (x86)/gnu tools arm embedded/4.8 2014q2/bin/../lib/gcc/arm-none-eabi/4.8.4/../../../../arm-none-eabi/lib/armv7-m\libm.a(lib_a-k_rem_pio2.o)
scalbnf                                           c:/program files (x86)/gnu tools arm embedded/4.8 2014q2/bin/../lib/gcc/arm-none-eabi/4.8.4/../../../../arm-none-eabi/lib/armv7-m\libm.a(lib_a-sf_scalbn.o)
                                                  c:/program files (x86)/gnu tools arm embedded/4.8 2014q2/bin/../lib/gcc/arm-none-eabi/4.8.4/../../../../arm-none-eabi/lib/armv7-m\libm.a(lib_a-kf_rem_pio2.o)
sendLength                                        out/hw_config.o
setlocale                                         c:/program files (x86)/gnu tools arm embedded/4.8 2014q2/bin/../lib/gcc/arm-none-eabi/4.8.4/../../../../arm-none-eabi/lib/armv7-m\libc.a(lib_a-locale.o)
setup                                             out/main.o
setupUSB                                          out/usb.o
                                                  out/comio.o
sin                                               c:/program files (x86)/gnu tools arm embedded/4.8 2014q2/bin/../lib/gcc/arm-none-eabi/4.8.4/../../../../arm-none-eabi/lib/armv7-m\libm.a(lib_a-s_sin.o)
                                                  out/pwm.o
sinDataI16                                        out/fasttrig.o
                                                  out/pwm.o
sinf                                              c:/program files (x86)/gnu tools arm embedded/4.8 2014q2/bin/../lib/gcc/arm-none-eabi/4.8.4/../../../../arm-none-eabi/lib/armv7-m\libm.a(lib_a-sf_sin.o)
                                                  out/fasttrig.o
                                                  out/pwm.o
                                                  out/engine.o
sprintf_                                          out/printf.o
sqrtf                                             c:/program files (x86)/gnu tools arm embedded/4.8 2014q2/bin/../lib/gcc/arm-none-eabi/4.8.4/../../../../arm-none-eabi/lib/armv7-m\libm.a(lib_a-wf_sqrt.o)
                                                  out/engine.o
step                                              out/engine.o
stepSmooth                                        out/engine.o
strcmp                                            c:/program files (x86)/gnu tools arm embedded/4.8 2014q2/bin/../lib/gcc/arm-none-eabi/4.8.4/../../../../arm-none-eabi/lib/armv7-m\libc.a(lib_a-strcmp.o)
                                                  c:/program files (x86)/gnu tools arm embedded/4.8 2014q2/bin/../lib/gcc/arm-none-eabi/4.8.4/../../../../arm-none-eabi/lib/armv7-m\libc.a(lib_a-locale.o)
strlen                                            c:/program files (x86)/gnu tools arm embedded/4.8 2014q2/bin/../lib/gcc/arm-none-eabi/4.8.4/../../../../arm-none-eabi/lib/armv7-m\libc.a(lib_a-strlen.o)
                                                  c:/program files (x86)/gnu tools arm embedded/4.8 2014q2/bin/../lib/gcc/arm-none-eabi/4.8.4/../../../../arm-none-eabi/lib/armv7-m\libc.a(lib_a-svfiprintf.o)
                                                  c:/program files (x86)/gnu tools arm embedded/4.8 2014q2/bin/../lib/gcc/arm-none-eabi/4.8.4/../../../../arm-none-eabi/lib/armv7-m\libc.a(lib_a-svfprintf.o)
                                                  out/comio.o
testPhase                                         out/pwm.o
                                                  out/commhandler.o
timer_1_8_deadtime_register                       out/pwm.o
timer_4_5_deadtime_delay                          out/pwm.o
usbBytesAvailable                                 out/usb.o
                                                  out/comio.o
usbDisableBlockingTx                              out/usb.o
usbDsbISR                                         out/usb.o
usbEnableBlockingTx                               out/usb.o
usbIsConfigured                                   out/hw_config.o
usbIsConnected                                    out/hw_config.o
                                                  out/usb.o
usbOverrun                                        out/usb.o
                                                  out/engine.o
usbReceiveBytes                                   out/usb.o
                                                  out/comio.o
usbSendBytes                                      out/usb.o
                                                  out/comio.o
vsnprintf                                         c:/program files (x86)/gnu tools arm embedded/4.8 2014q2/bin/../lib/gcc/arm-none-eabi/4.8.4/../../../../arm-none-eabi/lib/armv7-m\libc.a(lib_a-vsnprintf.o)
                                                  out/comio.o
wCNTR                                             out/usb_istr.o
wInterrupt_Mask                                   out/usb_istr.o
                                                  out/usb_pwr.o
                                                  out/usb_init.o
                                                  out/usb_sil.o
wIstr                                             out/usb_istr.o
                                                  out/usb_int.o
yaw_Error_last                                    out/engine.o
yaw_PID                                           out/engine.o
yaw_angle_correction                              out/engine.o
yaw_setpoint                                      out/engine.o
