
out/STM32Gimbal.USB.elf:     file format elf32-littlearm


Disassembly of section .text:

080041e8 <__aeabi_drsub>:
 80041e8:	f081 4100 	eor.w	r1, r1, #2147483648	; 0x80000000
 80041ec:	e002      	b.n	80041f4 <__adddf3>
 80041ee:	bf00      	nop

080041f0 <__aeabi_dsub>:
 80041f0:	f083 4300 	eor.w	r3, r3, #2147483648	; 0x80000000

080041f4 <__adddf3>:
 80041f4:	b530      	push	{r4, r5, lr}
 80041f6:	ea4f 0441 	mov.w	r4, r1, lsl #1
 80041fa:	ea4f 0543 	mov.w	r5, r3, lsl #1
 80041fe:	ea94 0f05 	teq	r4, r5
 8004202:	bf08      	it	eq
 8004204:	ea90 0f02 	teqeq	r0, r2
 8004208:	bf1f      	itttt	ne
 800420a:	ea54 0c00 	orrsne.w	ip, r4, r0
 800420e:	ea55 0c02 	orrsne.w	ip, r5, r2
 8004212:	ea7f 5c64 	mvnsne.w	ip, r4, asr #21
 8004216:	ea7f 5c65 	mvnsne.w	ip, r5, asr #21
 800421a:	f000 80e2 	beq.w	80043e2 <__adddf3+0x1ee>
 800421e:	ea4f 5454 	mov.w	r4, r4, lsr #21
 8004222:	ebd4 5555 	rsbs	r5, r4, r5, lsr #21
 8004226:	bfb8      	it	lt
 8004228:	426d      	neglt	r5, r5
 800422a:	dd0c      	ble.n	8004246 <__adddf3+0x52>
 800422c:	442c      	add	r4, r5
 800422e:	ea80 0202 	eor.w	r2, r0, r2
 8004232:	ea81 0303 	eor.w	r3, r1, r3
 8004236:	ea82 0000 	eor.w	r0, r2, r0
 800423a:	ea83 0101 	eor.w	r1, r3, r1
 800423e:	ea80 0202 	eor.w	r2, r0, r2
 8004242:	ea81 0303 	eor.w	r3, r1, r3
 8004246:	2d36      	cmp	r5, #54	; 0x36
 8004248:	bf88      	it	hi
 800424a:	bd30      	pophi	{r4, r5, pc}
 800424c:	f011 4f00 	tst.w	r1, #2147483648	; 0x80000000
 8004250:	ea4f 3101 	mov.w	r1, r1, lsl #12
 8004254:	f44f 1c80 	mov.w	ip, #1048576	; 0x100000
 8004258:	ea4c 3111 	orr.w	r1, ip, r1, lsr #12
 800425c:	d002      	beq.n	8004264 <__adddf3+0x70>
 800425e:	4240      	negs	r0, r0
 8004260:	eb61 0141 	sbc.w	r1, r1, r1, lsl #1
 8004264:	f013 4f00 	tst.w	r3, #2147483648	; 0x80000000
 8004268:	ea4f 3303 	mov.w	r3, r3, lsl #12
 800426c:	ea4c 3313 	orr.w	r3, ip, r3, lsr #12
 8004270:	d002      	beq.n	8004278 <__adddf3+0x84>
 8004272:	4252      	negs	r2, r2
 8004274:	eb63 0343 	sbc.w	r3, r3, r3, lsl #1
 8004278:	ea94 0f05 	teq	r4, r5
 800427c:	f000 80a7 	beq.w	80043ce <__adddf3+0x1da>
 8004280:	f1a4 0401 	sub.w	r4, r4, #1
 8004284:	f1d5 0e20 	rsbs	lr, r5, #32
 8004288:	db0d      	blt.n	80042a6 <__adddf3+0xb2>
 800428a:	fa02 fc0e 	lsl.w	ip, r2, lr
 800428e:	fa22 f205 	lsr.w	r2, r2, r5
 8004292:	1880      	adds	r0, r0, r2
 8004294:	f141 0100 	adc.w	r1, r1, #0
 8004298:	fa03 f20e 	lsl.w	r2, r3, lr
 800429c:	1880      	adds	r0, r0, r2
 800429e:	fa43 f305 	asr.w	r3, r3, r5
 80042a2:	4159      	adcs	r1, r3
 80042a4:	e00e      	b.n	80042c4 <__adddf3+0xd0>
 80042a6:	f1a5 0520 	sub.w	r5, r5, #32
 80042aa:	f10e 0e20 	add.w	lr, lr, #32
 80042ae:	2a01      	cmp	r2, #1
 80042b0:	fa03 fc0e 	lsl.w	ip, r3, lr
 80042b4:	bf28      	it	cs
 80042b6:	f04c 0c02 	orrcs.w	ip, ip, #2
 80042ba:	fa43 f305 	asr.w	r3, r3, r5
 80042be:	18c0      	adds	r0, r0, r3
 80042c0:	eb51 71e3 	adcs.w	r1, r1, r3, asr #31
 80042c4:	f001 4500 	and.w	r5, r1, #2147483648	; 0x80000000
 80042c8:	d507      	bpl.n	80042da <__adddf3+0xe6>
 80042ca:	f04f 0e00 	mov.w	lr, #0
 80042ce:	f1dc 0c00 	rsbs	ip, ip, #0
 80042d2:	eb7e 0000 	sbcs.w	r0, lr, r0
 80042d6:	eb6e 0101 	sbc.w	r1, lr, r1
 80042da:	f5b1 1f80 	cmp.w	r1, #1048576	; 0x100000
 80042de:	d31b      	bcc.n	8004318 <__adddf3+0x124>
 80042e0:	f5b1 1f00 	cmp.w	r1, #2097152	; 0x200000
 80042e4:	d30c      	bcc.n	8004300 <__adddf3+0x10c>
 80042e6:	0849      	lsrs	r1, r1, #1
 80042e8:	ea5f 0030 	movs.w	r0, r0, rrx
 80042ec:	ea4f 0c3c 	mov.w	ip, ip, rrx
 80042f0:	f104 0401 	add.w	r4, r4, #1
 80042f4:	ea4f 5244 	mov.w	r2, r4, lsl #21
 80042f8:	f512 0f80 	cmn.w	r2, #4194304	; 0x400000
 80042fc:	f080 809a 	bcs.w	8004434 <__adddf3+0x240>
 8004300:	f1bc 4f00 	cmp.w	ip, #2147483648	; 0x80000000
 8004304:	bf08      	it	eq
 8004306:	ea5f 0c50 	movseq.w	ip, r0, lsr #1
 800430a:	f150 0000 	adcs.w	r0, r0, #0
 800430e:	eb41 5104 	adc.w	r1, r1, r4, lsl #20
 8004312:	ea41 0105 	orr.w	r1, r1, r5
 8004316:	bd30      	pop	{r4, r5, pc}
 8004318:	ea5f 0c4c 	movs.w	ip, ip, lsl #1
 800431c:	4140      	adcs	r0, r0
 800431e:	eb41 0101 	adc.w	r1, r1, r1
 8004322:	f411 1f80 	tst.w	r1, #1048576	; 0x100000
 8004326:	f1a4 0401 	sub.w	r4, r4, #1
 800432a:	d1e9      	bne.n	8004300 <__adddf3+0x10c>
 800432c:	f091 0f00 	teq	r1, #0
 8004330:	bf04      	itt	eq
 8004332:	4601      	moveq	r1, r0
 8004334:	2000      	moveq	r0, #0
 8004336:	fab1 f381 	clz	r3, r1
 800433a:	bf08      	it	eq
 800433c:	3320      	addeq	r3, #32
 800433e:	f1a3 030b 	sub.w	r3, r3, #11
 8004342:	f1b3 0220 	subs.w	r2, r3, #32
 8004346:	da0c      	bge.n	8004362 <__adddf3+0x16e>
 8004348:	320c      	adds	r2, #12
 800434a:	dd08      	ble.n	800435e <__adddf3+0x16a>
 800434c:	f102 0c14 	add.w	ip, r2, #20
 8004350:	f1c2 020c 	rsb	r2, r2, #12
 8004354:	fa01 f00c 	lsl.w	r0, r1, ip
 8004358:	fa21 f102 	lsr.w	r1, r1, r2
 800435c:	e00c      	b.n	8004378 <__adddf3+0x184>
 800435e:	f102 0214 	add.w	r2, r2, #20
 8004362:	bfd8      	it	le
 8004364:	f1c2 0c20 	rsble	ip, r2, #32
 8004368:	fa01 f102 	lsl.w	r1, r1, r2
 800436c:	fa20 fc0c 	lsr.w	ip, r0, ip
 8004370:	bfdc      	itt	le
 8004372:	ea41 010c 	orrle.w	r1, r1, ip
 8004376:	4090      	lslle	r0, r2
 8004378:	1ae4      	subs	r4, r4, r3
 800437a:	bfa2      	ittt	ge
 800437c:	eb01 5104 	addge.w	r1, r1, r4, lsl #20
 8004380:	4329      	orrge	r1, r5
 8004382:	bd30      	popge	{r4, r5, pc}
 8004384:	ea6f 0404 	mvn.w	r4, r4
 8004388:	3c1f      	subs	r4, #31
 800438a:	da1c      	bge.n	80043c6 <__adddf3+0x1d2>
 800438c:	340c      	adds	r4, #12
 800438e:	dc0e      	bgt.n	80043ae <__adddf3+0x1ba>
 8004390:	f104 0414 	add.w	r4, r4, #20
 8004394:	f1c4 0220 	rsb	r2, r4, #32
 8004398:	fa20 f004 	lsr.w	r0, r0, r4
 800439c:	fa01 f302 	lsl.w	r3, r1, r2
 80043a0:	ea40 0003 	orr.w	r0, r0, r3
 80043a4:	fa21 f304 	lsr.w	r3, r1, r4
 80043a8:	ea45 0103 	orr.w	r1, r5, r3
 80043ac:	bd30      	pop	{r4, r5, pc}
 80043ae:	f1c4 040c 	rsb	r4, r4, #12
 80043b2:	f1c4 0220 	rsb	r2, r4, #32
 80043b6:	fa20 f002 	lsr.w	r0, r0, r2
 80043ba:	fa01 f304 	lsl.w	r3, r1, r4
 80043be:	ea40 0003 	orr.w	r0, r0, r3
 80043c2:	4629      	mov	r1, r5
 80043c4:	bd30      	pop	{r4, r5, pc}
 80043c6:	fa21 f004 	lsr.w	r0, r1, r4
 80043ca:	4629      	mov	r1, r5
 80043cc:	bd30      	pop	{r4, r5, pc}
 80043ce:	f094 0f00 	teq	r4, #0
 80043d2:	f483 1380 	eor.w	r3, r3, #1048576	; 0x100000
 80043d6:	bf06      	itte	eq
 80043d8:	f481 1180 	eoreq.w	r1, r1, #1048576	; 0x100000
 80043dc:	3401      	addeq	r4, #1
 80043de:	3d01      	subne	r5, #1
 80043e0:	e74e      	b.n	8004280 <__adddf3+0x8c>
 80043e2:	ea7f 5c64 	mvns.w	ip, r4, asr #21
 80043e6:	bf18      	it	ne
 80043e8:	ea7f 5c65 	mvnsne.w	ip, r5, asr #21
 80043ec:	d029      	beq.n	8004442 <__adddf3+0x24e>
 80043ee:	ea94 0f05 	teq	r4, r5
 80043f2:	bf08      	it	eq
 80043f4:	ea90 0f02 	teqeq	r0, r2
 80043f8:	d005      	beq.n	8004406 <__adddf3+0x212>
 80043fa:	ea54 0c00 	orrs.w	ip, r4, r0
 80043fe:	bf04      	itt	eq
 8004400:	4619      	moveq	r1, r3
 8004402:	4610      	moveq	r0, r2
 8004404:	bd30      	pop	{r4, r5, pc}
 8004406:	ea91 0f03 	teq	r1, r3
 800440a:	bf1e      	ittt	ne
 800440c:	2100      	movne	r1, #0
 800440e:	2000      	movne	r0, #0
 8004410:	bd30      	popne	{r4, r5, pc}
 8004412:	ea5f 5c54 	movs.w	ip, r4, lsr #21
 8004416:	d105      	bne.n	8004424 <__adddf3+0x230>
 8004418:	0040      	lsls	r0, r0, #1
 800441a:	4149      	adcs	r1, r1
 800441c:	bf28      	it	cs
 800441e:	f041 4100 	orrcs.w	r1, r1, #2147483648	; 0x80000000
 8004422:	bd30      	pop	{r4, r5, pc}
 8004424:	f514 0480 	adds.w	r4, r4, #4194304	; 0x400000
 8004428:	bf3c      	itt	cc
 800442a:	f501 1180 	addcc.w	r1, r1, #1048576	; 0x100000
 800442e:	bd30      	popcc	{r4, r5, pc}
 8004430:	f001 4500 	and.w	r5, r1, #2147483648	; 0x80000000
 8004434:	f045 41fe 	orr.w	r1, r5, #2130706432	; 0x7f000000
 8004438:	f441 0170 	orr.w	r1, r1, #15728640	; 0xf00000
 800443c:	f04f 0000 	mov.w	r0, #0
 8004440:	bd30      	pop	{r4, r5, pc}
 8004442:	ea7f 5c64 	mvns.w	ip, r4, asr #21
 8004446:	bf1a      	itte	ne
 8004448:	4619      	movne	r1, r3
 800444a:	4610      	movne	r0, r2
 800444c:	ea7f 5c65 	mvnseq.w	ip, r5, asr #21
 8004450:	bf1c      	itt	ne
 8004452:	460b      	movne	r3, r1
 8004454:	4602      	movne	r2, r0
 8004456:	ea50 3401 	orrs.w	r4, r0, r1, lsl #12
 800445a:	bf06      	itte	eq
 800445c:	ea52 3503 	orrseq.w	r5, r2, r3, lsl #12
 8004460:	ea91 0f03 	teqeq	r1, r3
 8004464:	f441 2100 	orrne.w	r1, r1, #524288	; 0x80000
 8004468:	bd30      	pop	{r4, r5, pc}
 800446a:	bf00      	nop

0800446c <__aeabi_ui2d>:
 800446c:	f090 0f00 	teq	r0, #0
 8004470:	bf04      	itt	eq
 8004472:	2100      	moveq	r1, #0
 8004474:	4770      	bxeq	lr
 8004476:	b530      	push	{r4, r5, lr}
 8004478:	f44f 6480 	mov.w	r4, #1024	; 0x400
 800447c:	f104 0432 	add.w	r4, r4, #50	; 0x32
 8004480:	f04f 0500 	mov.w	r5, #0
 8004484:	f04f 0100 	mov.w	r1, #0
 8004488:	e750      	b.n	800432c <__adddf3+0x138>
 800448a:	bf00      	nop

0800448c <__aeabi_i2d>:
 800448c:	f090 0f00 	teq	r0, #0
 8004490:	bf04      	itt	eq
 8004492:	2100      	moveq	r1, #0
 8004494:	4770      	bxeq	lr
 8004496:	b530      	push	{r4, r5, lr}
 8004498:	f44f 6480 	mov.w	r4, #1024	; 0x400
 800449c:	f104 0432 	add.w	r4, r4, #50	; 0x32
 80044a0:	f010 4500 	ands.w	r5, r0, #2147483648	; 0x80000000
 80044a4:	bf48      	it	mi
 80044a6:	4240      	negmi	r0, r0
 80044a8:	f04f 0100 	mov.w	r1, #0
 80044ac:	e73e      	b.n	800432c <__adddf3+0x138>
 80044ae:	bf00      	nop

080044b0 <__aeabi_f2d>:
 80044b0:	0042      	lsls	r2, r0, #1
 80044b2:	ea4f 01e2 	mov.w	r1, r2, asr #3
 80044b6:	ea4f 0131 	mov.w	r1, r1, rrx
 80044ba:	ea4f 7002 	mov.w	r0, r2, lsl #28
 80044be:	bf1f      	itttt	ne
 80044c0:	f012 437f 	andsne.w	r3, r2, #4278190080	; 0xff000000
 80044c4:	f093 4f7f 	teqne	r3, #4278190080	; 0xff000000
 80044c8:	f081 5160 	eorne.w	r1, r1, #939524096	; 0x38000000
 80044cc:	4770      	bxne	lr
 80044ce:	f092 0f00 	teq	r2, #0
 80044d2:	bf14      	ite	ne
 80044d4:	f093 4f7f 	teqne	r3, #4278190080	; 0xff000000
 80044d8:	4770      	bxeq	lr
 80044da:	b530      	push	{r4, r5, lr}
 80044dc:	f44f 7460 	mov.w	r4, #896	; 0x380
 80044e0:	f001 4500 	and.w	r5, r1, #2147483648	; 0x80000000
 80044e4:	f021 4100 	bic.w	r1, r1, #2147483648	; 0x80000000
 80044e8:	e720      	b.n	800432c <__adddf3+0x138>
 80044ea:	bf00      	nop

080044ec <__aeabi_ul2d>:
 80044ec:	ea50 0201 	orrs.w	r2, r0, r1
 80044f0:	bf08      	it	eq
 80044f2:	4770      	bxeq	lr
 80044f4:	b530      	push	{r4, r5, lr}
 80044f6:	f04f 0500 	mov.w	r5, #0
 80044fa:	e00a      	b.n	8004512 <__aeabi_l2d+0x16>

080044fc <__aeabi_l2d>:
 80044fc:	ea50 0201 	orrs.w	r2, r0, r1
 8004500:	bf08      	it	eq
 8004502:	4770      	bxeq	lr
 8004504:	b530      	push	{r4, r5, lr}
 8004506:	f011 4500 	ands.w	r5, r1, #2147483648	; 0x80000000
 800450a:	d502      	bpl.n	8004512 <__aeabi_l2d+0x16>
 800450c:	4240      	negs	r0, r0
 800450e:	eb61 0141 	sbc.w	r1, r1, r1, lsl #1
 8004512:	f44f 6480 	mov.w	r4, #1024	; 0x400
 8004516:	f104 0432 	add.w	r4, r4, #50	; 0x32
 800451a:	ea5f 5c91 	movs.w	ip, r1, lsr #22
 800451e:	f43f aedc 	beq.w	80042da <__adddf3+0xe6>
 8004522:	f04f 0203 	mov.w	r2, #3
 8004526:	ea5f 0cdc 	movs.w	ip, ip, lsr #3
 800452a:	bf18      	it	ne
 800452c:	3203      	addne	r2, #3
 800452e:	ea5f 0cdc 	movs.w	ip, ip, lsr #3
 8004532:	bf18      	it	ne
 8004534:	3203      	addne	r2, #3
 8004536:	eb02 02dc 	add.w	r2, r2, ip, lsr #3
 800453a:	f1c2 0320 	rsb	r3, r2, #32
 800453e:	fa00 fc03 	lsl.w	ip, r0, r3
 8004542:	fa20 f002 	lsr.w	r0, r0, r2
 8004546:	fa01 fe03 	lsl.w	lr, r1, r3
 800454a:	ea40 000e 	orr.w	r0, r0, lr
 800454e:	fa21 f102 	lsr.w	r1, r1, r2
 8004552:	4414      	add	r4, r2
 8004554:	e6c1      	b.n	80042da <__adddf3+0xe6>
 8004556:	bf00      	nop

08004558 <__aeabi_dmul>:
 8004558:	b570      	push	{r4, r5, r6, lr}
 800455a:	f04f 0cff 	mov.w	ip, #255	; 0xff
 800455e:	f44c 6ce0 	orr.w	ip, ip, #1792	; 0x700
 8004562:	ea1c 5411 	ands.w	r4, ip, r1, lsr #20
 8004566:	bf1d      	ittte	ne
 8004568:	ea1c 5513 	andsne.w	r5, ip, r3, lsr #20
 800456c:	ea94 0f0c 	teqne	r4, ip
 8004570:	ea95 0f0c 	teqne	r5, ip
 8004574:	f000 f8de 	bleq	8004734 <__aeabi_dmul+0x1dc>
 8004578:	442c      	add	r4, r5
 800457a:	ea81 0603 	eor.w	r6, r1, r3
 800457e:	ea21 514c 	bic.w	r1, r1, ip, lsl #21
 8004582:	ea23 534c 	bic.w	r3, r3, ip, lsl #21
 8004586:	ea50 3501 	orrs.w	r5, r0, r1, lsl #12
 800458a:	bf18      	it	ne
 800458c:	ea52 3503 	orrsne.w	r5, r2, r3, lsl #12
 8004590:	f441 1180 	orr.w	r1, r1, #1048576	; 0x100000
 8004594:	f443 1380 	orr.w	r3, r3, #1048576	; 0x100000
 8004598:	d038      	beq.n	800460c <__aeabi_dmul+0xb4>
 800459a:	fba0 ce02 	umull	ip, lr, r0, r2
 800459e:	f04f 0500 	mov.w	r5, #0
 80045a2:	fbe1 e502 	umlal	lr, r5, r1, r2
 80045a6:	f006 4200 	and.w	r2, r6, #2147483648	; 0x80000000
 80045aa:	fbe0 e503 	umlal	lr, r5, r0, r3
 80045ae:	f04f 0600 	mov.w	r6, #0
 80045b2:	fbe1 5603 	umlal	r5, r6, r1, r3
 80045b6:	f09c 0f00 	teq	ip, #0
 80045ba:	bf18      	it	ne
 80045bc:	f04e 0e01 	orrne.w	lr, lr, #1
 80045c0:	f1a4 04ff 	sub.w	r4, r4, #255	; 0xff
 80045c4:	f5b6 7f00 	cmp.w	r6, #512	; 0x200
 80045c8:	f564 7440 	sbc.w	r4, r4, #768	; 0x300
 80045cc:	d204      	bcs.n	80045d8 <__aeabi_dmul+0x80>
 80045ce:	ea5f 0e4e 	movs.w	lr, lr, lsl #1
 80045d2:	416d      	adcs	r5, r5
 80045d4:	eb46 0606 	adc.w	r6, r6, r6
 80045d8:	ea42 21c6 	orr.w	r1, r2, r6, lsl #11
 80045dc:	ea41 5155 	orr.w	r1, r1, r5, lsr #21
 80045e0:	ea4f 20c5 	mov.w	r0, r5, lsl #11
 80045e4:	ea40 505e 	orr.w	r0, r0, lr, lsr #21
 80045e8:	ea4f 2ece 	mov.w	lr, lr, lsl #11
 80045ec:	f1b4 0cfd 	subs.w	ip, r4, #253	; 0xfd
 80045f0:	bf88      	it	hi
 80045f2:	f5bc 6fe0 	cmphi.w	ip, #1792	; 0x700
 80045f6:	d81e      	bhi.n	8004636 <__aeabi_dmul+0xde>
 80045f8:	f1be 4f00 	cmp.w	lr, #2147483648	; 0x80000000
 80045fc:	bf08      	it	eq
 80045fe:	ea5f 0e50 	movseq.w	lr, r0, lsr #1
 8004602:	f150 0000 	adcs.w	r0, r0, #0
 8004606:	eb41 5104 	adc.w	r1, r1, r4, lsl #20
 800460a:	bd70      	pop	{r4, r5, r6, pc}
 800460c:	f006 4600 	and.w	r6, r6, #2147483648	; 0x80000000
 8004610:	ea46 0101 	orr.w	r1, r6, r1
 8004614:	ea40 0002 	orr.w	r0, r0, r2
 8004618:	ea81 0103 	eor.w	r1, r1, r3
 800461c:	ebb4 045c 	subs.w	r4, r4, ip, lsr #1
 8004620:	bfc2      	ittt	gt
 8004622:	ebd4 050c 	rsbsgt	r5, r4, ip
 8004626:	ea41 5104 	orrgt.w	r1, r1, r4, lsl #20
 800462a:	bd70      	popgt	{r4, r5, r6, pc}
 800462c:	f441 1180 	orr.w	r1, r1, #1048576	; 0x100000
 8004630:	f04f 0e00 	mov.w	lr, #0
 8004634:	3c01      	subs	r4, #1
 8004636:	f300 80ab 	bgt.w	8004790 <__aeabi_dmul+0x238>
 800463a:	f114 0f36 	cmn.w	r4, #54	; 0x36
 800463e:	bfde      	ittt	le
 8004640:	2000      	movle	r0, #0
 8004642:	f001 4100 	andle.w	r1, r1, #2147483648	; 0x80000000
 8004646:	bd70      	pople	{r4, r5, r6, pc}
 8004648:	f1c4 0400 	rsb	r4, r4, #0
 800464c:	3c20      	subs	r4, #32
 800464e:	da35      	bge.n	80046bc <__aeabi_dmul+0x164>
 8004650:	340c      	adds	r4, #12
 8004652:	dc1b      	bgt.n	800468c <__aeabi_dmul+0x134>
 8004654:	f104 0414 	add.w	r4, r4, #20
 8004658:	f1c4 0520 	rsb	r5, r4, #32
 800465c:	fa00 f305 	lsl.w	r3, r0, r5
 8004660:	fa20 f004 	lsr.w	r0, r0, r4
 8004664:	fa01 f205 	lsl.w	r2, r1, r5
 8004668:	ea40 0002 	orr.w	r0, r0, r2
 800466c:	f001 4200 	and.w	r2, r1, #2147483648	; 0x80000000
 8004670:	f021 4100 	bic.w	r1, r1, #2147483648	; 0x80000000
 8004674:	eb10 70d3 	adds.w	r0, r0, r3, lsr #31
 8004678:	fa21 f604 	lsr.w	r6, r1, r4
 800467c:	eb42 0106 	adc.w	r1, r2, r6
 8004680:	ea5e 0e43 	orrs.w	lr, lr, r3, lsl #1
 8004684:	bf08      	it	eq
 8004686:	ea20 70d3 	biceq.w	r0, r0, r3, lsr #31
 800468a:	bd70      	pop	{r4, r5, r6, pc}
 800468c:	f1c4 040c 	rsb	r4, r4, #12
 8004690:	f1c4 0520 	rsb	r5, r4, #32
 8004694:	fa00 f304 	lsl.w	r3, r0, r4
 8004698:	fa20 f005 	lsr.w	r0, r0, r5
 800469c:	fa01 f204 	lsl.w	r2, r1, r4
 80046a0:	ea40 0002 	orr.w	r0, r0, r2
 80046a4:	f001 4100 	and.w	r1, r1, #2147483648	; 0x80000000
 80046a8:	eb10 70d3 	adds.w	r0, r0, r3, lsr #31
 80046ac:	f141 0100 	adc.w	r1, r1, #0
 80046b0:	ea5e 0e43 	orrs.w	lr, lr, r3, lsl #1
 80046b4:	bf08      	it	eq
 80046b6:	ea20 70d3 	biceq.w	r0, r0, r3, lsr #31
 80046ba:	bd70      	pop	{r4, r5, r6, pc}
 80046bc:	f1c4 0520 	rsb	r5, r4, #32
 80046c0:	fa00 f205 	lsl.w	r2, r0, r5
 80046c4:	ea4e 0e02 	orr.w	lr, lr, r2
 80046c8:	fa20 f304 	lsr.w	r3, r0, r4
 80046cc:	fa01 f205 	lsl.w	r2, r1, r5
 80046d0:	ea43 0302 	orr.w	r3, r3, r2
 80046d4:	fa21 f004 	lsr.w	r0, r1, r4
 80046d8:	f001 4100 	and.w	r1, r1, #2147483648	; 0x80000000
 80046dc:	fa21 f204 	lsr.w	r2, r1, r4
 80046e0:	ea20 0002 	bic.w	r0, r0, r2
 80046e4:	eb00 70d3 	add.w	r0, r0, r3, lsr #31
 80046e8:	ea5e 0e43 	orrs.w	lr, lr, r3, lsl #1
 80046ec:	bf08      	it	eq
 80046ee:	ea20 70d3 	biceq.w	r0, r0, r3, lsr #31
 80046f2:	bd70      	pop	{r4, r5, r6, pc}
 80046f4:	f094 0f00 	teq	r4, #0
 80046f8:	d10f      	bne.n	800471a <__aeabi_dmul+0x1c2>
 80046fa:	f001 4600 	and.w	r6, r1, #2147483648	; 0x80000000
 80046fe:	0040      	lsls	r0, r0, #1
 8004700:	eb41 0101 	adc.w	r1, r1, r1
 8004704:	f411 1f80 	tst.w	r1, #1048576	; 0x100000
 8004708:	bf08      	it	eq
 800470a:	3c01      	subeq	r4, #1
 800470c:	d0f7      	beq.n	80046fe <__aeabi_dmul+0x1a6>
 800470e:	ea41 0106 	orr.w	r1, r1, r6
 8004712:	f095 0f00 	teq	r5, #0
 8004716:	bf18      	it	ne
 8004718:	4770      	bxne	lr
 800471a:	f003 4600 	and.w	r6, r3, #2147483648	; 0x80000000
 800471e:	0052      	lsls	r2, r2, #1
 8004720:	eb43 0303 	adc.w	r3, r3, r3
 8004724:	f413 1f80 	tst.w	r3, #1048576	; 0x100000
 8004728:	bf08      	it	eq
 800472a:	3d01      	subeq	r5, #1
 800472c:	d0f7      	beq.n	800471e <__aeabi_dmul+0x1c6>
 800472e:	ea43 0306 	orr.w	r3, r3, r6
 8004732:	4770      	bx	lr
 8004734:	ea94 0f0c 	teq	r4, ip
 8004738:	ea0c 5513 	and.w	r5, ip, r3, lsr #20
 800473c:	bf18      	it	ne
 800473e:	ea95 0f0c 	teqne	r5, ip
 8004742:	d00c      	beq.n	800475e <__aeabi_dmul+0x206>
 8004744:	ea50 0641 	orrs.w	r6, r0, r1, lsl #1
 8004748:	bf18      	it	ne
 800474a:	ea52 0643 	orrsne.w	r6, r2, r3, lsl #1
 800474e:	d1d1      	bne.n	80046f4 <__aeabi_dmul+0x19c>
 8004750:	ea81 0103 	eor.w	r1, r1, r3
 8004754:	f001 4100 	and.w	r1, r1, #2147483648	; 0x80000000
 8004758:	f04f 0000 	mov.w	r0, #0
 800475c:	bd70      	pop	{r4, r5, r6, pc}
 800475e:	ea50 0641 	orrs.w	r6, r0, r1, lsl #1
 8004762:	bf06      	itte	eq
 8004764:	4610      	moveq	r0, r2
 8004766:	4619      	moveq	r1, r3
 8004768:	ea52 0643 	orrsne.w	r6, r2, r3, lsl #1
 800476c:	d019      	beq.n	80047a2 <__aeabi_dmul+0x24a>
 800476e:	ea94 0f0c 	teq	r4, ip
 8004772:	d102      	bne.n	800477a <__aeabi_dmul+0x222>
 8004774:	ea50 3601 	orrs.w	r6, r0, r1, lsl #12
 8004778:	d113      	bne.n	80047a2 <__aeabi_dmul+0x24a>
 800477a:	ea95 0f0c 	teq	r5, ip
 800477e:	d105      	bne.n	800478c <__aeabi_dmul+0x234>
 8004780:	ea52 3603 	orrs.w	r6, r2, r3, lsl #12
 8004784:	bf1c      	itt	ne
 8004786:	4610      	movne	r0, r2
 8004788:	4619      	movne	r1, r3
 800478a:	d10a      	bne.n	80047a2 <__aeabi_dmul+0x24a>
 800478c:	ea81 0103 	eor.w	r1, r1, r3
 8004790:	f001 4100 	and.w	r1, r1, #2147483648	; 0x80000000
 8004794:	f041 41fe 	orr.w	r1, r1, #2130706432	; 0x7f000000
 8004798:	f441 0170 	orr.w	r1, r1, #15728640	; 0xf00000
 800479c:	f04f 0000 	mov.w	r0, #0
 80047a0:	bd70      	pop	{r4, r5, r6, pc}
 80047a2:	f041 41fe 	orr.w	r1, r1, #2130706432	; 0x7f000000
 80047a6:	f441 0178 	orr.w	r1, r1, #16252928	; 0xf80000
 80047aa:	bd70      	pop	{r4, r5, r6, pc}

080047ac <__aeabi_ddiv>:
 80047ac:	b570      	push	{r4, r5, r6, lr}
 80047ae:	f04f 0cff 	mov.w	ip, #255	; 0xff
 80047b2:	f44c 6ce0 	orr.w	ip, ip, #1792	; 0x700
 80047b6:	ea1c 5411 	ands.w	r4, ip, r1, lsr #20
 80047ba:	bf1d      	ittte	ne
 80047bc:	ea1c 5513 	andsne.w	r5, ip, r3, lsr #20
 80047c0:	ea94 0f0c 	teqne	r4, ip
 80047c4:	ea95 0f0c 	teqne	r5, ip
 80047c8:	f000 f8a7 	bleq	800491a <__aeabi_ddiv+0x16e>
 80047cc:	eba4 0405 	sub.w	r4, r4, r5
 80047d0:	ea81 0e03 	eor.w	lr, r1, r3
 80047d4:	ea52 3503 	orrs.w	r5, r2, r3, lsl #12
 80047d8:	ea4f 3101 	mov.w	r1, r1, lsl #12
 80047dc:	f000 8088 	beq.w	80048f0 <__aeabi_ddiv+0x144>
 80047e0:	ea4f 3303 	mov.w	r3, r3, lsl #12
 80047e4:	f04f 5580 	mov.w	r5, #268435456	; 0x10000000
 80047e8:	ea45 1313 	orr.w	r3, r5, r3, lsr #4
 80047ec:	ea43 6312 	orr.w	r3, r3, r2, lsr #24
 80047f0:	ea4f 2202 	mov.w	r2, r2, lsl #8
 80047f4:	ea45 1511 	orr.w	r5, r5, r1, lsr #4
 80047f8:	ea45 6510 	orr.w	r5, r5, r0, lsr #24
 80047fc:	ea4f 2600 	mov.w	r6, r0, lsl #8
 8004800:	f00e 4100 	and.w	r1, lr, #2147483648	; 0x80000000
 8004804:	429d      	cmp	r5, r3
 8004806:	bf08      	it	eq
 8004808:	4296      	cmpeq	r6, r2
 800480a:	f144 04fd 	adc.w	r4, r4, #253	; 0xfd
 800480e:	f504 7440 	add.w	r4, r4, #768	; 0x300
 8004812:	d202      	bcs.n	800481a <__aeabi_ddiv+0x6e>
 8004814:	085b      	lsrs	r3, r3, #1
 8004816:	ea4f 0232 	mov.w	r2, r2, rrx
 800481a:	1ab6      	subs	r6, r6, r2
 800481c:	eb65 0503 	sbc.w	r5, r5, r3
 8004820:	085b      	lsrs	r3, r3, #1
 8004822:	ea4f 0232 	mov.w	r2, r2, rrx
 8004826:	f44f 1080 	mov.w	r0, #1048576	; 0x100000
 800482a:	f44f 2c00 	mov.w	ip, #524288	; 0x80000
 800482e:	ebb6 0e02 	subs.w	lr, r6, r2
 8004832:	eb75 0e03 	sbcs.w	lr, r5, r3
 8004836:	bf22      	ittt	cs
 8004838:	1ab6      	subcs	r6, r6, r2
 800483a:	4675      	movcs	r5, lr
 800483c:	ea40 000c 	orrcs.w	r0, r0, ip
 8004840:	085b      	lsrs	r3, r3, #1
 8004842:	ea4f 0232 	mov.w	r2, r2, rrx
 8004846:	ebb6 0e02 	subs.w	lr, r6, r2
 800484a:	eb75 0e03 	sbcs.w	lr, r5, r3
 800484e:	bf22      	ittt	cs
 8004850:	1ab6      	subcs	r6, r6, r2
 8004852:	4675      	movcs	r5, lr
 8004854:	ea40 005c 	orrcs.w	r0, r0, ip, lsr #1
 8004858:	085b      	lsrs	r3, r3, #1
 800485a:	ea4f 0232 	mov.w	r2, r2, rrx
 800485e:	ebb6 0e02 	subs.w	lr, r6, r2
 8004862:	eb75 0e03 	sbcs.w	lr, r5, r3
 8004866:	bf22      	ittt	cs
 8004868:	1ab6      	subcs	r6, r6, r2
 800486a:	4675      	movcs	r5, lr
 800486c:	ea40 009c 	orrcs.w	r0, r0, ip, lsr #2
 8004870:	085b      	lsrs	r3, r3, #1
 8004872:	ea4f 0232 	mov.w	r2, r2, rrx
 8004876:	ebb6 0e02 	subs.w	lr, r6, r2
 800487a:	eb75 0e03 	sbcs.w	lr, r5, r3
 800487e:	bf22      	ittt	cs
 8004880:	1ab6      	subcs	r6, r6, r2
 8004882:	4675      	movcs	r5, lr
 8004884:	ea40 00dc 	orrcs.w	r0, r0, ip, lsr #3
 8004888:	ea55 0e06 	orrs.w	lr, r5, r6
 800488c:	d018      	beq.n	80048c0 <__aeabi_ddiv+0x114>
 800488e:	ea4f 1505 	mov.w	r5, r5, lsl #4
 8004892:	ea45 7516 	orr.w	r5, r5, r6, lsr #28
 8004896:	ea4f 1606 	mov.w	r6, r6, lsl #4
 800489a:	ea4f 03c3 	mov.w	r3, r3, lsl #3
 800489e:	ea43 7352 	orr.w	r3, r3, r2, lsr #29
 80048a2:	ea4f 02c2 	mov.w	r2, r2, lsl #3
 80048a6:	ea5f 1c1c 	movs.w	ip, ip, lsr #4
 80048aa:	d1c0      	bne.n	800482e <__aeabi_ddiv+0x82>
 80048ac:	f411 1f80 	tst.w	r1, #1048576	; 0x100000
 80048b0:	d10b      	bne.n	80048ca <__aeabi_ddiv+0x11e>
 80048b2:	ea41 0100 	orr.w	r1, r1, r0
 80048b6:	f04f 0000 	mov.w	r0, #0
 80048ba:	f04f 4c00 	mov.w	ip, #2147483648	; 0x80000000
 80048be:	e7b6      	b.n	800482e <__aeabi_ddiv+0x82>
 80048c0:	f411 1f80 	tst.w	r1, #1048576	; 0x100000
 80048c4:	bf04      	itt	eq
 80048c6:	4301      	orreq	r1, r0
 80048c8:	2000      	moveq	r0, #0
 80048ca:	f1b4 0cfd 	subs.w	ip, r4, #253	; 0xfd
 80048ce:	bf88      	it	hi
 80048d0:	f5bc 6fe0 	cmphi.w	ip, #1792	; 0x700
 80048d4:	f63f aeaf 	bhi.w	8004636 <__aeabi_dmul+0xde>
 80048d8:	ebb5 0c03 	subs.w	ip, r5, r3
 80048dc:	bf04      	itt	eq
 80048de:	ebb6 0c02 	subseq.w	ip, r6, r2
 80048e2:	ea5f 0c50 	movseq.w	ip, r0, lsr #1
 80048e6:	f150 0000 	adcs.w	r0, r0, #0
 80048ea:	eb41 5104 	adc.w	r1, r1, r4, lsl #20
 80048ee:	bd70      	pop	{r4, r5, r6, pc}
 80048f0:	f00e 4e00 	and.w	lr, lr, #2147483648	; 0x80000000
 80048f4:	ea4e 3111 	orr.w	r1, lr, r1, lsr #12
 80048f8:	eb14 045c 	adds.w	r4, r4, ip, lsr #1
 80048fc:	bfc2      	ittt	gt
 80048fe:	ebd4 050c 	rsbsgt	r5, r4, ip
 8004902:	ea41 5104 	orrgt.w	r1, r1, r4, lsl #20
 8004906:	bd70      	popgt	{r4, r5, r6, pc}
 8004908:	f441 1180 	orr.w	r1, r1, #1048576	; 0x100000
 800490c:	f04f 0e00 	mov.w	lr, #0
 8004910:	3c01      	subs	r4, #1
 8004912:	e690      	b.n	8004636 <__aeabi_dmul+0xde>
 8004914:	ea45 0e06 	orr.w	lr, r5, r6
 8004918:	e68d      	b.n	8004636 <__aeabi_dmul+0xde>
 800491a:	ea0c 5513 	and.w	r5, ip, r3, lsr #20
 800491e:	ea94 0f0c 	teq	r4, ip
 8004922:	bf08      	it	eq
 8004924:	ea95 0f0c 	teqeq	r5, ip
 8004928:	f43f af3b 	beq.w	80047a2 <__aeabi_dmul+0x24a>
 800492c:	ea94 0f0c 	teq	r4, ip
 8004930:	d10a      	bne.n	8004948 <__aeabi_ddiv+0x19c>
 8004932:	ea50 3401 	orrs.w	r4, r0, r1, lsl #12
 8004936:	f47f af34 	bne.w	80047a2 <__aeabi_dmul+0x24a>
 800493a:	ea95 0f0c 	teq	r5, ip
 800493e:	f47f af25 	bne.w	800478c <__aeabi_dmul+0x234>
 8004942:	4610      	mov	r0, r2
 8004944:	4619      	mov	r1, r3
 8004946:	e72c      	b.n	80047a2 <__aeabi_dmul+0x24a>
 8004948:	ea95 0f0c 	teq	r5, ip
 800494c:	d106      	bne.n	800495c <__aeabi_ddiv+0x1b0>
 800494e:	ea52 3503 	orrs.w	r5, r2, r3, lsl #12
 8004952:	f43f aefd 	beq.w	8004750 <__aeabi_dmul+0x1f8>
 8004956:	4610      	mov	r0, r2
 8004958:	4619      	mov	r1, r3
 800495a:	e722      	b.n	80047a2 <__aeabi_dmul+0x24a>
 800495c:	ea50 0641 	orrs.w	r6, r0, r1, lsl #1
 8004960:	bf18      	it	ne
 8004962:	ea52 0643 	orrsne.w	r6, r2, r3, lsl #1
 8004966:	f47f aec5 	bne.w	80046f4 <__aeabi_dmul+0x19c>
 800496a:	ea50 0441 	orrs.w	r4, r0, r1, lsl #1
 800496e:	f47f af0d 	bne.w	800478c <__aeabi_dmul+0x234>
 8004972:	ea52 0543 	orrs.w	r5, r2, r3, lsl #1
 8004976:	f47f aeeb 	bne.w	8004750 <__aeabi_dmul+0x1f8>
 800497a:	e712      	b.n	80047a2 <__aeabi_dmul+0x24a>

0800497c <__gedf2>:
 800497c:	f04f 3cff 	mov.w	ip, #4294967295
 8004980:	e006      	b.n	8004990 <__cmpdf2+0x4>
 8004982:	bf00      	nop

08004984 <__ledf2>:
 8004984:	f04f 0c01 	mov.w	ip, #1
 8004988:	e002      	b.n	8004990 <__cmpdf2+0x4>
 800498a:	bf00      	nop

0800498c <__cmpdf2>:
 800498c:	f04f 0c01 	mov.w	ip, #1
 8004990:	f84d cd04 	str.w	ip, [sp, #-4]!
 8004994:	ea4f 0c41 	mov.w	ip, r1, lsl #1
 8004998:	ea7f 5c6c 	mvns.w	ip, ip, asr #21
 800499c:	ea4f 0c43 	mov.w	ip, r3, lsl #1
 80049a0:	bf18      	it	ne
 80049a2:	ea7f 5c6c 	mvnsne.w	ip, ip, asr #21
 80049a6:	d01b      	beq.n	80049e0 <__cmpdf2+0x54>
 80049a8:	b001      	add	sp, #4
 80049aa:	ea50 0c41 	orrs.w	ip, r0, r1, lsl #1
 80049ae:	bf0c      	ite	eq
 80049b0:	ea52 0c43 	orrseq.w	ip, r2, r3, lsl #1
 80049b4:	ea91 0f03 	teqne	r1, r3
 80049b8:	bf02      	ittt	eq
 80049ba:	ea90 0f02 	teqeq	r0, r2
 80049be:	2000      	moveq	r0, #0
 80049c0:	4770      	bxeq	lr
 80049c2:	f110 0f00 	cmn.w	r0, #0
 80049c6:	ea91 0f03 	teq	r1, r3
 80049ca:	bf58      	it	pl
 80049cc:	4299      	cmppl	r1, r3
 80049ce:	bf08      	it	eq
 80049d0:	4290      	cmpeq	r0, r2
 80049d2:	bf2c      	ite	cs
 80049d4:	17d8      	asrcs	r0, r3, #31
 80049d6:	ea6f 70e3 	mvncc.w	r0, r3, asr #31
 80049da:	f040 0001 	orr.w	r0, r0, #1
 80049de:	4770      	bx	lr
 80049e0:	ea4f 0c41 	mov.w	ip, r1, lsl #1
 80049e4:	ea7f 5c6c 	mvns.w	ip, ip, asr #21
 80049e8:	d102      	bne.n	80049f0 <__cmpdf2+0x64>
 80049ea:	ea50 3c01 	orrs.w	ip, r0, r1, lsl #12
 80049ee:	d107      	bne.n	8004a00 <__cmpdf2+0x74>
 80049f0:	ea4f 0c43 	mov.w	ip, r3, lsl #1
 80049f4:	ea7f 5c6c 	mvns.w	ip, ip, asr #21
 80049f8:	d1d6      	bne.n	80049a8 <__cmpdf2+0x1c>
 80049fa:	ea52 3c03 	orrs.w	ip, r2, r3, lsl #12
 80049fe:	d0d3      	beq.n	80049a8 <__cmpdf2+0x1c>
 8004a00:	f85d 0b04 	ldr.w	r0, [sp], #4
 8004a04:	4770      	bx	lr
 8004a06:	bf00      	nop

08004a08 <__aeabi_cdrcmple>:
 8004a08:	4684      	mov	ip, r0
 8004a0a:	4610      	mov	r0, r2
 8004a0c:	4662      	mov	r2, ip
 8004a0e:	468c      	mov	ip, r1
 8004a10:	4619      	mov	r1, r3
 8004a12:	4663      	mov	r3, ip
 8004a14:	e000      	b.n	8004a18 <__aeabi_cdcmpeq>
 8004a16:	bf00      	nop

08004a18 <__aeabi_cdcmpeq>:
 8004a18:	b501      	push	{r0, lr}
 8004a1a:	f7ff ffb7 	bl	800498c <__cmpdf2>
 8004a1e:	2800      	cmp	r0, #0
 8004a20:	bf48      	it	mi
 8004a22:	f110 0f00 	cmnmi.w	r0, #0
 8004a26:	bd01      	pop	{r0, pc}

08004a28 <__aeabi_dcmpeq>:
 8004a28:	f84d ed08 	str.w	lr, [sp, #-8]!
 8004a2c:	f7ff fff4 	bl	8004a18 <__aeabi_cdcmpeq>
 8004a30:	bf0c      	ite	eq
 8004a32:	2001      	moveq	r0, #1
 8004a34:	2000      	movne	r0, #0
 8004a36:	f85d fb08 	ldr.w	pc, [sp], #8
 8004a3a:	bf00      	nop

08004a3c <__aeabi_dcmplt>:
 8004a3c:	f84d ed08 	str.w	lr, [sp, #-8]!
 8004a40:	f7ff ffea 	bl	8004a18 <__aeabi_cdcmpeq>
 8004a44:	bf34      	ite	cc
 8004a46:	2001      	movcc	r0, #1
 8004a48:	2000      	movcs	r0, #0
 8004a4a:	f85d fb08 	ldr.w	pc, [sp], #8
 8004a4e:	bf00      	nop

08004a50 <__aeabi_dcmple>:
 8004a50:	f84d ed08 	str.w	lr, [sp, #-8]!
 8004a54:	f7ff ffe0 	bl	8004a18 <__aeabi_cdcmpeq>
 8004a58:	bf94      	ite	ls
 8004a5a:	2001      	movls	r0, #1
 8004a5c:	2000      	movhi	r0, #0
 8004a5e:	f85d fb08 	ldr.w	pc, [sp], #8
 8004a62:	bf00      	nop

08004a64 <__aeabi_dcmpge>:
 8004a64:	f84d ed08 	str.w	lr, [sp, #-8]!
 8004a68:	f7ff ffce 	bl	8004a08 <__aeabi_cdrcmple>
 8004a6c:	bf94      	ite	ls
 8004a6e:	2001      	movls	r0, #1
 8004a70:	2000      	movhi	r0, #0
 8004a72:	f85d fb08 	ldr.w	pc, [sp], #8
 8004a76:	bf00      	nop

08004a78 <__aeabi_dcmpgt>:
 8004a78:	f84d ed08 	str.w	lr, [sp, #-8]!
 8004a7c:	f7ff ffc4 	bl	8004a08 <__aeabi_cdrcmple>
 8004a80:	bf34      	ite	cc
 8004a82:	2001      	movcc	r0, #1
 8004a84:	2000      	movcs	r0, #0
 8004a86:	f85d fb08 	ldr.w	pc, [sp], #8
 8004a8a:	bf00      	nop

08004a8c <__aeabi_d2iz>:
 8004a8c:	ea4f 0241 	mov.w	r2, r1, lsl #1
 8004a90:	f512 1200 	adds.w	r2, r2, #2097152	; 0x200000
 8004a94:	d215      	bcs.n	8004ac2 <__aeabi_d2iz+0x36>
 8004a96:	d511      	bpl.n	8004abc <__aeabi_d2iz+0x30>
 8004a98:	f46f 7378 	mvn.w	r3, #992	; 0x3e0
 8004a9c:	ebb3 5262 	subs.w	r2, r3, r2, asr #21
 8004aa0:	d912      	bls.n	8004ac8 <__aeabi_d2iz+0x3c>
 8004aa2:	ea4f 23c1 	mov.w	r3, r1, lsl #11
 8004aa6:	f043 4300 	orr.w	r3, r3, #2147483648	; 0x80000000
 8004aaa:	ea43 5350 	orr.w	r3, r3, r0, lsr #21
 8004aae:	f011 4f00 	tst.w	r1, #2147483648	; 0x80000000
 8004ab2:	fa23 f002 	lsr.w	r0, r3, r2
 8004ab6:	bf18      	it	ne
 8004ab8:	4240      	negne	r0, r0
 8004aba:	4770      	bx	lr
 8004abc:	f04f 0000 	mov.w	r0, #0
 8004ac0:	4770      	bx	lr
 8004ac2:	ea50 3001 	orrs.w	r0, r0, r1, lsl #12
 8004ac6:	d105      	bne.n	8004ad4 <__aeabi_d2iz+0x48>
 8004ac8:	f011 4000 	ands.w	r0, r1, #2147483648	; 0x80000000
 8004acc:	bf08      	it	eq
 8004ace:	f06f 4000 	mvneq.w	r0, #2147483648	; 0x80000000
 8004ad2:	4770      	bx	lr
 8004ad4:	f04f 0000 	mov.w	r0, #0
 8004ad8:	4770      	bx	lr
 8004ada:	bf00      	nop

08004adc <__aeabi_d2f>:
 8004adc:	ea4f 0241 	mov.w	r2, r1, lsl #1
 8004ae0:	f1b2 43e0 	subs.w	r3, r2, #1879048192	; 0x70000000
 8004ae4:	bf24      	itt	cs
 8004ae6:	f5b3 1c00 	subscs.w	ip, r3, #2097152	; 0x200000
 8004aea:	f1dc 5cfe 	rsbscs	ip, ip, #532676608	; 0x1fc00000
 8004aee:	d90d      	bls.n	8004b0c <__aeabi_d2f+0x30>
 8004af0:	f001 4c00 	and.w	ip, r1, #2147483648	; 0x80000000
 8004af4:	ea4f 02c0 	mov.w	r2, r0, lsl #3
 8004af8:	ea4c 7050 	orr.w	r0, ip, r0, lsr #29
 8004afc:	f1b2 4f00 	cmp.w	r2, #2147483648	; 0x80000000
 8004b00:	eb40 0083 	adc.w	r0, r0, r3, lsl #2
 8004b04:	bf08      	it	eq
 8004b06:	f020 0001 	biceq.w	r0, r0, #1
 8004b0a:	4770      	bx	lr
 8004b0c:	f011 4f80 	tst.w	r1, #1073741824	; 0x40000000
 8004b10:	d121      	bne.n	8004b56 <__aeabi_d2f+0x7a>
 8004b12:	f113 7238 	adds.w	r2, r3, #48234496	; 0x2e00000
 8004b16:	bfbc      	itt	lt
 8004b18:	f001 4000 	andlt.w	r0, r1, #2147483648	; 0x80000000
 8004b1c:	4770      	bxlt	lr
 8004b1e:	f441 1180 	orr.w	r1, r1, #1048576	; 0x100000
 8004b22:	ea4f 5252 	mov.w	r2, r2, lsr #21
 8004b26:	f1c2 0218 	rsb	r2, r2, #24
 8004b2a:	f1c2 0c20 	rsb	ip, r2, #32
 8004b2e:	fa10 f30c 	lsls.w	r3, r0, ip
 8004b32:	fa20 f002 	lsr.w	r0, r0, r2
 8004b36:	bf18      	it	ne
 8004b38:	f040 0001 	orrne.w	r0, r0, #1
 8004b3c:	ea4f 23c1 	mov.w	r3, r1, lsl #11
 8004b40:	ea4f 23d3 	mov.w	r3, r3, lsr #11
 8004b44:	fa03 fc0c 	lsl.w	ip, r3, ip
 8004b48:	ea40 000c 	orr.w	r0, r0, ip
 8004b4c:	fa23 f302 	lsr.w	r3, r3, r2
 8004b50:	ea4f 0343 	mov.w	r3, r3, lsl #1
 8004b54:	e7cc      	b.n	8004af0 <__aeabi_d2f+0x14>
 8004b56:	ea7f 5362 	mvns.w	r3, r2, asr #21
 8004b5a:	d107      	bne.n	8004b6c <__aeabi_d2f+0x90>
 8004b5c:	ea50 3301 	orrs.w	r3, r0, r1, lsl #12
 8004b60:	bf1e      	ittt	ne
 8004b62:	f04f 40fe 	movne.w	r0, #2130706432	; 0x7f000000
 8004b66:	f440 0040 	orrne.w	r0, r0, #12582912	; 0xc00000
 8004b6a:	4770      	bxne	lr
 8004b6c:	f001 4000 	and.w	r0, r1, #2147483648	; 0x80000000
 8004b70:	f040 40fe 	orr.w	r0, r0, #2130706432	; 0x7f000000
 8004b74:	f440 0000 	orr.w	r0, r0, #8388608	; 0x800000
 8004b78:	4770      	bx	lr
 8004b7a:	bf00      	nop

08004b7c <__aeabi_frsub>:
 8004b7c:	f080 4000 	eor.w	r0, r0, #2147483648	; 0x80000000
 8004b80:	e002      	b.n	8004b88 <__addsf3>
 8004b82:	bf00      	nop

08004b84 <__aeabi_fsub>:
 8004b84:	f081 4100 	eor.w	r1, r1, #2147483648	; 0x80000000

08004b88 <__addsf3>:
 8004b88:	0042      	lsls	r2, r0, #1
 8004b8a:	bf1f      	itttt	ne
 8004b8c:	ea5f 0341 	movsne.w	r3, r1, lsl #1
 8004b90:	ea92 0f03 	teqne	r2, r3
 8004b94:	ea7f 6c22 	mvnsne.w	ip, r2, asr #24
 8004b98:	ea7f 6c23 	mvnsne.w	ip, r3, asr #24
 8004b9c:	d06a      	beq.n	8004c74 <__addsf3+0xec>
 8004b9e:	ea4f 6212 	mov.w	r2, r2, lsr #24
 8004ba2:	ebd2 6313 	rsbs	r3, r2, r3, lsr #24
 8004ba6:	bfc1      	itttt	gt
 8004ba8:	18d2      	addgt	r2, r2, r3
 8004baa:	4041      	eorgt	r1, r0
 8004bac:	4048      	eorgt	r0, r1
 8004bae:	4041      	eorgt	r1, r0
 8004bb0:	bfb8      	it	lt
 8004bb2:	425b      	neglt	r3, r3
 8004bb4:	2b19      	cmp	r3, #25
 8004bb6:	bf88      	it	hi
 8004bb8:	4770      	bxhi	lr
 8004bba:	f010 4f00 	tst.w	r0, #2147483648	; 0x80000000
 8004bbe:	f440 0000 	orr.w	r0, r0, #8388608	; 0x800000
 8004bc2:	f020 407f 	bic.w	r0, r0, #4278190080	; 0xff000000
 8004bc6:	bf18      	it	ne
 8004bc8:	4240      	negne	r0, r0
 8004bca:	f011 4f00 	tst.w	r1, #2147483648	; 0x80000000
 8004bce:	f441 0100 	orr.w	r1, r1, #8388608	; 0x800000
 8004bd2:	f021 417f 	bic.w	r1, r1, #4278190080	; 0xff000000
 8004bd6:	bf18      	it	ne
 8004bd8:	4249      	negne	r1, r1
 8004bda:	ea92 0f03 	teq	r2, r3
 8004bde:	d03f      	beq.n	8004c60 <__addsf3+0xd8>
 8004be0:	f1a2 0201 	sub.w	r2, r2, #1
 8004be4:	fa41 fc03 	asr.w	ip, r1, r3
 8004be8:	eb10 000c 	adds.w	r0, r0, ip
 8004bec:	f1c3 0320 	rsb	r3, r3, #32
 8004bf0:	fa01 f103 	lsl.w	r1, r1, r3
 8004bf4:	f000 4300 	and.w	r3, r0, #2147483648	; 0x80000000
 8004bf8:	d502      	bpl.n	8004c00 <__addsf3+0x78>
 8004bfa:	4249      	negs	r1, r1
 8004bfc:	eb60 0040 	sbc.w	r0, r0, r0, lsl #1
 8004c00:	f5b0 0f00 	cmp.w	r0, #8388608	; 0x800000
 8004c04:	d313      	bcc.n	8004c2e <__addsf3+0xa6>
 8004c06:	f1b0 7f80 	cmp.w	r0, #16777216	; 0x1000000
 8004c0a:	d306      	bcc.n	8004c1a <__addsf3+0x92>
 8004c0c:	0840      	lsrs	r0, r0, #1
 8004c0e:	ea4f 0131 	mov.w	r1, r1, rrx
 8004c12:	f102 0201 	add.w	r2, r2, #1
 8004c16:	2afe      	cmp	r2, #254	; 0xfe
 8004c18:	d251      	bcs.n	8004cbe <__addsf3+0x136>
 8004c1a:	f1b1 4f00 	cmp.w	r1, #2147483648	; 0x80000000
 8004c1e:	eb40 50c2 	adc.w	r0, r0, r2, lsl #23
 8004c22:	bf08      	it	eq
 8004c24:	f020 0001 	biceq.w	r0, r0, #1
 8004c28:	ea40 0003 	orr.w	r0, r0, r3
 8004c2c:	4770      	bx	lr
 8004c2e:	0049      	lsls	r1, r1, #1
 8004c30:	eb40 0000 	adc.w	r0, r0, r0
 8004c34:	f410 0f00 	tst.w	r0, #8388608	; 0x800000
 8004c38:	f1a2 0201 	sub.w	r2, r2, #1
 8004c3c:	d1ed      	bne.n	8004c1a <__addsf3+0x92>
 8004c3e:	fab0 fc80 	clz	ip, r0
 8004c42:	f1ac 0c08 	sub.w	ip, ip, #8
 8004c46:	ebb2 020c 	subs.w	r2, r2, ip
 8004c4a:	fa00 f00c 	lsl.w	r0, r0, ip
 8004c4e:	bfaa      	itet	ge
 8004c50:	eb00 50c2 	addge.w	r0, r0, r2, lsl #23
 8004c54:	4252      	neglt	r2, r2
 8004c56:	4318      	orrge	r0, r3
 8004c58:	bfbc      	itt	lt
 8004c5a:	40d0      	lsrlt	r0, r2
 8004c5c:	4318      	orrlt	r0, r3
 8004c5e:	4770      	bx	lr
 8004c60:	f092 0f00 	teq	r2, #0
 8004c64:	f481 0100 	eor.w	r1, r1, #8388608	; 0x800000
 8004c68:	bf06      	itte	eq
 8004c6a:	f480 0000 	eoreq.w	r0, r0, #8388608	; 0x800000
 8004c6e:	3201      	addeq	r2, #1
 8004c70:	3b01      	subne	r3, #1
 8004c72:	e7b5      	b.n	8004be0 <__addsf3+0x58>
 8004c74:	ea4f 0341 	mov.w	r3, r1, lsl #1
 8004c78:	ea7f 6c22 	mvns.w	ip, r2, asr #24
 8004c7c:	bf18      	it	ne
 8004c7e:	ea7f 6c23 	mvnsne.w	ip, r3, asr #24
 8004c82:	d021      	beq.n	8004cc8 <__addsf3+0x140>
 8004c84:	ea92 0f03 	teq	r2, r3
 8004c88:	d004      	beq.n	8004c94 <__addsf3+0x10c>
 8004c8a:	f092 0f00 	teq	r2, #0
 8004c8e:	bf08      	it	eq
 8004c90:	4608      	moveq	r0, r1
 8004c92:	4770      	bx	lr
 8004c94:	ea90 0f01 	teq	r0, r1
 8004c98:	bf1c      	itt	ne
 8004c9a:	2000      	movne	r0, #0
 8004c9c:	4770      	bxne	lr
 8004c9e:	f012 4f7f 	tst.w	r2, #4278190080	; 0xff000000
 8004ca2:	d104      	bne.n	8004cae <__addsf3+0x126>
 8004ca4:	0040      	lsls	r0, r0, #1
 8004ca6:	bf28      	it	cs
 8004ca8:	f040 4000 	orrcs.w	r0, r0, #2147483648	; 0x80000000
 8004cac:	4770      	bx	lr
 8004cae:	f112 7200 	adds.w	r2, r2, #33554432	; 0x2000000
 8004cb2:	bf3c      	itt	cc
 8004cb4:	f500 0000 	addcc.w	r0, r0, #8388608	; 0x800000
 8004cb8:	4770      	bxcc	lr
 8004cba:	f000 4300 	and.w	r3, r0, #2147483648	; 0x80000000
 8004cbe:	f043 40fe 	orr.w	r0, r3, #2130706432	; 0x7f000000
 8004cc2:	f440 0000 	orr.w	r0, r0, #8388608	; 0x800000
 8004cc6:	4770      	bx	lr
 8004cc8:	ea7f 6222 	mvns.w	r2, r2, asr #24
 8004ccc:	bf16      	itet	ne
 8004cce:	4608      	movne	r0, r1
 8004cd0:	ea7f 6323 	mvnseq.w	r3, r3, asr #24
 8004cd4:	4601      	movne	r1, r0
 8004cd6:	0242      	lsls	r2, r0, #9
 8004cd8:	bf06      	itte	eq
 8004cda:	ea5f 2341 	movseq.w	r3, r1, lsl #9
 8004cde:	ea90 0f01 	teqeq	r0, r1
 8004ce2:	f440 0080 	orrne.w	r0, r0, #4194304	; 0x400000
 8004ce6:	4770      	bx	lr

08004ce8 <__aeabi_ui2f>:
 8004ce8:	f04f 0300 	mov.w	r3, #0
 8004cec:	e004      	b.n	8004cf8 <__aeabi_i2f+0x8>
 8004cee:	bf00      	nop

08004cf0 <__aeabi_i2f>:
 8004cf0:	f010 4300 	ands.w	r3, r0, #2147483648	; 0x80000000
 8004cf4:	bf48      	it	mi
 8004cf6:	4240      	negmi	r0, r0
 8004cf8:	ea5f 0c00 	movs.w	ip, r0
 8004cfc:	bf08      	it	eq
 8004cfe:	4770      	bxeq	lr
 8004d00:	f043 4396 	orr.w	r3, r3, #1258291200	; 0x4b000000
 8004d04:	4601      	mov	r1, r0
 8004d06:	f04f 0000 	mov.w	r0, #0
 8004d0a:	e01c      	b.n	8004d46 <__aeabi_l2f+0x2a>

08004d0c <__aeabi_ul2f>:
 8004d0c:	ea50 0201 	orrs.w	r2, r0, r1
 8004d10:	bf08      	it	eq
 8004d12:	4770      	bxeq	lr
 8004d14:	f04f 0300 	mov.w	r3, #0
 8004d18:	e00a      	b.n	8004d30 <__aeabi_l2f+0x14>
 8004d1a:	bf00      	nop

08004d1c <__aeabi_l2f>:
 8004d1c:	ea50 0201 	orrs.w	r2, r0, r1
 8004d20:	bf08      	it	eq
 8004d22:	4770      	bxeq	lr
 8004d24:	f011 4300 	ands.w	r3, r1, #2147483648	; 0x80000000
 8004d28:	d502      	bpl.n	8004d30 <__aeabi_l2f+0x14>
 8004d2a:	4240      	negs	r0, r0
 8004d2c:	eb61 0141 	sbc.w	r1, r1, r1, lsl #1
 8004d30:	ea5f 0c01 	movs.w	ip, r1
 8004d34:	bf02      	ittt	eq
 8004d36:	4684      	moveq	ip, r0
 8004d38:	4601      	moveq	r1, r0
 8004d3a:	2000      	moveq	r0, #0
 8004d3c:	f043 43b6 	orr.w	r3, r3, #1526726656	; 0x5b000000
 8004d40:	bf08      	it	eq
 8004d42:	f1a3 5380 	subeq.w	r3, r3, #268435456	; 0x10000000
 8004d46:	f5a3 0300 	sub.w	r3, r3, #8388608	; 0x800000
 8004d4a:	fabc f28c 	clz	r2, ip
 8004d4e:	3a08      	subs	r2, #8
 8004d50:	eba3 53c2 	sub.w	r3, r3, r2, lsl #23
 8004d54:	db10      	blt.n	8004d78 <__aeabi_l2f+0x5c>
 8004d56:	fa01 fc02 	lsl.w	ip, r1, r2
 8004d5a:	4463      	add	r3, ip
 8004d5c:	fa00 fc02 	lsl.w	ip, r0, r2
 8004d60:	f1c2 0220 	rsb	r2, r2, #32
 8004d64:	f1bc 4f00 	cmp.w	ip, #2147483648	; 0x80000000
 8004d68:	fa20 f202 	lsr.w	r2, r0, r2
 8004d6c:	eb43 0002 	adc.w	r0, r3, r2
 8004d70:	bf08      	it	eq
 8004d72:	f020 0001 	biceq.w	r0, r0, #1
 8004d76:	4770      	bx	lr
 8004d78:	f102 0220 	add.w	r2, r2, #32
 8004d7c:	fa01 fc02 	lsl.w	ip, r1, r2
 8004d80:	f1c2 0220 	rsb	r2, r2, #32
 8004d84:	ea50 004c 	orrs.w	r0, r0, ip, lsl #1
 8004d88:	fa21 f202 	lsr.w	r2, r1, r2
 8004d8c:	eb43 0002 	adc.w	r0, r3, r2
 8004d90:	bf08      	it	eq
 8004d92:	ea20 70dc 	biceq.w	r0, r0, ip, lsr #31
 8004d96:	4770      	bx	lr

08004d98 <__aeabi_fmul>:
 8004d98:	f04f 0cff 	mov.w	ip, #255	; 0xff
 8004d9c:	ea1c 52d0 	ands.w	r2, ip, r0, lsr #23
 8004da0:	bf1e      	ittt	ne
 8004da2:	ea1c 53d1 	andsne.w	r3, ip, r1, lsr #23
 8004da6:	ea92 0f0c 	teqne	r2, ip
 8004daa:	ea93 0f0c 	teqne	r3, ip
 8004dae:	d06f      	beq.n	8004e90 <__aeabi_fmul+0xf8>
 8004db0:	441a      	add	r2, r3
 8004db2:	ea80 0c01 	eor.w	ip, r0, r1
 8004db6:	0240      	lsls	r0, r0, #9
 8004db8:	bf18      	it	ne
 8004dba:	ea5f 2141 	movsne.w	r1, r1, lsl #9
 8004dbe:	d01e      	beq.n	8004dfe <__aeabi_fmul+0x66>
 8004dc0:	f04f 6300 	mov.w	r3, #134217728	; 0x8000000
 8004dc4:	ea43 1050 	orr.w	r0, r3, r0, lsr #5
 8004dc8:	ea43 1151 	orr.w	r1, r3, r1, lsr #5
 8004dcc:	fba0 3101 	umull	r3, r1, r0, r1
 8004dd0:	f00c 4000 	and.w	r0, ip, #2147483648	; 0x80000000
 8004dd4:	f5b1 0f00 	cmp.w	r1, #8388608	; 0x800000
 8004dd8:	bf3e      	ittt	cc
 8004dda:	0049      	lslcc	r1, r1, #1
 8004ddc:	ea41 71d3 	orrcc.w	r1, r1, r3, lsr #31
 8004de0:	005b      	lslcc	r3, r3, #1
 8004de2:	ea40 0001 	orr.w	r0, r0, r1
 8004de6:	f162 027f 	sbc.w	r2, r2, #127	; 0x7f
 8004dea:	2afd      	cmp	r2, #253	; 0xfd
 8004dec:	d81d      	bhi.n	8004e2a <__aeabi_fmul+0x92>
 8004dee:	f1b3 4f00 	cmp.w	r3, #2147483648	; 0x80000000
 8004df2:	eb40 50c2 	adc.w	r0, r0, r2, lsl #23
 8004df6:	bf08      	it	eq
 8004df8:	f020 0001 	biceq.w	r0, r0, #1
 8004dfc:	4770      	bx	lr
 8004dfe:	f090 0f00 	teq	r0, #0
 8004e02:	f00c 4c00 	and.w	ip, ip, #2147483648	; 0x80000000
 8004e06:	bf08      	it	eq
 8004e08:	0249      	lsleq	r1, r1, #9
 8004e0a:	ea4c 2050 	orr.w	r0, ip, r0, lsr #9
 8004e0e:	ea40 2051 	orr.w	r0, r0, r1, lsr #9
 8004e12:	3a7f      	subs	r2, #127	; 0x7f
 8004e14:	bfc2      	ittt	gt
 8004e16:	f1d2 03ff 	rsbsgt	r3, r2, #255	; 0xff
 8004e1a:	ea40 50c2 	orrgt.w	r0, r0, r2, lsl #23
 8004e1e:	4770      	bxgt	lr
 8004e20:	f440 0000 	orr.w	r0, r0, #8388608	; 0x800000
 8004e24:	f04f 0300 	mov.w	r3, #0
 8004e28:	3a01      	subs	r2, #1
 8004e2a:	dc5d      	bgt.n	8004ee8 <__aeabi_fmul+0x150>
 8004e2c:	f112 0f19 	cmn.w	r2, #25
 8004e30:	bfdc      	itt	le
 8004e32:	f000 4000 	andle.w	r0, r0, #2147483648	; 0x80000000
 8004e36:	4770      	bxle	lr
 8004e38:	f1c2 0200 	rsb	r2, r2, #0
 8004e3c:	0041      	lsls	r1, r0, #1
 8004e3e:	fa21 f102 	lsr.w	r1, r1, r2
 8004e42:	f1c2 0220 	rsb	r2, r2, #32
 8004e46:	fa00 fc02 	lsl.w	ip, r0, r2
 8004e4a:	ea5f 0031 	movs.w	r0, r1, rrx
 8004e4e:	f140 0000 	adc.w	r0, r0, #0
 8004e52:	ea53 034c 	orrs.w	r3, r3, ip, lsl #1
 8004e56:	bf08      	it	eq
 8004e58:	ea20 70dc 	biceq.w	r0, r0, ip, lsr #31
 8004e5c:	4770      	bx	lr
 8004e5e:	f092 0f00 	teq	r2, #0
 8004e62:	f000 4c00 	and.w	ip, r0, #2147483648	; 0x80000000
 8004e66:	bf02      	ittt	eq
 8004e68:	0040      	lsleq	r0, r0, #1
 8004e6a:	f410 0f00 	tsteq.w	r0, #8388608	; 0x800000
 8004e6e:	3a01      	subeq	r2, #1
 8004e70:	d0f9      	beq.n	8004e66 <__aeabi_fmul+0xce>
 8004e72:	ea40 000c 	orr.w	r0, r0, ip
 8004e76:	f093 0f00 	teq	r3, #0
 8004e7a:	f001 4c00 	and.w	ip, r1, #2147483648	; 0x80000000
 8004e7e:	bf02      	ittt	eq
 8004e80:	0049      	lsleq	r1, r1, #1
 8004e82:	f411 0f00 	tsteq.w	r1, #8388608	; 0x800000
 8004e86:	3b01      	subeq	r3, #1
 8004e88:	d0f9      	beq.n	8004e7e <__aeabi_fmul+0xe6>
 8004e8a:	ea41 010c 	orr.w	r1, r1, ip
 8004e8e:	e78f      	b.n	8004db0 <__aeabi_fmul+0x18>
 8004e90:	ea0c 53d1 	and.w	r3, ip, r1, lsr #23
 8004e94:	ea92 0f0c 	teq	r2, ip
 8004e98:	bf18      	it	ne
 8004e9a:	ea93 0f0c 	teqne	r3, ip
 8004e9e:	d00a      	beq.n	8004eb6 <__aeabi_fmul+0x11e>
 8004ea0:	f030 4c00 	bics.w	ip, r0, #2147483648	; 0x80000000
 8004ea4:	bf18      	it	ne
 8004ea6:	f031 4c00 	bicsne.w	ip, r1, #2147483648	; 0x80000000
 8004eaa:	d1d8      	bne.n	8004e5e <__aeabi_fmul+0xc6>
 8004eac:	ea80 0001 	eor.w	r0, r0, r1
 8004eb0:	f000 4000 	and.w	r0, r0, #2147483648	; 0x80000000
 8004eb4:	4770      	bx	lr
 8004eb6:	f090 0f00 	teq	r0, #0
 8004eba:	bf17      	itett	ne
 8004ebc:	f090 4f00 	teqne	r0, #2147483648	; 0x80000000
 8004ec0:	4608      	moveq	r0, r1
 8004ec2:	f091 0f00 	teqne	r1, #0
 8004ec6:	f091 4f00 	teqne	r1, #2147483648	; 0x80000000
 8004eca:	d014      	beq.n	8004ef6 <__aeabi_fmul+0x15e>
 8004ecc:	ea92 0f0c 	teq	r2, ip
 8004ed0:	d101      	bne.n	8004ed6 <__aeabi_fmul+0x13e>
 8004ed2:	0242      	lsls	r2, r0, #9
 8004ed4:	d10f      	bne.n	8004ef6 <__aeabi_fmul+0x15e>
 8004ed6:	ea93 0f0c 	teq	r3, ip
 8004eda:	d103      	bne.n	8004ee4 <__aeabi_fmul+0x14c>
 8004edc:	024b      	lsls	r3, r1, #9
 8004ede:	bf18      	it	ne
 8004ee0:	4608      	movne	r0, r1
 8004ee2:	d108      	bne.n	8004ef6 <__aeabi_fmul+0x15e>
 8004ee4:	ea80 0001 	eor.w	r0, r0, r1
 8004ee8:	f000 4000 	and.w	r0, r0, #2147483648	; 0x80000000
 8004eec:	f040 40fe 	orr.w	r0, r0, #2130706432	; 0x7f000000
 8004ef0:	f440 0000 	orr.w	r0, r0, #8388608	; 0x800000
 8004ef4:	4770      	bx	lr
 8004ef6:	f040 40fe 	orr.w	r0, r0, #2130706432	; 0x7f000000
 8004efa:	f440 0040 	orr.w	r0, r0, #12582912	; 0xc00000
 8004efe:	4770      	bx	lr

08004f00 <__aeabi_fdiv>:
 8004f00:	f04f 0cff 	mov.w	ip, #255	; 0xff
 8004f04:	ea1c 52d0 	ands.w	r2, ip, r0, lsr #23
 8004f08:	bf1e      	ittt	ne
 8004f0a:	ea1c 53d1 	andsne.w	r3, ip, r1, lsr #23
 8004f0e:	ea92 0f0c 	teqne	r2, ip
 8004f12:	ea93 0f0c 	teqne	r3, ip
 8004f16:	d069      	beq.n	8004fec <__aeabi_fdiv+0xec>
 8004f18:	eba2 0203 	sub.w	r2, r2, r3
 8004f1c:	ea80 0c01 	eor.w	ip, r0, r1
 8004f20:	0249      	lsls	r1, r1, #9
 8004f22:	ea4f 2040 	mov.w	r0, r0, lsl #9
 8004f26:	d037      	beq.n	8004f98 <__aeabi_fdiv+0x98>
 8004f28:	f04f 5380 	mov.w	r3, #268435456	; 0x10000000
 8004f2c:	ea43 1111 	orr.w	r1, r3, r1, lsr #4
 8004f30:	ea43 1310 	orr.w	r3, r3, r0, lsr #4
 8004f34:	f00c 4000 	and.w	r0, ip, #2147483648	; 0x80000000
 8004f38:	428b      	cmp	r3, r1
 8004f3a:	bf38      	it	cc
 8004f3c:	005b      	lslcc	r3, r3, #1
 8004f3e:	f142 027d 	adc.w	r2, r2, #125	; 0x7d
 8004f42:	f44f 0c00 	mov.w	ip, #8388608	; 0x800000
 8004f46:	428b      	cmp	r3, r1
 8004f48:	bf24      	itt	cs
 8004f4a:	1a5b      	subcs	r3, r3, r1
 8004f4c:	ea40 000c 	orrcs.w	r0, r0, ip
 8004f50:	ebb3 0f51 	cmp.w	r3, r1, lsr #1
 8004f54:	bf24      	itt	cs
 8004f56:	eba3 0351 	subcs.w	r3, r3, r1, lsr #1
 8004f5a:	ea40 005c 	orrcs.w	r0, r0, ip, lsr #1
 8004f5e:	ebb3 0f91 	cmp.w	r3, r1, lsr #2
 8004f62:	bf24      	itt	cs
 8004f64:	eba3 0391 	subcs.w	r3, r3, r1, lsr #2
 8004f68:	ea40 009c 	orrcs.w	r0, r0, ip, lsr #2
 8004f6c:	ebb3 0fd1 	cmp.w	r3, r1, lsr #3
 8004f70:	bf24      	itt	cs
 8004f72:	eba3 03d1 	subcs.w	r3, r3, r1, lsr #3
 8004f76:	ea40 00dc 	orrcs.w	r0, r0, ip, lsr #3
 8004f7a:	011b      	lsls	r3, r3, #4
 8004f7c:	bf18      	it	ne
 8004f7e:	ea5f 1c1c 	movsne.w	ip, ip, lsr #4
 8004f82:	d1e0      	bne.n	8004f46 <__aeabi_fdiv+0x46>
 8004f84:	2afd      	cmp	r2, #253	; 0xfd
 8004f86:	f63f af50 	bhi.w	8004e2a <__aeabi_fmul+0x92>
 8004f8a:	428b      	cmp	r3, r1
 8004f8c:	eb40 50c2 	adc.w	r0, r0, r2, lsl #23
 8004f90:	bf08      	it	eq
 8004f92:	f020 0001 	biceq.w	r0, r0, #1
 8004f96:	4770      	bx	lr
 8004f98:	f00c 4c00 	and.w	ip, ip, #2147483648	; 0x80000000
 8004f9c:	ea4c 2050 	orr.w	r0, ip, r0, lsr #9
 8004fa0:	327f      	adds	r2, #127	; 0x7f
 8004fa2:	bfc2      	ittt	gt
 8004fa4:	f1d2 03ff 	rsbsgt	r3, r2, #255	; 0xff
 8004fa8:	ea40 50c2 	orrgt.w	r0, r0, r2, lsl #23
 8004fac:	4770      	bxgt	lr
 8004fae:	f440 0000 	orr.w	r0, r0, #8388608	; 0x800000
 8004fb2:	f04f 0300 	mov.w	r3, #0
 8004fb6:	3a01      	subs	r2, #1
 8004fb8:	e737      	b.n	8004e2a <__aeabi_fmul+0x92>
 8004fba:	f092 0f00 	teq	r2, #0
 8004fbe:	f000 4c00 	and.w	ip, r0, #2147483648	; 0x80000000
 8004fc2:	bf02      	ittt	eq
 8004fc4:	0040      	lsleq	r0, r0, #1
 8004fc6:	f410 0f00 	tsteq.w	r0, #8388608	; 0x800000
 8004fca:	3a01      	subeq	r2, #1
 8004fcc:	d0f9      	beq.n	8004fc2 <__aeabi_fdiv+0xc2>
 8004fce:	ea40 000c 	orr.w	r0, r0, ip
 8004fd2:	f093 0f00 	teq	r3, #0
 8004fd6:	f001 4c00 	and.w	ip, r1, #2147483648	; 0x80000000
 8004fda:	bf02      	ittt	eq
 8004fdc:	0049      	lsleq	r1, r1, #1
 8004fde:	f411 0f00 	tsteq.w	r1, #8388608	; 0x800000
 8004fe2:	3b01      	subeq	r3, #1
 8004fe4:	d0f9      	beq.n	8004fda <__aeabi_fdiv+0xda>
 8004fe6:	ea41 010c 	orr.w	r1, r1, ip
 8004fea:	e795      	b.n	8004f18 <__aeabi_fdiv+0x18>
 8004fec:	ea0c 53d1 	and.w	r3, ip, r1, lsr #23
 8004ff0:	ea92 0f0c 	teq	r2, ip
 8004ff4:	d108      	bne.n	8005008 <__aeabi_fdiv+0x108>
 8004ff6:	0242      	lsls	r2, r0, #9
 8004ff8:	f47f af7d 	bne.w	8004ef6 <__aeabi_fmul+0x15e>
 8004ffc:	ea93 0f0c 	teq	r3, ip
 8005000:	f47f af70 	bne.w	8004ee4 <__aeabi_fmul+0x14c>
 8005004:	4608      	mov	r0, r1
 8005006:	e776      	b.n	8004ef6 <__aeabi_fmul+0x15e>
 8005008:	ea93 0f0c 	teq	r3, ip
 800500c:	d104      	bne.n	8005018 <__aeabi_fdiv+0x118>
 800500e:	024b      	lsls	r3, r1, #9
 8005010:	f43f af4c 	beq.w	8004eac <__aeabi_fmul+0x114>
 8005014:	4608      	mov	r0, r1
 8005016:	e76e      	b.n	8004ef6 <__aeabi_fmul+0x15e>
 8005018:	f030 4c00 	bics.w	ip, r0, #2147483648	; 0x80000000
 800501c:	bf18      	it	ne
 800501e:	f031 4c00 	bicsne.w	ip, r1, #2147483648	; 0x80000000
 8005022:	d1ca      	bne.n	8004fba <__aeabi_fdiv+0xba>
 8005024:	f030 4200 	bics.w	r2, r0, #2147483648	; 0x80000000
 8005028:	f47f af5c 	bne.w	8004ee4 <__aeabi_fmul+0x14c>
 800502c:	f031 4300 	bics.w	r3, r1, #2147483648	; 0x80000000
 8005030:	f47f af3c 	bne.w	8004eac <__aeabi_fmul+0x114>
 8005034:	e75f      	b.n	8004ef6 <__aeabi_fmul+0x15e>
 8005036:	bf00      	nop

08005038 <__gesf2>:
 8005038:	f04f 3cff 	mov.w	ip, #4294967295
 800503c:	e006      	b.n	800504c <__cmpsf2+0x4>
 800503e:	bf00      	nop

08005040 <__lesf2>:
 8005040:	f04f 0c01 	mov.w	ip, #1
 8005044:	e002      	b.n	800504c <__cmpsf2+0x4>
 8005046:	bf00      	nop

08005048 <__cmpsf2>:
 8005048:	f04f 0c01 	mov.w	ip, #1
 800504c:	f84d cd04 	str.w	ip, [sp, #-4]!
 8005050:	ea4f 0240 	mov.w	r2, r0, lsl #1
 8005054:	ea4f 0341 	mov.w	r3, r1, lsl #1
 8005058:	ea7f 6c22 	mvns.w	ip, r2, asr #24
 800505c:	bf18      	it	ne
 800505e:	ea7f 6c23 	mvnsne.w	ip, r3, asr #24
 8005062:	d011      	beq.n	8005088 <__cmpsf2+0x40>
 8005064:	b001      	add	sp, #4
 8005066:	ea52 0c53 	orrs.w	ip, r2, r3, lsr #1
 800506a:	bf18      	it	ne
 800506c:	ea90 0f01 	teqne	r0, r1
 8005070:	bf58      	it	pl
 8005072:	ebb2 0003 	subspl.w	r0, r2, r3
 8005076:	bf88      	it	hi
 8005078:	17c8      	asrhi	r0, r1, #31
 800507a:	bf38      	it	cc
 800507c:	ea6f 70e1 	mvncc.w	r0, r1, asr #31
 8005080:	bf18      	it	ne
 8005082:	f040 0001 	orrne.w	r0, r0, #1
 8005086:	4770      	bx	lr
 8005088:	ea7f 6c22 	mvns.w	ip, r2, asr #24
 800508c:	d102      	bne.n	8005094 <__cmpsf2+0x4c>
 800508e:	ea5f 2c40 	movs.w	ip, r0, lsl #9
 8005092:	d105      	bne.n	80050a0 <__cmpsf2+0x58>
 8005094:	ea7f 6c23 	mvns.w	ip, r3, asr #24
 8005098:	d1e4      	bne.n	8005064 <__cmpsf2+0x1c>
 800509a:	ea5f 2c41 	movs.w	ip, r1, lsl #9
 800509e:	d0e1      	beq.n	8005064 <__cmpsf2+0x1c>
 80050a0:	f85d 0b04 	ldr.w	r0, [sp], #4
 80050a4:	4770      	bx	lr
 80050a6:	bf00      	nop

080050a8 <__aeabi_cfrcmple>:
 80050a8:	4684      	mov	ip, r0
 80050aa:	4608      	mov	r0, r1
 80050ac:	4661      	mov	r1, ip
 80050ae:	e7ff      	b.n	80050b0 <__aeabi_cfcmpeq>

080050b0 <__aeabi_cfcmpeq>:
 80050b0:	b50f      	push	{r0, r1, r2, r3, lr}
 80050b2:	f7ff ffc9 	bl	8005048 <__cmpsf2>
 80050b6:	2800      	cmp	r0, #0
 80050b8:	bf48      	it	mi
 80050ba:	f110 0f00 	cmnmi.w	r0, #0
 80050be:	bd0f      	pop	{r0, r1, r2, r3, pc}

080050c0 <__aeabi_fcmpeq>:
 80050c0:	f84d ed08 	str.w	lr, [sp, #-8]!
 80050c4:	f7ff fff4 	bl	80050b0 <__aeabi_cfcmpeq>
 80050c8:	bf0c      	ite	eq
 80050ca:	2001      	moveq	r0, #1
 80050cc:	2000      	movne	r0, #0
 80050ce:	f85d fb08 	ldr.w	pc, [sp], #8
 80050d2:	bf00      	nop

080050d4 <__aeabi_fcmplt>:
 80050d4:	f84d ed08 	str.w	lr, [sp, #-8]!
 80050d8:	f7ff ffea 	bl	80050b0 <__aeabi_cfcmpeq>
 80050dc:	bf34      	ite	cc
 80050de:	2001      	movcc	r0, #1
 80050e0:	2000      	movcs	r0, #0
 80050e2:	f85d fb08 	ldr.w	pc, [sp], #8
 80050e6:	bf00      	nop

080050e8 <__aeabi_fcmple>:
 80050e8:	f84d ed08 	str.w	lr, [sp, #-8]!
 80050ec:	f7ff ffe0 	bl	80050b0 <__aeabi_cfcmpeq>
 80050f0:	bf94      	ite	ls
 80050f2:	2001      	movls	r0, #1
 80050f4:	2000      	movhi	r0, #0
 80050f6:	f85d fb08 	ldr.w	pc, [sp], #8
 80050fa:	bf00      	nop

080050fc <__aeabi_fcmpge>:
 80050fc:	f84d ed08 	str.w	lr, [sp, #-8]!
 8005100:	f7ff ffd2 	bl	80050a8 <__aeabi_cfrcmple>
 8005104:	bf94      	ite	ls
 8005106:	2001      	movls	r0, #1
 8005108:	2000      	movhi	r0, #0
 800510a:	f85d fb08 	ldr.w	pc, [sp], #8
 800510e:	bf00      	nop

08005110 <__aeabi_fcmpgt>:
 8005110:	f84d ed08 	str.w	lr, [sp, #-8]!
 8005114:	f7ff ffc8 	bl	80050a8 <__aeabi_cfrcmple>
 8005118:	bf34      	ite	cc
 800511a:	2001      	movcc	r0, #1
 800511c:	2000      	movcs	r0, #0
 800511e:	f85d fb08 	ldr.w	pc, [sp], #8
 8005122:	bf00      	nop

08005124 <__aeabi_f2iz>:
 8005124:	ea4f 0240 	mov.w	r2, r0, lsl #1
 8005128:	f1b2 4ffe 	cmp.w	r2, #2130706432	; 0x7f000000
 800512c:	d30f      	bcc.n	800514e <__aeabi_f2iz+0x2a>
 800512e:	f04f 039e 	mov.w	r3, #158	; 0x9e
 8005132:	ebb3 6212 	subs.w	r2, r3, r2, lsr #24
 8005136:	d90d      	bls.n	8005154 <__aeabi_f2iz+0x30>
 8005138:	ea4f 2300 	mov.w	r3, r0, lsl #8
 800513c:	f043 4300 	orr.w	r3, r3, #2147483648	; 0x80000000
 8005140:	f010 4f00 	tst.w	r0, #2147483648	; 0x80000000
 8005144:	fa23 f002 	lsr.w	r0, r3, r2
 8005148:	bf18      	it	ne
 800514a:	4240      	negne	r0, r0
 800514c:	4770      	bx	lr
 800514e:	f04f 0000 	mov.w	r0, #0
 8005152:	4770      	bx	lr
 8005154:	f112 0f61 	cmn.w	r2, #97	; 0x61
 8005158:	d101      	bne.n	800515e <__aeabi_f2iz+0x3a>
 800515a:	0242      	lsls	r2, r0, #9
 800515c:	d105      	bne.n	800516a <__aeabi_f2iz+0x46>
 800515e:	f010 4000 	ands.w	r0, r0, #2147483648	; 0x80000000
 8005162:	bf08      	it	eq
 8005164:	f06f 4000 	mvneq.w	r0, #2147483648	; 0x80000000
 8005168:	4770      	bx	lr
 800516a:	f04f 0000 	mov.w	r0, #0
 800516e:	4770      	bx	lr

08005170 <memcpy>:
 8005170:	4684      	mov	ip, r0
 8005172:	ea41 0300 	orr.w	r3, r1, r0
 8005176:	f013 0303 	ands.w	r3, r3, #3
 800517a:	d149      	bne.n	8005210 <memcpy+0xa0>
 800517c:	3a40      	subs	r2, #64	; 0x40
 800517e:	d323      	bcc.n	80051c8 <memcpy+0x58>
 8005180:	680b      	ldr	r3, [r1, #0]
 8005182:	6003      	str	r3, [r0, #0]
 8005184:	684b      	ldr	r3, [r1, #4]
 8005186:	6043      	str	r3, [r0, #4]
 8005188:	688b      	ldr	r3, [r1, #8]
 800518a:	6083      	str	r3, [r0, #8]
 800518c:	68cb      	ldr	r3, [r1, #12]
 800518e:	60c3      	str	r3, [r0, #12]
 8005190:	690b      	ldr	r3, [r1, #16]
 8005192:	6103      	str	r3, [r0, #16]
 8005194:	694b      	ldr	r3, [r1, #20]
 8005196:	6143      	str	r3, [r0, #20]
 8005198:	698b      	ldr	r3, [r1, #24]
 800519a:	6183      	str	r3, [r0, #24]
 800519c:	69cb      	ldr	r3, [r1, #28]
 800519e:	61c3      	str	r3, [r0, #28]
 80051a0:	6a0b      	ldr	r3, [r1, #32]
 80051a2:	6203      	str	r3, [r0, #32]
 80051a4:	6a4b      	ldr	r3, [r1, #36]	; 0x24
 80051a6:	6243      	str	r3, [r0, #36]	; 0x24
 80051a8:	6a8b      	ldr	r3, [r1, #40]	; 0x28
 80051aa:	6283      	str	r3, [r0, #40]	; 0x28
 80051ac:	6acb      	ldr	r3, [r1, #44]	; 0x2c
 80051ae:	62c3      	str	r3, [r0, #44]	; 0x2c
 80051b0:	6b0b      	ldr	r3, [r1, #48]	; 0x30
 80051b2:	6303      	str	r3, [r0, #48]	; 0x30
 80051b4:	6b4b      	ldr	r3, [r1, #52]	; 0x34
 80051b6:	6343      	str	r3, [r0, #52]	; 0x34
 80051b8:	6b8b      	ldr	r3, [r1, #56]	; 0x38
 80051ba:	6383      	str	r3, [r0, #56]	; 0x38
 80051bc:	6bcb      	ldr	r3, [r1, #60]	; 0x3c
 80051be:	63c3      	str	r3, [r0, #60]	; 0x3c
 80051c0:	3040      	adds	r0, #64	; 0x40
 80051c2:	3140      	adds	r1, #64	; 0x40
 80051c4:	3a40      	subs	r2, #64	; 0x40
 80051c6:	d2db      	bcs.n	8005180 <memcpy+0x10>
 80051c8:	3230      	adds	r2, #48	; 0x30
 80051ca:	d30b      	bcc.n	80051e4 <memcpy+0x74>
 80051cc:	680b      	ldr	r3, [r1, #0]
 80051ce:	6003      	str	r3, [r0, #0]
 80051d0:	684b      	ldr	r3, [r1, #4]
 80051d2:	6043      	str	r3, [r0, #4]
 80051d4:	688b      	ldr	r3, [r1, #8]
 80051d6:	6083      	str	r3, [r0, #8]
 80051d8:	68cb      	ldr	r3, [r1, #12]
 80051da:	60c3      	str	r3, [r0, #12]
 80051dc:	3010      	adds	r0, #16
 80051de:	3110      	adds	r1, #16
 80051e0:	3a10      	subs	r2, #16
 80051e2:	d2f3      	bcs.n	80051cc <memcpy+0x5c>
 80051e4:	320c      	adds	r2, #12
 80051e6:	d305      	bcc.n	80051f4 <memcpy+0x84>
 80051e8:	f851 3b04 	ldr.w	r3, [r1], #4
 80051ec:	f840 3b04 	str.w	r3, [r0], #4
 80051f0:	3a04      	subs	r2, #4
 80051f2:	d2f9      	bcs.n	80051e8 <memcpy+0x78>
 80051f4:	3204      	adds	r2, #4
 80051f6:	d008      	beq.n	800520a <memcpy+0x9a>
 80051f8:	07d2      	lsls	r2, r2, #31
 80051fa:	bf1c      	itt	ne
 80051fc:	f811 3b01 	ldrbne.w	r3, [r1], #1
 8005200:	f800 3b01 	strbne.w	r3, [r0], #1
 8005204:	d301      	bcc.n	800520a <memcpy+0x9a>
 8005206:	880b      	ldrh	r3, [r1, #0]
 8005208:	8003      	strh	r3, [r0, #0]
 800520a:	4660      	mov	r0, ip
 800520c:	4770      	bx	lr
 800520e:	bf00      	nop
 8005210:	2a08      	cmp	r2, #8
 8005212:	d313      	bcc.n	800523c <memcpy+0xcc>
 8005214:	078b      	lsls	r3, r1, #30
 8005216:	d0b1      	beq.n	800517c <memcpy+0xc>
 8005218:	f010 0303 	ands.w	r3, r0, #3
 800521c:	d0ae      	beq.n	800517c <memcpy+0xc>
 800521e:	f1c3 0304 	rsb	r3, r3, #4
 8005222:	1ad2      	subs	r2, r2, r3
 8005224:	07db      	lsls	r3, r3, #31
 8005226:	bf1c      	itt	ne
 8005228:	f811 3b01 	ldrbne.w	r3, [r1], #1
 800522c:	f800 3b01 	strbne.w	r3, [r0], #1
 8005230:	d3a4      	bcc.n	800517c <memcpy+0xc>
 8005232:	f831 3b02 	ldrh.w	r3, [r1], #2
 8005236:	f820 3b02 	strh.w	r3, [r0], #2
 800523a:	e79f      	b.n	800517c <memcpy+0xc>
 800523c:	3a04      	subs	r2, #4
 800523e:	d3d9      	bcc.n	80051f4 <memcpy+0x84>
 8005240:	3a01      	subs	r2, #1
 8005242:	f811 3b01 	ldrb.w	r3, [r1], #1
 8005246:	f800 3b01 	strb.w	r3, [r0], #1
 800524a:	d2f9      	bcs.n	8005240 <memcpy+0xd0>
 800524c:	780b      	ldrb	r3, [r1, #0]
 800524e:	7003      	strb	r3, [r0, #0]
 8005250:	784b      	ldrb	r3, [r1, #1]
 8005252:	7043      	strb	r3, [r0, #1]
 8005254:	788b      	ldrb	r3, [r1, #2]
 8005256:	7083      	strb	r3, [r0, #2]
 8005258:	4660      	mov	r0, ip
 800525a:	4770      	bx	lr

0800525c <__aeabi_uldivmod>:
 800525c:	b94b      	cbnz	r3, 8005272 <__aeabi_uldivmod+0x16>
 800525e:	b942      	cbnz	r2, 8005272 <__aeabi_uldivmod+0x16>
 8005260:	2900      	cmp	r1, #0
 8005262:	bf08      	it	eq
 8005264:	2800      	cmpeq	r0, #0
 8005266:	d002      	beq.n	800526e <__aeabi_uldivmod+0x12>
 8005268:	f04f 31ff 	mov.w	r1, #4294967295
 800526c:	4608      	mov	r0, r1
 800526e:	f000 b83b 	b.w	80052e8 <__aeabi_idiv0>
 8005272:	b082      	sub	sp, #8
 8005274:	46ec      	mov	ip, sp
 8005276:	e92d 5000 	stmdb	sp!, {ip, lr}
 800527a:	f000 f81d 	bl	80052b8 <__gnu_uldivmod_helper>
 800527e:	f8dd e004 	ldr.w	lr, [sp, #4]
 8005282:	b002      	add	sp, #8
 8005284:	bc0c      	pop	{r2, r3}
 8005286:	4770      	bx	lr

08005288 <__gnu_ldivmod_helper>:
 8005288:	e92d 4f70 	stmdb	sp!, {r4, r5, r6, r8, r9, sl, fp, lr}
 800528c:	9e08      	ldr	r6, [sp, #32]
 800528e:	4614      	mov	r4, r2
 8005290:	461d      	mov	r5, r3
 8005292:	4680      	mov	r8, r0
 8005294:	4689      	mov	r9, r1
 8005296:	f000 f829 	bl	80052ec <__divdi3>
 800529a:	fb04 f301 	mul.w	r3, r4, r1
 800529e:	fba4 ab00 	umull	sl, fp, r4, r0
 80052a2:	fb00 3205 	mla	r2, r0, r5, r3
 80052a6:	4493      	add	fp, r2
 80052a8:	ebb8 080a 	subs.w	r8, r8, sl
 80052ac:	eb69 090b 	sbc.w	r9, r9, fp
 80052b0:	e9c6 8900 	strd	r8, r9, [r6]
 80052b4:	e8bd 8f70 	ldmia.w	sp!, {r4, r5, r6, r8, r9, sl, fp, pc}

080052b8 <__gnu_uldivmod_helper>:
 80052b8:	e92d 4f70 	stmdb	sp!, {r4, r5, r6, r8, r9, sl, fp, lr}
 80052bc:	9e08      	ldr	r6, [sp, #32]
 80052be:	4614      	mov	r4, r2
 80052c0:	461d      	mov	r5, r3
 80052c2:	4680      	mov	r8, r0
 80052c4:	4689      	mov	r9, r1
 80052c6:	f000 f961 	bl	800558c <__udivdi3>
 80052ca:	fb00 f505 	mul.w	r5, r0, r5
 80052ce:	fba0 ab04 	umull	sl, fp, r0, r4
 80052d2:	fb04 5401 	mla	r4, r4, r1, r5
 80052d6:	44a3      	add	fp, r4
 80052d8:	ebb8 080a 	subs.w	r8, r8, sl
 80052dc:	eb69 090b 	sbc.w	r9, r9, fp
 80052e0:	e9c6 8900 	strd	r8, r9, [r6]
 80052e4:	e8bd 8f70 	ldmia.w	sp!, {r4, r5, r6, r8, r9, sl, fp, pc}

080052e8 <__aeabi_idiv0>:
 80052e8:	4770      	bx	lr
 80052ea:	bf00      	nop

080052ec <__divdi3>:
 80052ec:	2900      	cmp	r1, #0
 80052ee:	e92d 0ff0 	stmdb	sp!, {r4, r5, r6, r7, r8, r9, sl, fp}
 80052f2:	f2c0 80a1 	blt.w	8005438 <__divdi3+0x14c>
 80052f6:	2400      	movs	r4, #0
 80052f8:	2b00      	cmp	r3, #0
 80052fa:	f2c0 8098 	blt.w	800542e <__divdi3+0x142>
 80052fe:	4615      	mov	r5, r2
 8005300:	4606      	mov	r6, r0
 8005302:	460f      	mov	r7, r1
 8005304:	2b00      	cmp	r3, #0
 8005306:	d13f      	bne.n	8005388 <__divdi3+0x9c>
 8005308:	428a      	cmp	r2, r1
 800530a:	d958      	bls.n	80053be <__divdi3+0xd2>
 800530c:	fab2 f382 	clz	r3, r2
 8005310:	b14b      	cbz	r3, 8005326 <__divdi3+0x3a>
 8005312:	f1c3 0220 	rsb	r2, r3, #32
 8005316:	fa01 f703 	lsl.w	r7, r1, r3
 800531a:	fa20 f202 	lsr.w	r2, r0, r2
 800531e:	409d      	lsls	r5, r3
 8005320:	fa00 f603 	lsl.w	r6, r0, r3
 8005324:	4317      	orrs	r7, r2
 8005326:	0c29      	lsrs	r1, r5, #16
 8005328:	fbb7 f2f1 	udiv	r2, r7, r1
 800532c:	fb01 7712 	mls	r7, r1, r2, r7
 8005330:	b2a8      	uxth	r0, r5
 8005332:	fb00 f302 	mul.w	r3, r0, r2
 8005336:	ea4f 4c16 	mov.w	ip, r6, lsr #16
 800533a:	ea4c 4707 	orr.w	r7, ip, r7, lsl #16
 800533e:	42bb      	cmp	r3, r7
 8005340:	d909      	bls.n	8005356 <__divdi3+0x6a>
 8005342:	197f      	adds	r7, r7, r5
 8005344:	f102 3cff 	add.w	ip, r2, #4294967295
 8005348:	f080 8105 	bcs.w	8005556 <__divdi3+0x26a>
 800534c:	42bb      	cmp	r3, r7
 800534e:	f240 8102 	bls.w	8005556 <__divdi3+0x26a>
 8005352:	3a02      	subs	r2, #2
 8005354:	442f      	add	r7, r5
 8005356:	1aff      	subs	r7, r7, r3
 8005358:	fbb7 f3f1 	udiv	r3, r7, r1
 800535c:	fb01 7113 	mls	r1, r1, r3, r7
 8005360:	fb00 f003 	mul.w	r0, r0, r3
 8005364:	b2b6      	uxth	r6, r6
 8005366:	ea46 4101 	orr.w	r1, r6, r1, lsl #16
 800536a:	4288      	cmp	r0, r1
 800536c:	d908      	bls.n	8005380 <__divdi3+0x94>
 800536e:	1949      	adds	r1, r1, r5
 8005370:	f103 37ff 	add.w	r7, r3, #4294967295
 8005374:	f080 80f1 	bcs.w	800555a <__divdi3+0x26e>
 8005378:	4288      	cmp	r0, r1
 800537a:	f240 80ee 	bls.w	800555a <__divdi3+0x26e>
 800537e:	3b02      	subs	r3, #2
 8005380:	ea43 4202 	orr.w	r2, r3, r2, lsl #16
 8005384:	2300      	movs	r3, #0
 8005386:	e003      	b.n	8005390 <__divdi3+0xa4>
 8005388:	428b      	cmp	r3, r1
 800538a:	d90a      	bls.n	80053a2 <__divdi3+0xb6>
 800538c:	2300      	movs	r3, #0
 800538e:	461a      	mov	r2, r3
 8005390:	4610      	mov	r0, r2
 8005392:	4619      	mov	r1, r3
 8005394:	b114      	cbz	r4, 800539c <__divdi3+0xb0>
 8005396:	4240      	negs	r0, r0
 8005398:	eb61 0141 	sbc.w	r1, r1, r1, lsl #1
 800539c:	e8bd 0ff0 	ldmia.w	sp!, {r4, r5, r6, r7, r8, r9, sl, fp}
 80053a0:	4770      	bx	lr
 80053a2:	fab3 f883 	clz	r8, r3
 80053a6:	f1b8 0f00 	cmp.w	r8, #0
 80053aa:	f040 8088 	bne.w	80054be <__divdi3+0x1d2>
 80053ae:	428b      	cmp	r3, r1
 80053b0:	d302      	bcc.n	80053b8 <__divdi3+0xcc>
 80053b2:	4282      	cmp	r2, r0
 80053b4:	f200 80e2 	bhi.w	800557c <__divdi3+0x290>
 80053b8:	2300      	movs	r3, #0
 80053ba:	2201      	movs	r2, #1
 80053bc:	e7e8      	b.n	8005390 <__divdi3+0xa4>
 80053be:	b912      	cbnz	r2, 80053c6 <__divdi3+0xda>
 80053c0:	2301      	movs	r3, #1
 80053c2:	fbb3 f5f2 	udiv	r5, r3, r2
 80053c6:	fab5 f285 	clz	r2, r5
 80053ca:	2a00      	cmp	r2, #0
 80053cc:	d13a      	bne.n	8005444 <__divdi3+0x158>
 80053ce:	1b7f      	subs	r7, r7, r5
 80053d0:	0c28      	lsrs	r0, r5, #16
 80053d2:	fa1f fc85 	uxth.w	ip, r5
 80053d6:	2301      	movs	r3, #1
 80053d8:	fbb7 f1f0 	udiv	r1, r7, r0
 80053dc:	fb00 7711 	mls	r7, r0, r1, r7
 80053e0:	fb0c f201 	mul.w	r2, ip, r1
 80053e4:	ea4f 4816 	mov.w	r8, r6, lsr #16
 80053e8:	ea48 4707 	orr.w	r7, r8, r7, lsl #16
 80053ec:	42ba      	cmp	r2, r7
 80053ee:	d907      	bls.n	8005400 <__divdi3+0x114>
 80053f0:	197f      	adds	r7, r7, r5
 80053f2:	f101 38ff 	add.w	r8, r1, #4294967295
 80053f6:	d202      	bcs.n	80053fe <__divdi3+0x112>
 80053f8:	42ba      	cmp	r2, r7
 80053fa:	f200 80c4 	bhi.w	8005586 <__divdi3+0x29a>
 80053fe:	4641      	mov	r1, r8
 8005400:	1abf      	subs	r7, r7, r2
 8005402:	fbb7 f2f0 	udiv	r2, r7, r0
 8005406:	fb00 7012 	mls	r0, r0, r2, r7
 800540a:	fb0c fc02 	mul.w	ip, ip, r2
 800540e:	b2b6      	uxth	r6, r6
 8005410:	ea46 4000 	orr.w	r0, r6, r0, lsl #16
 8005414:	4584      	cmp	ip, r0
 8005416:	d907      	bls.n	8005428 <__divdi3+0x13c>
 8005418:	1940      	adds	r0, r0, r5
 800541a:	f102 37ff 	add.w	r7, r2, #4294967295
 800541e:	d202      	bcs.n	8005426 <__divdi3+0x13a>
 8005420:	4584      	cmp	ip, r0
 8005422:	f200 80ae 	bhi.w	8005582 <__divdi3+0x296>
 8005426:	463a      	mov	r2, r7
 8005428:	ea42 4201 	orr.w	r2, r2, r1, lsl #16
 800542c:	e7b0      	b.n	8005390 <__divdi3+0xa4>
 800542e:	43e4      	mvns	r4, r4
 8005430:	4252      	negs	r2, r2
 8005432:	eb63 0343 	sbc.w	r3, r3, r3, lsl #1
 8005436:	e762      	b.n	80052fe <__divdi3+0x12>
 8005438:	4240      	negs	r0, r0
 800543a:	eb61 0141 	sbc.w	r1, r1, r1, lsl #1
 800543e:	f04f 34ff 	mov.w	r4, #4294967295
 8005442:	e759      	b.n	80052f8 <__divdi3+0xc>
 8005444:	4095      	lsls	r5, r2
 8005446:	f1c2 0920 	rsb	r9, r2, #32
 800544a:	fa27 f109 	lsr.w	r1, r7, r9
 800544e:	fa26 f909 	lsr.w	r9, r6, r9
 8005452:	4097      	lsls	r7, r2
 8005454:	0c28      	lsrs	r0, r5, #16
 8005456:	fbb1 f8f0 	udiv	r8, r1, r0
 800545a:	fb00 1118 	mls	r1, r0, r8, r1
 800545e:	fa1f fc85 	uxth.w	ip, r5
 8005462:	fb0c f308 	mul.w	r3, ip, r8
 8005466:	ea49 0907 	orr.w	r9, r9, r7
 800546a:	ea4f 4719 	mov.w	r7, r9, lsr #16
 800546e:	ea47 4101 	orr.w	r1, r7, r1, lsl #16
 8005472:	428b      	cmp	r3, r1
 8005474:	fa06 f602 	lsl.w	r6, r6, r2
 8005478:	d908      	bls.n	800548c <__divdi3+0x1a0>
 800547a:	1949      	adds	r1, r1, r5
 800547c:	f108 32ff 	add.w	r2, r8, #4294967295
 8005480:	d27a      	bcs.n	8005578 <__divdi3+0x28c>
 8005482:	428b      	cmp	r3, r1
 8005484:	d978      	bls.n	8005578 <__divdi3+0x28c>
 8005486:	f1a8 0802 	sub.w	r8, r8, #2
 800548a:	4429      	add	r1, r5
 800548c:	1ac9      	subs	r1, r1, r3
 800548e:	fbb1 f3f0 	udiv	r3, r1, r0
 8005492:	fb00 1713 	mls	r7, r0, r3, r1
 8005496:	fb0c f203 	mul.w	r2, ip, r3
 800549a:	fa1f f989 	uxth.w	r9, r9
 800549e:	ea49 4707 	orr.w	r7, r9, r7, lsl #16
 80054a2:	42ba      	cmp	r2, r7
 80054a4:	d907      	bls.n	80054b6 <__divdi3+0x1ca>
 80054a6:	197f      	adds	r7, r7, r5
 80054a8:	f103 31ff 	add.w	r1, r3, #4294967295
 80054ac:	d260      	bcs.n	8005570 <__divdi3+0x284>
 80054ae:	42ba      	cmp	r2, r7
 80054b0:	d95e      	bls.n	8005570 <__divdi3+0x284>
 80054b2:	3b02      	subs	r3, #2
 80054b4:	442f      	add	r7, r5
 80054b6:	1abf      	subs	r7, r7, r2
 80054b8:	ea43 4308 	orr.w	r3, r3, r8, lsl #16
 80054bc:	e78c      	b.n	80053d8 <__divdi3+0xec>
 80054be:	f1c8 0220 	rsb	r2, r8, #32
 80054c2:	fa25 f102 	lsr.w	r1, r5, r2
 80054c6:	fa03 fc08 	lsl.w	ip, r3, r8
 80054ca:	fa27 f302 	lsr.w	r3, r7, r2
 80054ce:	fa20 f202 	lsr.w	r2, r0, r2
 80054d2:	fa07 f708 	lsl.w	r7, r7, r8
 80054d6:	ea41 0c0c 	orr.w	ip, r1, ip
 80054da:	ea4f 491c 	mov.w	r9, ip, lsr #16
 80054de:	fbb3 f1f9 	udiv	r1, r3, r9
 80054e2:	fb09 3311 	mls	r3, r9, r1, r3
 80054e6:	fa1f fa8c 	uxth.w	sl, ip
 80054ea:	fb0a fb01 	mul.w	fp, sl, r1
 80054ee:	4317      	orrs	r7, r2
 80054f0:	0c3a      	lsrs	r2, r7, #16
 80054f2:	ea42 4303 	orr.w	r3, r2, r3, lsl #16
 80054f6:	459b      	cmp	fp, r3
 80054f8:	fa05 f008 	lsl.w	r0, r5, r8
 80054fc:	d908      	bls.n	8005510 <__divdi3+0x224>
 80054fe:	eb13 030c 	adds.w	r3, r3, ip
 8005502:	f101 32ff 	add.w	r2, r1, #4294967295
 8005506:	d235      	bcs.n	8005574 <__divdi3+0x288>
 8005508:	459b      	cmp	fp, r3
 800550a:	d933      	bls.n	8005574 <__divdi3+0x288>
 800550c:	3902      	subs	r1, #2
 800550e:	4463      	add	r3, ip
 8005510:	ebcb 0303 	rsb	r3, fp, r3
 8005514:	fbb3 f2f9 	udiv	r2, r3, r9
 8005518:	fb09 3312 	mls	r3, r9, r2, r3
 800551c:	fb0a fa02 	mul.w	sl, sl, r2
 8005520:	b2bf      	uxth	r7, r7
 8005522:	ea47 4703 	orr.w	r7, r7, r3, lsl #16
 8005526:	45ba      	cmp	sl, r7
 8005528:	d908      	bls.n	800553c <__divdi3+0x250>
 800552a:	eb17 070c 	adds.w	r7, r7, ip
 800552e:	f102 33ff 	add.w	r3, r2, #4294967295
 8005532:	d21b      	bcs.n	800556c <__divdi3+0x280>
 8005534:	45ba      	cmp	sl, r7
 8005536:	d919      	bls.n	800556c <__divdi3+0x280>
 8005538:	3a02      	subs	r2, #2
 800553a:	4467      	add	r7, ip
 800553c:	ea42 4501 	orr.w	r5, r2, r1, lsl #16
 8005540:	fba5 0100 	umull	r0, r1, r5, r0
 8005544:	ebca 0707 	rsb	r7, sl, r7
 8005548:	428f      	cmp	r7, r1
 800554a:	f04f 0300 	mov.w	r3, #0
 800554e:	d30a      	bcc.n	8005566 <__divdi3+0x27a>
 8005550:	d005      	beq.n	800555e <__divdi3+0x272>
 8005552:	462a      	mov	r2, r5
 8005554:	e71c      	b.n	8005390 <__divdi3+0xa4>
 8005556:	4662      	mov	r2, ip
 8005558:	e6fd      	b.n	8005356 <__divdi3+0x6a>
 800555a:	463b      	mov	r3, r7
 800555c:	e710      	b.n	8005380 <__divdi3+0x94>
 800555e:	fa06 f608 	lsl.w	r6, r6, r8
 8005562:	4286      	cmp	r6, r0
 8005564:	d2f5      	bcs.n	8005552 <__divdi3+0x266>
 8005566:	1e6a      	subs	r2, r5, #1
 8005568:	2300      	movs	r3, #0
 800556a:	e711      	b.n	8005390 <__divdi3+0xa4>
 800556c:	461a      	mov	r2, r3
 800556e:	e7e5      	b.n	800553c <__divdi3+0x250>
 8005570:	460b      	mov	r3, r1
 8005572:	e7a0      	b.n	80054b6 <__divdi3+0x1ca>
 8005574:	4611      	mov	r1, r2
 8005576:	e7cb      	b.n	8005510 <__divdi3+0x224>
 8005578:	4690      	mov	r8, r2
 800557a:	e787      	b.n	800548c <__divdi3+0x1a0>
 800557c:	4643      	mov	r3, r8
 800557e:	4642      	mov	r2, r8
 8005580:	e706      	b.n	8005390 <__divdi3+0xa4>
 8005582:	3a02      	subs	r2, #2
 8005584:	e750      	b.n	8005428 <__divdi3+0x13c>
 8005586:	3902      	subs	r1, #2
 8005588:	442f      	add	r7, r5
 800558a:	e739      	b.n	8005400 <__divdi3+0x114>

0800558c <__udivdi3>:
 800558c:	e92d 0ff0 	stmdb	sp!, {r4, r5, r6, r7, r8, r9, sl, fp}
 8005590:	4614      	mov	r4, r2
 8005592:	4605      	mov	r5, r0
 8005594:	460e      	mov	r6, r1
 8005596:	2b00      	cmp	r3, #0
 8005598:	d143      	bne.n	8005622 <__udivdi3+0x96>
 800559a:	428a      	cmp	r2, r1
 800559c:	d953      	bls.n	8005646 <__udivdi3+0xba>
 800559e:	fab2 f782 	clz	r7, r2
 80055a2:	b157      	cbz	r7, 80055ba <__udivdi3+0x2e>
 80055a4:	f1c7 0620 	rsb	r6, r7, #32
 80055a8:	fa20 f606 	lsr.w	r6, r0, r6
 80055ac:	fa01 f307 	lsl.w	r3, r1, r7
 80055b0:	fa02 f407 	lsl.w	r4, r2, r7
 80055b4:	fa00 f507 	lsl.w	r5, r0, r7
 80055b8:	431e      	orrs	r6, r3
 80055ba:	0c21      	lsrs	r1, r4, #16
 80055bc:	fbb6 f2f1 	udiv	r2, r6, r1
 80055c0:	fb01 6612 	mls	r6, r1, r2, r6
 80055c4:	b2a0      	uxth	r0, r4
 80055c6:	fb00 f302 	mul.w	r3, r0, r2
 80055ca:	0c2f      	lsrs	r7, r5, #16
 80055cc:	ea47 4606 	orr.w	r6, r7, r6, lsl #16
 80055d0:	42b3      	cmp	r3, r6
 80055d2:	d909      	bls.n	80055e8 <__udivdi3+0x5c>
 80055d4:	1936      	adds	r6, r6, r4
 80055d6:	f102 37ff 	add.w	r7, r2, #4294967295
 80055da:	f080 80fd 	bcs.w	80057d8 <__udivdi3+0x24c>
 80055de:	42b3      	cmp	r3, r6
 80055e0:	f240 80fa 	bls.w	80057d8 <__udivdi3+0x24c>
 80055e4:	3a02      	subs	r2, #2
 80055e6:	4426      	add	r6, r4
 80055e8:	1af6      	subs	r6, r6, r3
 80055ea:	fbb6 f3f1 	udiv	r3, r6, r1
 80055ee:	fb01 6113 	mls	r1, r1, r3, r6
 80055f2:	fb00 f003 	mul.w	r0, r0, r3
 80055f6:	b2ad      	uxth	r5, r5
 80055f8:	ea45 4101 	orr.w	r1, r5, r1, lsl #16
 80055fc:	4288      	cmp	r0, r1
 80055fe:	d908      	bls.n	8005612 <__udivdi3+0x86>
 8005600:	1909      	adds	r1, r1, r4
 8005602:	f103 36ff 	add.w	r6, r3, #4294967295
 8005606:	f080 80e9 	bcs.w	80057dc <__udivdi3+0x250>
 800560a:	4288      	cmp	r0, r1
 800560c:	f240 80e6 	bls.w	80057dc <__udivdi3+0x250>
 8005610:	3b02      	subs	r3, #2
 8005612:	ea43 4202 	orr.w	r2, r3, r2, lsl #16
 8005616:	2300      	movs	r3, #0
 8005618:	4610      	mov	r0, r2
 800561a:	4619      	mov	r1, r3
 800561c:	e8bd 0ff0 	ldmia.w	sp!, {r4, r5, r6, r7, r8, r9, sl, fp}
 8005620:	4770      	bx	lr
 8005622:	428b      	cmp	r3, r1
 8005624:	d84c      	bhi.n	80056c0 <__udivdi3+0x134>
 8005626:	fab3 f683 	clz	r6, r3
 800562a:	2e00      	cmp	r6, #0
 800562c:	d14f      	bne.n	80056ce <__udivdi3+0x142>
 800562e:	428b      	cmp	r3, r1
 8005630:	d302      	bcc.n	8005638 <__udivdi3+0xac>
 8005632:	4282      	cmp	r2, r0
 8005634:	f200 80dd 	bhi.w	80057f2 <__udivdi3+0x266>
 8005638:	e8bd 0ff0 	ldmia.w	sp!, {r4, r5, r6, r7, r8, r9, sl, fp}
 800563c:	2300      	movs	r3, #0
 800563e:	2201      	movs	r2, #1
 8005640:	4610      	mov	r0, r2
 8005642:	4619      	mov	r1, r3
 8005644:	4770      	bx	lr
 8005646:	b912      	cbnz	r2, 800564e <__udivdi3+0xc2>
 8005648:	2401      	movs	r4, #1
 800564a:	fbb4 f4f2 	udiv	r4, r4, r2
 800564e:	fab4 f284 	clz	r2, r4
 8005652:	2a00      	cmp	r2, #0
 8005654:	f040 8082 	bne.w	800575c <__udivdi3+0x1d0>
 8005658:	1b09      	subs	r1, r1, r4
 800565a:	0c26      	lsrs	r6, r4, #16
 800565c:	b2a7      	uxth	r7, r4
 800565e:	2301      	movs	r3, #1
 8005660:	fbb1 f0f6 	udiv	r0, r1, r6
 8005664:	fb06 1110 	mls	r1, r6, r0, r1
 8005668:	fb07 f200 	mul.w	r2, r7, r0
 800566c:	ea4f 4c15 	mov.w	ip, r5, lsr #16
 8005670:	ea4c 4101 	orr.w	r1, ip, r1, lsl #16
 8005674:	428a      	cmp	r2, r1
 8005676:	d907      	bls.n	8005688 <__udivdi3+0xfc>
 8005678:	1909      	adds	r1, r1, r4
 800567a:	f100 3cff 	add.w	ip, r0, #4294967295
 800567e:	d202      	bcs.n	8005686 <__udivdi3+0xfa>
 8005680:	428a      	cmp	r2, r1
 8005682:	f200 80c8 	bhi.w	8005816 <__udivdi3+0x28a>
 8005686:	4660      	mov	r0, ip
 8005688:	1a89      	subs	r1, r1, r2
 800568a:	fbb1 f2f6 	udiv	r2, r1, r6
 800568e:	fb06 1112 	mls	r1, r6, r2, r1
 8005692:	fb07 f702 	mul.w	r7, r7, r2
 8005696:	b2ad      	uxth	r5, r5
 8005698:	ea45 4501 	orr.w	r5, r5, r1, lsl #16
 800569c:	42af      	cmp	r7, r5
 800569e:	d908      	bls.n	80056b2 <__udivdi3+0x126>
 80056a0:	192c      	adds	r4, r5, r4
 80056a2:	f102 31ff 	add.w	r1, r2, #4294967295
 80056a6:	f080 809b 	bcs.w	80057e0 <__udivdi3+0x254>
 80056aa:	42a7      	cmp	r7, r4
 80056ac:	f240 8098 	bls.w	80057e0 <__udivdi3+0x254>
 80056b0:	3a02      	subs	r2, #2
 80056b2:	ea42 4200 	orr.w	r2, r2, r0, lsl #16
 80056b6:	4610      	mov	r0, r2
 80056b8:	4619      	mov	r1, r3
 80056ba:	e8bd 0ff0 	ldmia.w	sp!, {r4, r5, r6, r7, r8, r9, sl, fp}
 80056be:	4770      	bx	lr
 80056c0:	2300      	movs	r3, #0
 80056c2:	461a      	mov	r2, r3
 80056c4:	4610      	mov	r0, r2
 80056c6:	4619      	mov	r1, r3
 80056c8:	e8bd 0ff0 	ldmia.w	sp!, {r4, r5, r6, r7, r8, r9, sl, fp}
 80056cc:	4770      	bx	lr
 80056ce:	f1c6 0520 	rsb	r5, r6, #32
 80056d2:	fa22 f705 	lsr.w	r7, r2, r5
 80056d6:	fa03 f406 	lsl.w	r4, r3, r6
 80056da:	fa21 f305 	lsr.w	r3, r1, r5
 80056de:	fa01 fb06 	lsl.w	fp, r1, r6
 80056e2:	fa20 f505 	lsr.w	r5, r0, r5
 80056e6:	433c      	orrs	r4, r7
 80056e8:	ea4f 4814 	mov.w	r8, r4, lsr #16
 80056ec:	fbb3 fcf8 	udiv	ip, r3, r8
 80056f0:	fb08 331c 	mls	r3, r8, ip, r3
 80056f4:	fa1f f984 	uxth.w	r9, r4
 80056f8:	fb09 fa0c 	mul.w	sl, r9, ip
 80056fc:	ea45 0b0b 	orr.w	fp, r5, fp
 8005700:	ea4f 451b 	mov.w	r5, fp, lsr #16
 8005704:	ea45 4303 	orr.w	r3, r5, r3, lsl #16
 8005708:	459a      	cmp	sl, r3
 800570a:	fa02 f206 	lsl.w	r2, r2, r6
 800570e:	d904      	bls.n	800571a <__udivdi3+0x18e>
 8005710:	191b      	adds	r3, r3, r4
 8005712:	f10c 35ff 	add.w	r5, ip, #4294967295
 8005716:	d36f      	bcc.n	80057f8 <__udivdi3+0x26c>
 8005718:	46ac      	mov	ip, r5
 800571a:	ebca 0303 	rsb	r3, sl, r3
 800571e:	fbb3 f5f8 	udiv	r5, r3, r8
 8005722:	fb08 3315 	mls	r3, r8, r5, r3
 8005726:	fb09 f905 	mul.w	r9, r9, r5
 800572a:	fa1f fb8b 	uxth.w	fp, fp
 800572e:	ea4b 4703 	orr.w	r7, fp, r3, lsl #16
 8005732:	45b9      	cmp	r9, r7
 8005734:	d904      	bls.n	8005740 <__udivdi3+0x1b4>
 8005736:	193f      	adds	r7, r7, r4
 8005738:	f105 33ff 	add.w	r3, r5, #4294967295
 800573c:	d362      	bcc.n	8005804 <__udivdi3+0x278>
 800573e:	461d      	mov	r5, r3
 8005740:	ea45 4c0c 	orr.w	ip, r5, ip, lsl #16
 8005744:	fbac 2302 	umull	r2, r3, ip, r2
 8005748:	ebc9 0707 	rsb	r7, r9, r7
 800574c:	429f      	cmp	r7, r3
 800574e:	f04f 0500 	mov.w	r5, #0
 8005752:	d34a      	bcc.n	80057ea <__udivdi3+0x25e>
 8005754:	d046      	beq.n	80057e4 <__udivdi3+0x258>
 8005756:	4662      	mov	r2, ip
 8005758:	462b      	mov	r3, r5
 800575a:	e75d      	b.n	8005618 <__udivdi3+0x8c>
 800575c:	4094      	lsls	r4, r2
 800575e:	f1c2 0920 	rsb	r9, r2, #32
 8005762:	fa21 fc09 	lsr.w	ip, r1, r9
 8005766:	4091      	lsls	r1, r2
 8005768:	fa20 f909 	lsr.w	r9, r0, r9
 800576c:	0c26      	lsrs	r6, r4, #16
 800576e:	fbbc f8f6 	udiv	r8, ip, r6
 8005772:	fb06 cc18 	mls	ip, r6, r8, ip
 8005776:	b2a7      	uxth	r7, r4
 8005778:	fb07 f308 	mul.w	r3, r7, r8
 800577c:	ea49 0901 	orr.w	r9, r9, r1
 8005780:	ea4f 4119 	mov.w	r1, r9, lsr #16
 8005784:	ea41 4c0c 	orr.w	ip, r1, ip, lsl #16
 8005788:	4563      	cmp	r3, ip
 800578a:	fa00 f502 	lsl.w	r5, r0, r2
 800578e:	d909      	bls.n	80057a4 <__udivdi3+0x218>
 8005790:	eb1c 0c04 	adds.w	ip, ip, r4
 8005794:	f108 32ff 	add.w	r2, r8, #4294967295
 8005798:	d23b      	bcs.n	8005812 <__udivdi3+0x286>
 800579a:	4563      	cmp	r3, ip
 800579c:	d939      	bls.n	8005812 <__udivdi3+0x286>
 800579e:	f1a8 0802 	sub.w	r8, r8, #2
 80057a2:	44a4      	add	ip, r4
 80057a4:	ebc3 0c0c 	rsb	ip, r3, ip
 80057a8:	fbbc f3f6 	udiv	r3, ip, r6
 80057ac:	fb06 c113 	mls	r1, r6, r3, ip
 80057b0:	fb07 f203 	mul.w	r2, r7, r3
 80057b4:	fa1f f989 	uxth.w	r9, r9
 80057b8:	ea49 4101 	orr.w	r1, r9, r1, lsl #16
 80057bc:	428a      	cmp	r2, r1
 80057be:	d907      	bls.n	80057d0 <__udivdi3+0x244>
 80057c0:	1909      	adds	r1, r1, r4
 80057c2:	f103 30ff 	add.w	r0, r3, #4294967295
 80057c6:	d222      	bcs.n	800580e <__udivdi3+0x282>
 80057c8:	428a      	cmp	r2, r1
 80057ca:	d920      	bls.n	800580e <__udivdi3+0x282>
 80057cc:	3b02      	subs	r3, #2
 80057ce:	4421      	add	r1, r4
 80057d0:	1a89      	subs	r1, r1, r2
 80057d2:	ea43 4308 	orr.w	r3, r3, r8, lsl #16
 80057d6:	e743      	b.n	8005660 <__udivdi3+0xd4>
 80057d8:	463a      	mov	r2, r7
 80057da:	e705      	b.n	80055e8 <__udivdi3+0x5c>
 80057dc:	4633      	mov	r3, r6
 80057de:	e718      	b.n	8005612 <__udivdi3+0x86>
 80057e0:	460a      	mov	r2, r1
 80057e2:	e766      	b.n	80056b2 <__udivdi3+0x126>
 80057e4:	40b0      	lsls	r0, r6
 80057e6:	4290      	cmp	r0, r2
 80057e8:	d2b5      	bcs.n	8005756 <__udivdi3+0x1ca>
 80057ea:	f10c 32ff 	add.w	r2, ip, #4294967295
 80057ee:	2300      	movs	r3, #0
 80057f0:	e712      	b.n	8005618 <__udivdi3+0x8c>
 80057f2:	4633      	mov	r3, r6
 80057f4:	4632      	mov	r2, r6
 80057f6:	e70f      	b.n	8005618 <__udivdi3+0x8c>
 80057f8:	459a      	cmp	sl, r3
 80057fa:	d98d      	bls.n	8005718 <__udivdi3+0x18c>
 80057fc:	f1ac 0c02 	sub.w	ip, ip, #2
 8005800:	4423      	add	r3, r4
 8005802:	e78a      	b.n	800571a <__udivdi3+0x18e>
 8005804:	45b9      	cmp	r9, r7
 8005806:	d99a      	bls.n	800573e <__udivdi3+0x1b2>
 8005808:	3d02      	subs	r5, #2
 800580a:	4427      	add	r7, r4
 800580c:	e798      	b.n	8005740 <__udivdi3+0x1b4>
 800580e:	4603      	mov	r3, r0
 8005810:	e7de      	b.n	80057d0 <__udivdi3+0x244>
 8005812:	4690      	mov	r8, r2
 8005814:	e7c6      	b.n	80057a4 <__udivdi3+0x218>
 8005816:	3802      	subs	r0, #2
 8005818:	4421      	add	r1, r4
 800581a:	e735      	b.n	8005688 <__udivdi3+0xfc>

0800581c <Reset_Handler>:
 800581c:	2100      	movs	r1, #0
 800581e:	f000 b804 	b.w	800582a <LoopCopyDataInit>

08005822 <CopyDataInit>:
 8005822:	4b0d      	ldr	r3, [pc, #52]	; (8005858 <LoopFillZerobss+0x16>)
 8005824:	585b      	ldr	r3, [r3, r1]
 8005826:	5043      	str	r3, [r0, r1]
 8005828:	3104      	adds	r1, #4

0800582a <LoopCopyDataInit>:
 800582a:	480c      	ldr	r0, [pc, #48]	; (800585c <LoopFillZerobss+0x1a>)
 800582c:	4b0c      	ldr	r3, [pc, #48]	; (8005860 <LoopFillZerobss+0x1e>)
 800582e:	1842      	adds	r2, r0, r1
 8005830:	429a      	cmp	r2, r3
 8005832:	f4ff aff6 	bcc.w	8005822 <CopyDataInit>
 8005836:	4a0b      	ldr	r2, [pc, #44]	; (8005864 <LoopFillZerobss+0x22>)
 8005838:	f000 b803 	b.w	8005842 <LoopFillZerobss>

0800583c <FillZerobss>:
 800583c:	2300      	movs	r3, #0
 800583e:	f842 3b04 	str.w	r3, [r2], #4

08005842 <LoopFillZerobss>:
 8005842:	4b09      	ldr	r3, [pc, #36]	; (8005868 <LoopFillZerobss+0x26>)
 8005844:	429a      	cmp	r2, r3
 8005846:	f4ff aff9 	bcc.w	800583c <FillZerobss>
 800584a:	f001 fe4d 	bl	80074e8 <SystemInit>
 800584e:	f005 fe6d 	bl	800b52c <__libc_init_array>
 8005852:	f002 ffbb 	bl	80087cc <main>
 8005856:	4770      	bx	lr
 8005858:	0800fc34 	.word	0x0800fc34
 800585c:	20000000 	.word	0x20000000
 8005860:	200009b4 	.word	0x200009b4
 8005864:	200009b4 	.word	0x200009b4
 8005868:	200058dc 	.word	0x200058dc

0800586c <ADC1_2_IRQHandler>:
 800586c:	f7ff bffe 	b.w	800586c <ADC1_2_IRQHandler>

08005870 <GPIO_Init>:
 8005870:	e92d 03f0 	stmdb	sp!, {r4, r5, r6, r7, r8, r9}
 8005874:	78cd      	ldrb	r5, [r1, #3]
 8005876:	06eb      	lsls	r3, r5, #27
 8005878:	bf48      	it	mi
 800587a:	788b      	ldrbmi	r3, [r1, #2]
 800587c:	8809      	ldrh	r1, [r1, #0]
 800587e:	f005 070f 	and.w	r7, r5, #15
 8005882:	bf48      	it	mi
 8005884:	431f      	orrmi	r7, r3
 8005886:	f011 0fff 	tst.w	r1, #255	; 0xff
 800588a:	d023      	beq.n	80058d4 <GPIO_Init+0x64>
 800588c:	f8d0 c000 	ldr.w	ip, [r0]
 8005890:	2300      	movs	r3, #0
 8005892:	2601      	movs	r6, #1
 8005894:	f04f 080f 	mov.w	r8, #15
 8005898:	e002      	b.n	80058a0 <GPIO_Init+0x30>
 800589a:	3301      	adds	r3, #1
 800589c:	2b08      	cmp	r3, #8
 800589e:	d017      	beq.n	80058d0 <GPIO_Init+0x60>
 80058a0:	fa06 f203 	lsl.w	r2, r6, r3
 80058a4:	ea02 0401 	and.w	r4, r2, r1
 80058a8:	4294      	cmp	r4, r2
 80058aa:	d1f6      	bne.n	800589a <GPIO_Init+0x2a>
 80058ac:	009a      	lsls	r2, r3, #2
 80058ae:	fa08 f902 	lsl.w	r9, r8, r2
 80058b2:	fa07 f202 	lsl.w	r2, r7, r2
 80058b6:	ea2c 0c09 	bic.w	ip, ip, r9
 80058ba:	2d28      	cmp	r5, #40	; 0x28
 80058bc:	ea4c 0c02 	orr.w	ip, ip, r2
 80058c0:	d035      	beq.n	800592e <GPIO_Init+0xbe>
 80058c2:	2d48      	cmp	r5, #72	; 0x48
 80058c4:	f103 0301 	add.w	r3, r3, #1
 80058c8:	bf08      	it	eq
 80058ca:	6104      	streq	r4, [r0, #16]
 80058cc:	2b08      	cmp	r3, #8
 80058ce:	d1e7      	bne.n	80058a0 <GPIO_Init+0x30>
 80058d0:	f8c0 c000 	str.w	ip, [r0]
 80058d4:	29ff      	cmp	r1, #255	; 0xff
 80058d6:	d925      	bls.n	8005924 <GPIO_Init+0xb4>
 80058d8:	f8d0 c004 	ldr.w	ip, [r0, #4]
 80058dc:	2300      	movs	r3, #0
 80058de:	2601      	movs	r6, #1
 80058e0:	f04f 080f 	mov.w	r8, #15
 80058e4:	e002      	b.n	80058ec <GPIO_Init+0x7c>
 80058e6:	3301      	adds	r3, #1
 80058e8:	2b08      	cmp	r3, #8
 80058ea:	d019      	beq.n	8005920 <GPIO_Init+0xb0>
 80058ec:	f103 0208 	add.w	r2, r3, #8
 80058f0:	fa06 f202 	lsl.w	r2, r6, r2
 80058f4:	ea02 0401 	and.w	r4, r2, r1
 80058f8:	4294      	cmp	r4, r2
 80058fa:	d1f4      	bne.n	80058e6 <GPIO_Init+0x76>
 80058fc:	009a      	lsls	r2, r3, #2
 80058fe:	fa08 f902 	lsl.w	r9, r8, r2
 8005902:	fa07 f202 	lsl.w	r2, r7, r2
 8005906:	ea2c 0c09 	bic.w	ip, ip, r9
 800590a:	2d28      	cmp	r5, #40	; 0x28
 800590c:	ea4c 0c02 	orr.w	ip, ip, r2
 8005910:	d00b      	beq.n	800592a <GPIO_Init+0xba>
 8005912:	2d48      	cmp	r5, #72	; 0x48
 8005914:	f103 0301 	add.w	r3, r3, #1
 8005918:	bf08      	it	eq
 800591a:	6104      	streq	r4, [r0, #16]
 800591c:	2b08      	cmp	r3, #8
 800591e:	d1e5      	bne.n	80058ec <GPIO_Init+0x7c>
 8005920:	f8c0 c004 	str.w	ip, [r0, #4]
 8005924:	e8bd 03f0 	ldmia.w	sp!, {r4, r5, r6, r7, r8, r9}
 8005928:	4770      	bx	lr
 800592a:	6144      	str	r4, [r0, #20]
 800592c:	e7db      	b.n	80058e6 <GPIO_Init+0x76>
 800592e:	6144      	str	r4, [r0, #20]
 8005930:	e7b3      	b.n	800589a <GPIO_Init+0x2a>
 8005932:	bf00      	nop

08005934 <GPIO_ReadInputDataBit>:
 8005934:	6883      	ldr	r3, [r0, #8]
 8005936:	4219      	tst	r1, r3
 8005938:	bf0c      	ite	eq
 800593a:	2000      	moveq	r0, #0
 800593c:	2001      	movne	r0, #1
 800593e:	4770      	bx	lr

08005940 <GPIO_SetBits>:
 8005940:	6101      	str	r1, [r0, #16]
 8005942:	4770      	bx	lr

08005944 <GPIO_ResetBits>:
 8005944:	6141      	str	r1, [r0, #20]
 8005946:	4770      	bx	lr

08005948 <GPIO_WriteBit>:
 8005948:	b90a      	cbnz	r2, 800594e <GPIO_WriteBit+0x6>
 800594a:	6141      	str	r1, [r0, #20]
 800594c:	4770      	bx	lr
 800594e:	6101      	str	r1, [r0, #16]
 8005950:	4770      	bx	lr
 8005952:	bf00      	nop

08005954 <GPIO_ToggleBits>:
 8005954:	68c3      	ldr	r3, [r0, #12]
 8005956:	4059      	eors	r1, r3
 8005958:	60c1      	str	r1, [r0, #12]
 800595a:	4770      	bx	lr

0800595c <GPIO_PinRemapConfig>:
 800595c:	2800      	cmp	r0, #0
 800595e:	4b19      	ldr	r3, [pc, #100]	; (80059c4 <GPIO_PinRemapConfig+0x68>)
 8005960:	f400 1240 	and.w	r2, r0, #3145728	; 0x300000
 8005964:	bfb4      	ite	lt
 8005966:	69db      	ldrlt	r3, [r3, #28]
 8005968:	685b      	ldrge	r3, [r3, #4]
 800596a:	f5b2 1f40 	cmp.w	r2, #3145728	; 0x300000
 800596e:	b430      	push	{r4, r5}
 8005970:	b284      	uxth	r4, r0
 8005972:	d01f      	beq.n	80059b4 <GPIO_PinRemapConfig+0x58>
 8005974:	02c2      	lsls	r2, r0, #11
 8005976:	d514      	bpl.n	80059a2 <GPIO_PinRemapConfig+0x46>
 8005978:	f3c0 4203 	ubfx	r2, r0, #16, #4
 800597c:	2503      	movs	r5, #3
 800597e:	fa05 f202 	lsl.w	r2, r5, r2
 8005982:	ea23 0302 	bic.w	r3, r3, r2
 8005986:	f043 6370 	orr.w	r3, r3, #251658240	; 0xf000000
 800598a:	b119      	cbz	r1, 8005994 <GPIO_PinRemapConfig+0x38>
 800598c:	0d42      	lsrs	r2, r0, #21
 800598e:	0112      	lsls	r2, r2, #4
 8005990:	4094      	lsls	r4, r2
 8005992:	4323      	orrs	r3, r4
 8005994:	4a0b      	ldr	r2, [pc, #44]	; (80059c4 <GPIO_PinRemapConfig+0x68>)
 8005996:	2800      	cmp	r0, #0
 8005998:	bfb4      	ite	lt
 800599a:	61d3      	strlt	r3, [r2, #28]
 800599c:	6053      	strge	r3, [r2, #4]
 800599e:	bc30      	pop	{r4, r5}
 80059a0:	4770      	bx	lr
 80059a2:	0d42      	lsrs	r2, r0, #21
 80059a4:	0112      	lsls	r2, r2, #4
 80059a6:	fa04 f202 	lsl.w	r2, r4, r2
 80059aa:	ea23 0302 	bic.w	r3, r3, r2
 80059ae:	f043 6370 	orr.w	r3, r3, #251658240	; 0xf000000
 80059b2:	e7ea      	b.n	800598a <GPIO_PinRemapConfig+0x2e>
 80059b4:	4a03      	ldr	r2, [pc, #12]	; (80059c4 <GPIO_PinRemapConfig+0x68>)
 80059b6:	f023 6370 	bic.w	r3, r3, #251658240	; 0xf000000
 80059ba:	6855      	ldr	r5, [r2, #4]
 80059bc:	f025 6570 	bic.w	r5, r5, #251658240	; 0xf000000
 80059c0:	6055      	str	r5, [r2, #4]
 80059c2:	e7e2      	b.n	800598a <GPIO_PinRemapConfig+0x2e>
 80059c4:	40010000 	.word	0x40010000

080059c8 <GPIO_EXTILineConfig>:
 80059c8:	f001 0303 	and.w	r3, r1, #3
 80059cc:	009b      	lsls	r3, r3, #2
 80059ce:	220f      	movs	r2, #15
 80059d0:	409a      	lsls	r2, r3
 80059d2:	fa00 f303 	lsl.w	r3, r0, r3
 80059d6:	f001 01fc 	and.w	r1, r1, #252	; 0xfc
 80059da:	f101 4180 	add.w	r1, r1, #1073741824	; 0x40000000
 80059de:	f501 3180 	add.w	r1, r1, #65536	; 0x10000
 80059e2:	6888      	ldr	r0, [r1, #8]
 80059e4:	ea20 0202 	bic.w	r2, r0, r2
 80059e8:	608a      	str	r2, [r1, #8]
 80059ea:	688a      	ldr	r2, [r1, #8]
 80059ec:	4313      	orrs	r3, r2
 80059ee:	608b      	str	r3, [r1, #8]
 80059f0:	4770      	bx	lr
 80059f2:	bf00      	nop

080059f4 <EXTI_Init>:
 80059f4:	7983      	ldrb	r3, [r0, #6]
 80059f6:	b430      	push	{r4, r5}
 80059f8:	b32b      	cbz	r3, 8005a46 <EXTI_Init+0x52>
 80059fa:	4b1d      	ldr	r3, [pc, #116]	; (8005a70 <EXTI_Init+0x7c>)
 80059fc:	6801      	ldr	r1, [r0, #0]
 80059fe:	681a      	ldr	r2, [r3, #0]
 8005a00:	43cc      	mvns	r4, r1
 8005a02:	4022      	ands	r2, r4
 8005a04:	601a      	str	r2, [r3, #0]
 8005a06:	685d      	ldr	r5, [r3, #4]
 8005a08:	7902      	ldrb	r2, [r0, #4]
 8005a0a:	402c      	ands	r4, r5
 8005a0c:	f102 4280 	add.w	r2, r2, #1073741824	; 0x40000000
 8005a10:	605c      	str	r4, [r3, #4]
 8005a12:	f502 3282 	add.w	r2, r2, #66560	; 0x10400
 8005a16:	6815      	ldr	r5, [r2, #0]
 8005a18:	7944      	ldrb	r4, [r0, #5]
 8005a1a:	4329      	orrs	r1, r5
 8005a1c:	6011      	str	r1, [r2, #0]
 8005a1e:	6802      	ldr	r2, [r0, #0]
 8005a20:	6898      	ldr	r0, [r3, #8]
 8005a22:	43d1      	mvns	r1, r2
 8005a24:	4008      	ands	r0, r1
 8005a26:	6098      	str	r0, [r3, #8]
 8005a28:	68d8      	ldr	r0, [r3, #12]
 8005a2a:	2c10      	cmp	r4, #16
 8005a2c:	ea01 0100 	and.w	r1, r1, r0
 8005a30:	60d9      	str	r1, [r3, #12]
 8005a32:	d014      	beq.n	8005a5e <EXTI_Init+0x6a>
 8005a34:	f104 4380 	add.w	r3, r4, #1073741824	; 0x40000000
 8005a38:	f503 3382 	add.w	r3, r3, #66560	; 0x10400
 8005a3c:	6819      	ldr	r1, [r3, #0]
 8005a3e:	bc30      	pop	{r4, r5}
 8005a40:	430a      	orrs	r2, r1
 8005a42:	601a      	str	r2, [r3, #0]
 8005a44:	4770      	bx	lr
 8005a46:	7903      	ldrb	r3, [r0, #4]
 8005a48:	6801      	ldr	r1, [r0, #0]
 8005a4a:	f103 4380 	add.w	r3, r3, #1073741824	; 0x40000000
 8005a4e:	f503 3382 	add.w	r3, r3, #66560	; 0x10400
 8005a52:	681a      	ldr	r2, [r3, #0]
 8005a54:	bc30      	pop	{r4, r5}
 8005a56:	ea22 0201 	bic.w	r2, r2, r1
 8005a5a:	601a      	str	r2, [r3, #0]
 8005a5c:	4770      	bx	lr
 8005a5e:	6899      	ldr	r1, [r3, #8]
 8005a60:	bc30      	pop	{r4, r5}
 8005a62:	4311      	orrs	r1, r2
 8005a64:	6099      	str	r1, [r3, #8]
 8005a66:	68d9      	ldr	r1, [r3, #12]
 8005a68:	430a      	orrs	r2, r1
 8005a6a:	60da      	str	r2, [r3, #12]
 8005a6c:	4770      	bx	lr
 8005a6e:	bf00      	nop
 8005a70:	40010400 	.word	0x40010400

08005a74 <EXTI_GenerateSWInterrupt>:
 8005a74:	4b02      	ldr	r3, [pc, #8]	; (8005a80 <EXTI_GenerateSWInterrupt+0xc>)
 8005a76:	691a      	ldr	r2, [r3, #16]
 8005a78:	4310      	orrs	r0, r2
 8005a7a:	6118      	str	r0, [r3, #16]
 8005a7c:	4770      	bx	lr
 8005a7e:	bf00      	nop
 8005a80:	40010400 	.word	0x40010400

08005a84 <EXTI_ClearITPendingBit>:
 8005a84:	4b01      	ldr	r3, [pc, #4]	; (8005a8c <EXTI_ClearITPendingBit+0x8>)
 8005a86:	6158      	str	r0, [r3, #20]
 8005a88:	4770      	bx	lr
 8005a8a:	bf00      	nop
 8005a8c:	40010400 	.word	0x40010400

08005a90 <ADC_DeInit>:
 8005a90:	b508      	push	{r3, lr}
 8005a92:	4b17      	ldr	r3, [pc, #92]	; (8005af0 <ADC_DeInit+0x60>)
 8005a94:	4298      	cmp	r0, r3
 8005a96:	d012      	beq.n	8005abe <ADC_DeInit+0x2e>
 8005a98:	4b16      	ldr	r3, [pc, #88]	; (8005af4 <ADC_DeInit+0x64>)
 8005a9a:	4298      	cmp	r0, r3
 8005a9c:	d01b      	beq.n	8005ad6 <ADC_DeInit+0x46>
 8005a9e:	4b16      	ldr	r3, [pc, #88]	; (8005af8 <ADC_DeInit+0x68>)
 8005aa0:	4298      	cmp	r0, r3
 8005aa2:	d000      	beq.n	8005aa6 <ADC_DeInit+0x16>
 8005aa4:	bd08      	pop	{r3, pc}
 8005aa6:	f44f 4000 	mov.w	r0, #32768	; 0x8000
 8005aaa:	2101      	movs	r1, #1
 8005aac:	f000 fb46 	bl	800613c <RCC_APB2PeriphResetCmd>
 8005ab0:	e8bd 4008 	ldmia.w	sp!, {r3, lr}
 8005ab4:	f44f 4000 	mov.w	r0, #32768	; 0x8000
 8005ab8:	2100      	movs	r1, #0
 8005aba:	f000 bb3f 	b.w	800613c <RCC_APB2PeriphResetCmd>
 8005abe:	f44f 7000 	mov.w	r0, #512	; 0x200
 8005ac2:	2101      	movs	r1, #1
 8005ac4:	f000 fb3a 	bl	800613c <RCC_APB2PeriphResetCmd>
 8005ac8:	e8bd 4008 	ldmia.w	sp!, {r3, lr}
 8005acc:	f44f 7000 	mov.w	r0, #512	; 0x200
 8005ad0:	2100      	movs	r1, #0
 8005ad2:	f000 bb33 	b.w	800613c <RCC_APB2PeriphResetCmd>
 8005ad6:	f44f 6080 	mov.w	r0, #1024	; 0x400
 8005ada:	2101      	movs	r1, #1
 8005adc:	f000 fb2e 	bl	800613c <RCC_APB2PeriphResetCmd>
 8005ae0:	e8bd 4008 	ldmia.w	sp!, {r3, lr}
 8005ae4:	f44f 6080 	mov.w	r0, #1024	; 0x400
 8005ae8:	2100      	movs	r1, #0
 8005aea:	f000 bb27 	b.w	800613c <RCC_APB2PeriphResetCmd>
 8005aee:	bf00      	nop
 8005af0:	40012400 	.word	0x40012400
 8005af4:	40012800 	.word	0x40012800
 8005af8:	40013c00 	.word	0x40013c00

08005afc <ADC_Init>:
 8005afc:	6843      	ldr	r3, [r0, #4]
 8005afe:	680a      	ldr	r2, [r1, #0]
 8005b00:	f423 2370 	bic.w	r3, r3, #983040	; 0xf0000
 8005b04:	b430      	push	{r4, r5}
 8005b06:	f423 7380 	bic.w	r3, r3, #256	; 0x100
 8005b0a:	790c      	ldrb	r4, [r1, #4]
 8005b0c:	4313      	orrs	r3, r2
 8005b0e:	ea43 2304 	orr.w	r3, r3, r4, lsl #8
 8005b12:	6043      	str	r3, [r0, #4]
 8005b14:	6885      	ldr	r5, [r0, #8]
 8005b16:	688c      	ldr	r4, [r1, #8]
 8005b18:	68ca      	ldr	r2, [r1, #12]
 8005b1a:	4b09      	ldr	r3, [pc, #36]	; (8005b40 <ADC_Init+0x44>)
 8005b1c:	4322      	orrs	r2, r4
 8005b1e:	402b      	ands	r3, r5
 8005b20:	794d      	ldrb	r5, [r1, #5]
 8005b22:	4313      	orrs	r3, r2
 8005b24:	ea43 0345 	orr.w	r3, r3, r5, lsl #1
 8005b28:	6083      	str	r3, [r0, #8]
 8005b2a:	7c0b      	ldrb	r3, [r1, #16]
 8005b2c:	6ac2      	ldr	r2, [r0, #44]	; 0x2c
 8005b2e:	3b01      	subs	r3, #1
 8005b30:	b2db      	uxtb	r3, r3
 8005b32:	f422 0270 	bic.w	r2, r2, #15728640	; 0xf00000
 8005b36:	ea42 5303 	orr.w	r3, r2, r3, lsl #20
 8005b3a:	62c3      	str	r3, [r0, #44]	; 0x2c
 8005b3c:	bc30      	pop	{r4, r5}
 8005b3e:	4770      	bx	lr
 8005b40:	fff1f7fd 	.word	0xfff1f7fd

08005b44 <ADC_Cmd>:
 8005b44:	6883      	ldr	r3, [r0, #8]
 8005b46:	b919      	cbnz	r1, 8005b50 <ADC_Cmd+0xc>
 8005b48:	f023 0301 	bic.w	r3, r3, #1
 8005b4c:	6083      	str	r3, [r0, #8]
 8005b4e:	4770      	bx	lr
 8005b50:	f043 0301 	orr.w	r3, r3, #1
 8005b54:	6083      	str	r3, [r0, #8]
 8005b56:	4770      	bx	lr

08005b58 <ADC_ResetCalibration>:
 8005b58:	6883      	ldr	r3, [r0, #8]
 8005b5a:	f043 0308 	orr.w	r3, r3, #8
 8005b5e:	6083      	str	r3, [r0, #8]
 8005b60:	4770      	bx	lr
 8005b62:	bf00      	nop

08005b64 <ADC_GetResetCalibrationStatus>:
 8005b64:	6880      	ldr	r0, [r0, #8]
 8005b66:	f3c0 00c0 	ubfx	r0, r0, #3, #1
 8005b6a:	4770      	bx	lr

08005b6c <ADC_StartCalibration>:
 8005b6c:	6883      	ldr	r3, [r0, #8]
 8005b6e:	f043 0304 	orr.w	r3, r3, #4
 8005b72:	6083      	str	r3, [r0, #8]
 8005b74:	4770      	bx	lr
 8005b76:	bf00      	nop

08005b78 <ADC_GetCalibrationStatus>:
 8005b78:	6880      	ldr	r0, [r0, #8]
 8005b7a:	f3c0 0080 	ubfx	r0, r0, #2, #1
 8005b7e:	4770      	bx	lr

08005b80 <NVIC_PriorityGroupConfig>:
 8005b80:	f040 60bf 	orr.w	r0, r0, #100139008	; 0x5f80000
 8005b84:	4b02      	ldr	r3, [pc, #8]	; (8005b90 <NVIC_PriorityGroupConfig+0x10>)
 8005b86:	f440 3000 	orr.w	r0, r0, #131072	; 0x20000
 8005b8a:	60d8      	str	r0, [r3, #12]
 8005b8c:	4770      	bx	lr
 8005b8e:	bf00      	nop
 8005b90:	e000ed00 	.word	0xe000ed00

08005b94 <NVIC_Init>:
 8005b94:	78c3      	ldrb	r3, [r0, #3]
 8005b96:	b430      	push	{r4, r5}
 8005b98:	b95b      	cbnz	r3, 8005bb2 <NVIC_Init+0x1e>
 8005b9a:	7803      	ldrb	r3, [r0, #0]
 8005b9c:	2101      	movs	r1, #1
 8005b9e:	f003 021f 	and.w	r2, r3, #31
 8005ba2:	4091      	lsls	r1, r2
 8005ba4:	bc30      	pop	{r4, r5}
 8005ba6:	095b      	lsrs	r3, r3, #5
 8005ba8:	4a14      	ldr	r2, [pc, #80]	; (8005bfc <NVIC_Init+0x68>)
 8005baa:	3320      	adds	r3, #32
 8005bac:	f842 1023 	str.w	r1, [r2, r3, lsl #2]
 8005bb0:	4770      	bx	lr
 8005bb2:	4b13      	ldr	r3, [pc, #76]	; (8005c00 <NVIC_Init+0x6c>)
 8005bb4:	7844      	ldrb	r4, [r0, #1]
 8005bb6:	68db      	ldr	r3, [r3, #12]
 8005bb8:	220f      	movs	r2, #15
 8005bba:	43db      	mvns	r3, r3
 8005bbc:	f3c3 2302 	ubfx	r3, r3, #8, #3
 8005bc0:	f1c3 0104 	rsb	r1, r3, #4
 8005bc4:	fa22 f303 	lsr.w	r3, r2, r3
 8005bc8:	408c      	lsls	r4, r1
 8005bca:	7885      	ldrb	r5, [r0, #2]
 8005bcc:	7801      	ldrb	r1, [r0, #0]
 8005bce:	ea03 0205 	and.w	r2, r3, r5
 8005bd2:	4322      	orrs	r2, r4
 8005bd4:	f101 4360 	add.w	r3, r1, #3758096384	; 0xe0000000
 8005bd8:	0112      	lsls	r2, r2, #4
 8005bda:	b2d2      	uxtb	r2, r2
 8005bdc:	f503 4361 	add.w	r3, r3, #57600	; 0xe100
 8005be0:	f883 2300 	strb.w	r2, [r3, #768]	; 0x300
 8005be4:	7803      	ldrb	r3, [r0, #0]
 8005be6:	2101      	movs	r1, #1
 8005be8:	f003 021f 	and.w	r2, r3, #31
 8005bec:	4091      	lsls	r1, r2
 8005bee:	bc30      	pop	{r4, r5}
 8005bf0:	4a02      	ldr	r2, [pc, #8]	; (8005bfc <NVIC_Init+0x68>)
 8005bf2:	095b      	lsrs	r3, r3, #5
 8005bf4:	f842 1023 	str.w	r1, [r2, r3, lsl #2]
 8005bf8:	4770      	bx	lr
 8005bfa:	bf00      	nop
 8005bfc:	e000e100 	.word	0xe000e100
 8005c00:	e000ed00 	.word	0xe000ed00

08005c04 <TIM_TimeBaseInit>:
 8005c04:	4a29      	ldr	r2, [pc, #164]	; (8005cac <TIM_TimeBaseInit+0xa8>)
 8005c06:	8803      	ldrh	r3, [r0, #0]
 8005c08:	4290      	cmp	r0, r2
 8005c0a:	b470      	push	{r4, r5, r6}
 8005c0c:	b29b      	uxth	r3, r3
 8005c0e:	d012      	beq.n	8005c36 <TIM_TimeBaseInit+0x32>
 8005c10:	f502 6200 	add.w	r2, r2, #2048	; 0x800
 8005c14:	4290      	cmp	r0, r2
 8005c16:	d00e      	beq.n	8005c36 <TIM_TimeBaseInit+0x32>
 8005c18:	f1b0 4f80 	cmp.w	r0, #1073741824	; 0x40000000
 8005c1c:	d00b      	beq.n	8005c36 <TIM_TimeBaseInit+0x32>
 8005c1e:	f5a2 3298 	sub.w	r2, r2, #77824	; 0x13000
 8005c22:	4290      	cmp	r0, r2
 8005c24:	d007      	beq.n	8005c36 <TIM_TimeBaseInit+0x32>
 8005c26:	f502 6280 	add.w	r2, r2, #1024	; 0x400
 8005c2a:	4290      	cmp	r0, r2
 8005c2c:	d003      	beq.n	8005c36 <TIM_TimeBaseInit+0x32>
 8005c2e:	f502 6280 	add.w	r2, r2, #1024	; 0x400
 8005c32:	4290      	cmp	r0, r2
 8005c34:	d103      	bne.n	8005c3e <TIM_TimeBaseInit+0x3a>
 8005c36:	884a      	ldrh	r2, [r1, #2]
 8005c38:	f023 0370 	bic.w	r3, r3, #112	; 0x70
 8005c3c:	4313      	orrs	r3, r2
 8005c3e:	4a1c      	ldr	r2, [pc, #112]	; (8005cb0 <TIM_TimeBaseInit+0xac>)
 8005c40:	4290      	cmp	r0, r2
 8005c42:	d02a      	beq.n	8005c9a <TIM_TimeBaseInit+0x96>
 8005c44:	f502 6280 	add.w	r2, r2, #1024	; 0x400
 8005c48:	4290      	cmp	r0, r2
 8005c4a:	d026      	beq.n	8005c9a <TIM_TimeBaseInit+0x96>
 8005c4c:	88ce      	ldrh	r6, [r1, #6]
 8005c4e:	f423 7340 	bic.w	r3, r3, #768	; 0x300
 8005c52:	888d      	ldrh	r5, [r1, #4]
 8005c54:	880c      	ldrh	r4, [r1, #0]
 8005c56:	b29b      	uxth	r3, r3
 8005c58:	f502 328c 	add.w	r2, r2, #71680	; 0x11800
 8005c5c:	4333      	orrs	r3, r6
 8005c5e:	4290      	cmp	r0, r2
 8005c60:	8003      	strh	r3, [r0, #0]
 8005c62:	8585      	strh	r5, [r0, #44]	; 0x2c
 8005c64:	8504      	strh	r4, [r0, #40]	; 0x28
 8005c66:	d012      	beq.n	8005c8e <TIM_TimeBaseInit+0x8a>
 8005c68:	4b12      	ldr	r3, [pc, #72]	; (8005cb4 <TIM_TimeBaseInit+0xb0>)
 8005c6a:	4298      	cmp	r0, r3
 8005c6c:	d00f      	beq.n	8005c8e <TIM_TimeBaseInit+0x8a>
 8005c6e:	f503 6340 	add.w	r3, r3, #3072	; 0xc00
 8005c72:	4298      	cmp	r0, r3
 8005c74:	d00b      	beq.n	8005c8e <TIM_TimeBaseInit+0x8a>
 8005c76:	f503 6380 	add.w	r3, r3, #1024	; 0x400
 8005c7a:	4298      	cmp	r0, r3
 8005c7c:	d007      	beq.n	8005c8e <TIM_TimeBaseInit+0x8a>
 8005c7e:	f503 6380 	add.w	r3, r3, #1024	; 0x400
 8005c82:	4298      	cmp	r0, r3
 8005c84:	d003      	beq.n	8005c8e <TIM_TimeBaseInit+0x8a>
 8005c86:	bc70      	pop	{r4, r5, r6}
 8005c88:	2301      	movs	r3, #1
 8005c8a:	8283      	strh	r3, [r0, #20]
 8005c8c:	4770      	bx	lr
 8005c8e:	7a0b      	ldrb	r3, [r1, #8]
 8005c90:	bc70      	pop	{r4, r5, r6}
 8005c92:	8603      	strh	r3, [r0, #48]	; 0x30
 8005c94:	2301      	movs	r3, #1
 8005c96:	8283      	strh	r3, [r0, #20]
 8005c98:	4770      	bx	lr
 8005c9a:	8003      	strh	r3, [r0, #0]
 8005c9c:	888b      	ldrh	r3, [r1, #4]
 8005c9e:	bc70      	pop	{r4, r5, r6}
 8005ca0:	8583      	strh	r3, [r0, #44]	; 0x2c
 8005ca2:	880b      	ldrh	r3, [r1, #0]
 8005ca4:	8503      	strh	r3, [r0, #40]	; 0x28
 8005ca6:	2301      	movs	r3, #1
 8005ca8:	8283      	strh	r3, [r0, #20]
 8005caa:	4770      	bx	lr
 8005cac:	40012c00 	.word	0x40012c00
 8005cb0:	40001000 	.word	0x40001000
 8005cb4:	40013400 	.word	0x40013400

08005cb8 <TIM_OC1Init>:
 8005cb8:	8c03      	ldrh	r3, [r0, #32]
 8005cba:	b4f0      	push	{r4, r5, r6, r7}
 8005cbc:	f023 0301 	bic.w	r3, r3, #1
 8005cc0:	041b      	lsls	r3, r3, #16
 8005cc2:	0c1b      	lsrs	r3, r3, #16
 8005cc4:	8403      	strh	r3, [r0, #32]
 8005cc6:	8c02      	ldrh	r2, [r0, #32]
 8005cc8:	890d      	ldrh	r5, [r1, #8]
 8005cca:	8884      	ldrh	r4, [r0, #4]
 8005ccc:	884f      	ldrh	r7, [r1, #2]
 8005cce:	8b03      	ldrh	r3, [r0, #24]
 8005cd0:	432f      	orrs	r7, r5
 8005cd2:	f022 0202 	bic.w	r2, r2, #2
 8005cd6:	f023 0373 	bic.w	r3, r3, #115	; 0x73
 8005cda:	4d1a      	ldr	r5, [pc, #104]	; (8005d44 <TIM_OC1Init+0x8c>)
 8005cdc:	0412      	lsls	r2, r2, #16
 8005cde:	041b      	lsls	r3, r3, #16
 8005ce0:	880e      	ldrh	r6, [r1, #0]
 8005ce2:	0c12      	lsrs	r2, r2, #16
 8005ce4:	b2bf      	uxth	r7, r7
 8005ce6:	0c1b      	lsrs	r3, r3, #16
 8005ce8:	42a8      	cmp	r0, r5
 8005cea:	ea47 0202 	orr.w	r2, r7, r2
 8005cee:	b2a4      	uxth	r4, r4
 8005cf0:	ea43 0306 	orr.w	r3, r3, r6
 8005cf4:	d016      	beq.n	8005d24 <TIM_OC1Init+0x6c>
 8005cf6:	f505 6500 	add.w	r5, r5, #2048	; 0x800
 8005cfa:	42a8      	cmp	r0, r5
 8005cfc:	d012      	beq.n	8005d24 <TIM_OC1Init+0x6c>
 8005cfe:	f505 6540 	add.w	r5, r5, #3072	; 0xc00
 8005d02:	42a8      	cmp	r0, r5
 8005d04:	d00e      	beq.n	8005d24 <TIM_OC1Init+0x6c>
 8005d06:	f505 6580 	add.w	r5, r5, #1024	; 0x400
 8005d0a:	42a8      	cmp	r0, r5
 8005d0c:	d00a      	beq.n	8005d24 <TIM_OC1Init+0x6c>
 8005d0e:	f505 6580 	add.w	r5, r5, #1024	; 0x400
 8005d12:	42a8      	cmp	r0, r5
 8005d14:	d006      	beq.n	8005d24 <TIM_OC1Init+0x6c>
 8005d16:	88c9      	ldrh	r1, [r1, #6]
 8005d18:	8084      	strh	r4, [r0, #4]
 8005d1a:	8303      	strh	r3, [r0, #24]
 8005d1c:	bcf0      	pop	{r4, r5, r6, r7}
 8005d1e:	8681      	strh	r1, [r0, #52]	; 0x34
 8005d20:	8402      	strh	r2, [r0, #32]
 8005d22:	4770      	bx	lr
 8005d24:	894e      	ldrh	r6, [r1, #10]
 8005d26:	89cf      	ldrh	r7, [r1, #14]
 8005d28:	898d      	ldrh	r5, [r1, #12]
 8005d2a:	f022 0208 	bic.w	r2, r2, #8
 8005d2e:	4332      	orrs	r2, r6
 8005d30:	433d      	orrs	r5, r7
 8005d32:	888e      	ldrh	r6, [r1, #4]
 8005d34:	f424 7440 	bic.w	r4, r4, #768	; 0x300
 8005d38:	f022 0204 	bic.w	r2, r2, #4
 8005d3c:	b2ad      	uxth	r5, r5
 8005d3e:	4332      	orrs	r2, r6
 8005d40:	432c      	orrs	r4, r5
 8005d42:	e7e8      	b.n	8005d16 <TIM_OC1Init+0x5e>
 8005d44:	40012c00 	.word	0x40012c00

08005d48 <TIM_OC2Init>:
 8005d48:	8c03      	ldrh	r3, [r0, #32]
 8005d4a:	b4f0      	push	{r4, r5, r6, r7}
 8005d4c:	f023 0310 	bic.w	r3, r3, #16
 8005d50:	041b      	lsls	r3, r3, #16
 8005d52:	0c1b      	lsrs	r3, r3, #16
 8005d54:	8403      	strh	r3, [r0, #32]
 8005d56:	8c02      	ldrh	r2, [r0, #32]
 8005d58:	8884      	ldrh	r4, [r0, #4]
 8005d5a:	f022 0220 	bic.w	r2, r2, #32
 8005d5e:	8b03      	ldrh	r3, [r0, #24]
 8005d60:	890d      	ldrh	r5, [r1, #8]
 8005d62:	0412      	lsls	r2, r2, #16
 8005d64:	f423 43e6 	bic.w	r3, r3, #29440	; 0x7300
 8005d68:	0c12      	lsrs	r2, r2, #16
 8005d6a:	ea42 1205 	orr.w	r2, r2, r5, lsl #4
 8005d6e:	884f      	ldrh	r7, [r1, #2]
 8005d70:	041b      	lsls	r3, r3, #16
 8005d72:	880e      	ldrh	r6, [r1, #0]
 8005d74:	4d17      	ldr	r5, [pc, #92]	; (8005dd4 <TIM_OC2Init+0x8c>)
 8005d76:	0c1b      	lsrs	r3, r3, #16
 8005d78:	ea42 1207 	orr.w	r2, r2, r7, lsl #4
 8005d7c:	ea43 2306 	orr.w	r3, r3, r6, lsl #8
 8005d80:	42a8      	cmp	r0, r5
 8005d82:	b292      	uxth	r2, r2
 8005d84:	b2a4      	uxth	r4, r4
 8005d86:	b29b      	uxth	r3, r3
 8005d88:	d00a      	beq.n	8005da0 <TIM_OC2Init+0x58>
 8005d8a:	f505 6500 	add.w	r5, r5, #2048	; 0x800
 8005d8e:	42a8      	cmp	r0, r5
 8005d90:	d006      	beq.n	8005da0 <TIM_OC2Init+0x58>
 8005d92:	88c9      	ldrh	r1, [r1, #6]
 8005d94:	8084      	strh	r4, [r0, #4]
 8005d96:	8303      	strh	r3, [r0, #24]
 8005d98:	bcf0      	pop	{r4, r5, r6, r7}
 8005d9a:	8701      	strh	r1, [r0, #56]	; 0x38
 8005d9c:	8402      	strh	r2, [r0, #32]
 8005d9e:	4770      	bx	lr
 8005da0:	f022 0280 	bic.w	r2, r2, #128	; 0x80
 8005da4:	f8b1 c00a 	ldrh.w	ip, [r1, #10]
 8005da8:	b292      	uxth	r2, r2
 8005daa:	898f      	ldrh	r7, [r1, #12]
 8005dac:	ea42 1c0c 	orr.w	ip, r2, ip, lsl #4
 8005db0:	f424 6440 	bic.w	r4, r4, #3072	; 0xc00
 8005db4:	f64f 75bf 	movw	r5, #65471	; 0xffbf
 8005db8:	888a      	ldrh	r2, [r1, #4]
 8005dba:	89ce      	ldrh	r6, [r1, #14]
 8005dbc:	ea0c 0505 	and.w	r5, ip, r5
 8005dc0:	ea44 0487 	orr.w	r4, r4, r7, lsl #2
 8005dc4:	ea45 1202 	orr.w	r2, r5, r2, lsl #4
 8005dc8:	ea44 0486 	orr.w	r4, r4, r6, lsl #2
 8005dcc:	b292      	uxth	r2, r2
 8005dce:	b2a4      	uxth	r4, r4
 8005dd0:	e7df      	b.n	8005d92 <TIM_OC2Init+0x4a>
 8005dd2:	bf00      	nop
 8005dd4:	40012c00 	.word	0x40012c00

08005dd8 <TIM_OC3Init>:
 8005dd8:	8c03      	ldrh	r3, [r0, #32]
 8005dda:	b4f0      	push	{r4, r5, r6, r7}
 8005ddc:	f423 7380 	bic.w	r3, r3, #256	; 0x100
 8005de0:	041b      	lsls	r3, r3, #16
 8005de2:	0c1b      	lsrs	r3, r3, #16
 8005de4:	8403      	strh	r3, [r0, #32]
 8005de6:	8c02      	ldrh	r2, [r0, #32]
 8005de8:	890d      	ldrh	r5, [r1, #8]
 8005dea:	f422 7200 	bic.w	r2, r2, #512	; 0x200
 8005dee:	8884      	ldrh	r4, [r0, #4]
 8005df0:	0412      	lsls	r2, r2, #16
 8005df2:	8b83      	ldrh	r3, [r0, #28]
 8005df4:	0c12      	lsrs	r2, r2, #16
 8005df6:	ea42 2205 	orr.w	r2, r2, r5, lsl #8
 8005dfa:	884f      	ldrh	r7, [r1, #2]
 8005dfc:	f023 0373 	bic.w	r3, r3, #115	; 0x73
 8005e00:	4d17      	ldr	r5, [pc, #92]	; (8005e60 <TIM_OC3Init+0x88>)
 8005e02:	041b      	lsls	r3, r3, #16
 8005e04:	880e      	ldrh	r6, [r1, #0]
 8005e06:	ea42 2207 	orr.w	r2, r2, r7, lsl #8
 8005e0a:	0c1b      	lsrs	r3, r3, #16
 8005e0c:	42a8      	cmp	r0, r5
 8005e0e:	b292      	uxth	r2, r2
 8005e10:	b2a4      	uxth	r4, r4
 8005e12:	ea43 0306 	orr.w	r3, r3, r6
 8005e16:	d00a      	beq.n	8005e2e <TIM_OC3Init+0x56>
 8005e18:	f505 6500 	add.w	r5, r5, #2048	; 0x800
 8005e1c:	42a8      	cmp	r0, r5
 8005e1e:	d006      	beq.n	8005e2e <TIM_OC3Init+0x56>
 8005e20:	88c9      	ldrh	r1, [r1, #6]
 8005e22:	8084      	strh	r4, [r0, #4]
 8005e24:	8383      	strh	r3, [r0, #28]
 8005e26:	bcf0      	pop	{r4, r5, r6, r7}
 8005e28:	8781      	strh	r1, [r0, #60]	; 0x3c
 8005e2a:	8402      	strh	r2, [r0, #32]
 8005e2c:	4770      	bx	lr
 8005e2e:	f422 6200 	bic.w	r2, r2, #2048	; 0x800
 8005e32:	f8b1 c00a 	ldrh.w	ip, [r1, #10]
 8005e36:	b292      	uxth	r2, r2
 8005e38:	898f      	ldrh	r7, [r1, #12]
 8005e3a:	ea42 2c0c 	orr.w	ip, r2, ip, lsl #8
 8005e3e:	f424 5440 	bic.w	r4, r4, #12288	; 0x3000
 8005e42:	f64f 35ff 	movw	r5, #64511	; 0xfbff
 8005e46:	888a      	ldrh	r2, [r1, #4]
 8005e48:	89ce      	ldrh	r6, [r1, #14]
 8005e4a:	ea0c 0505 	and.w	r5, ip, r5
 8005e4e:	ea44 1407 	orr.w	r4, r4, r7, lsl #4
 8005e52:	ea45 2202 	orr.w	r2, r5, r2, lsl #8
 8005e56:	ea44 1406 	orr.w	r4, r4, r6, lsl #4
 8005e5a:	b292      	uxth	r2, r2
 8005e5c:	b2a4      	uxth	r4, r4
 8005e5e:	e7df      	b.n	8005e20 <TIM_OC3Init+0x48>
 8005e60:	40012c00 	.word	0x40012c00

08005e64 <TIM_BDTRConfig>:
 8005e64:	b410      	push	{r4}
 8005e66:	880b      	ldrh	r3, [r1, #0]
 8005e68:	884c      	ldrh	r4, [r1, #2]
 8005e6a:	888a      	ldrh	r2, [r1, #4]
 8005e6c:	4323      	orrs	r3, r4
 8005e6e:	88cc      	ldrh	r4, [r1, #6]
 8005e70:	4313      	orrs	r3, r2
 8005e72:	890a      	ldrh	r2, [r1, #8]
 8005e74:	4323      	orrs	r3, r4
 8005e76:	894c      	ldrh	r4, [r1, #10]
 8005e78:	4313      	orrs	r3, r2
 8005e7a:	898a      	ldrh	r2, [r1, #12]
 8005e7c:	4323      	orrs	r3, r4
 8005e7e:	4313      	orrs	r3, r2
 8005e80:	b29b      	uxth	r3, r3
 8005e82:	f8a0 3044 	strh.w	r3, [r0, #68]	; 0x44
 8005e86:	f85d 4b04 	ldr.w	r4, [sp], #4
 8005e8a:	4770      	bx	lr

08005e8c <TIM_Cmd>:
 8005e8c:	8803      	ldrh	r3, [r0, #0]
 8005e8e:	b929      	cbnz	r1, 8005e9c <TIM_Cmd+0x10>
 8005e90:	f023 0301 	bic.w	r3, r3, #1
 8005e94:	041b      	lsls	r3, r3, #16
 8005e96:	0c1b      	lsrs	r3, r3, #16
 8005e98:	8003      	strh	r3, [r0, #0]
 8005e9a:	4770      	bx	lr
 8005e9c:	b29b      	uxth	r3, r3
 8005e9e:	f043 0301 	orr.w	r3, r3, #1
 8005ea2:	8003      	strh	r3, [r0, #0]
 8005ea4:	4770      	bx	lr
 8005ea6:	bf00      	nop

08005ea8 <TIM_CtrlPWMOutputs>:
 8005ea8:	f8b0 3044 	ldrh.w	r3, [r0, #68]	; 0x44
 8005eac:	b921      	cbnz	r1, 8005eb8 <TIM_CtrlPWMOutputs+0x10>
 8005eae:	f3c3 030e 	ubfx	r3, r3, #0, #15
 8005eb2:	f8a0 3044 	strh.w	r3, [r0, #68]	; 0x44
 8005eb6:	4770      	bx	lr
 8005eb8:	ea6f 4343 	mvn.w	r3, r3, lsl #17
 8005ebc:	ea6f 4353 	mvn.w	r3, r3, lsr #17
 8005ec0:	b29b      	uxth	r3, r3
 8005ec2:	f8a0 3044 	strh.w	r3, [r0, #68]	; 0x44
 8005ec6:	4770      	bx	lr

08005ec8 <TIM_OC1PreloadConfig>:
 8005ec8:	8b03      	ldrh	r3, [r0, #24]
 8005eca:	f023 0308 	bic.w	r3, r3, #8
 8005ece:	041b      	lsls	r3, r3, #16
 8005ed0:	0c1b      	lsrs	r3, r3, #16
 8005ed2:	4319      	orrs	r1, r3
 8005ed4:	8301      	strh	r1, [r0, #24]
 8005ed6:	4770      	bx	lr

08005ed8 <TIM_OC2PreloadConfig>:
 8005ed8:	8b03      	ldrh	r3, [r0, #24]
 8005eda:	f423 6300 	bic.w	r3, r3, #2048	; 0x800
 8005ede:	041b      	lsls	r3, r3, #16
 8005ee0:	0c1b      	lsrs	r3, r3, #16
 8005ee2:	ea43 2101 	orr.w	r1, r3, r1, lsl #8
 8005ee6:	b28b      	uxth	r3, r1
 8005ee8:	8303      	strh	r3, [r0, #24]
 8005eea:	4770      	bx	lr

08005eec <TIM_OC3PreloadConfig>:
 8005eec:	8b83      	ldrh	r3, [r0, #28]
 8005eee:	f023 0308 	bic.w	r3, r3, #8
 8005ef2:	041b      	lsls	r3, r3, #16
 8005ef4:	0c1b      	lsrs	r3, r3, #16
 8005ef6:	4319      	orrs	r1, r3
 8005ef8:	8381      	strh	r1, [r0, #28]
 8005efa:	4770      	bx	lr

08005efc <USART_Init>:
 8005efc:	8a03      	ldrh	r3, [r0, #16]
 8005efe:	88ca      	ldrh	r2, [r1, #6]
 8005f00:	b29b      	uxth	r3, r3
 8005f02:	f423 5340 	bic.w	r3, r3, #12288	; 0x3000
 8005f06:	4313      	orrs	r3, r2
 8005f08:	b530      	push	{r4, r5, lr}
 8005f0a:	8203      	strh	r3, [r0, #16]
 8005f0c:	8982      	ldrh	r2, [r0, #12]
 8005f0e:	4604      	mov	r4, r0
 8005f10:	890b      	ldrh	r3, [r1, #8]
 8005f12:	8888      	ldrh	r0, [r1, #4]
 8005f14:	460d      	mov	r5, r1
 8005f16:	b292      	uxth	r2, r2
 8005f18:	8949      	ldrh	r1, [r1, #10]
 8005f1a:	4303      	orrs	r3, r0
 8005f1c:	f422 52b0 	bic.w	r2, r2, #5632	; 0x1600
 8005f20:	430b      	orrs	r3, r1
 8005f22:	f022 020c 	bic.w	r2, r2, #12
 8005f26:	4313      	orrs	r3, r2
 8005f28:	b29b      	uxth	r3, r3
 8005f2a:	81a3      	strh	r3, [r4, #12]
 8005f2c:	8aa3      	ldrh	r3, [r4, #20]
 8005f2e:	89aa      	ldrh	r2, [r5, #12]
 8005f30:	b29b      	uxth	r3, r3
 8005f32:	f423 7340 	bic.w	r3, r3, #768	; 0x300
 8005f36:	b087      	sub	sp, #28
 8005f38:	4313      	orrs	r3, r2
 8005f3a:	82a3      	strh	r3, [r4, #20]
 8005f3c:	a801      	add	r0, sp, #4
 8005f3e:	f000 f88f 	bl	8006060 <RCC_GetClocksFreq>
 8005f42:	89a1      	ldrh	r1, [r4, #12]
 8005f44:	9a04      	ldr	r2, [sp, #16]
 8005f46:	481a      	ldr	r0, [pc, #104]	; (8005fb0 <USART_Init+0xb4>)
 8005f48:	9b03      	ldr	r3, [sp, #12]
 8005f4a:	b209      	sxth	r1, r1
 8005f4c:	4284      	cmp	r4, r0
 8005f4e:	bf08      	it	eq
 8005f50:	4613      	moveq	r3, r2
 8005f52:	682a      	ldr	r2, [r5, #0]
 8005f54:	2900      	cmp	r1, #0
 8005f56:	eb03 0383 	add.w	r3, r3, r3, lsl #2
 8005f5a:	bfb4      	ite	lt
 8005f5c:	0052      	lsllt	r2, r2, #1
 8005f5e:	0092      	lslge	r2, r2, #2
 8005f60:	eb03 0383 	add.w	r3, r3, r3, lsl #2
 8005f64:	4913      	ldr	r1, [pc, #76]	; (8005fb4 <USART_Init+0xb8>)
 8005f66:	fbb3 f3f2 	udiv	r3, r3, r2
 8005f6a:	fba1 5203 	umull	r5, r2, r1, r3
 8005f6e:	89a0      	ldrh	r0, [r4, #12]
 8005f70:	0952      	lsrs	r2, r2, #5
 8005f72:	b200      	sxth	r0, r0
 8005f74:	2564      	movs	r5, #100	; 0x64
 8005f76:	2800      	cmp	r0, #0
 8005f78:	fb02 3315 	mls	r3, r2, r5, r3
 8005f7c:	ea4f 1202 	mov.w	r2, r2, lsl #4
 8005f80:	db0a      	blt.n	8005f98 <USART_Init+0x9c>
 8005f82:	011b      	lsls	r3, r3, #4
 8005f84:	3332      	adds	r3, #50	; 0x32
 8005f86:	fba1 5103 	umull	r5, r1, r1, r3
 8005f8a:	f3c1 1143 	ubfx	r1, r1, #5, #4
 8005f8e:	430a      	orrs	r2, r1
 8005f90:	b292      	uxth	r2, r2
 8005f92:	8122      	strh	r2, [r4, #8]
 8005f94:	b007      	add	sp, #28
 8005f96:	bd30      	pop	{r4, r5, pc}
 8005f98:	00db      	lsls	r3, r3, #3
 8005f9a:	3332      	adds	r3, #50	; 0x32
 8005f9c:	fba1 0103 	umull	r0, r1, r1, r3
 8005fa0:	f3c1 1142 	ubfx	r1, r1, #5, #3
 8005fa4:	430a      	orrs	r2, r1
 8005fa6:	b292      	uxth	r2, r2
 8005fa8:	8122      	strh	r2, [r4, #8]
 8005faa:	b007      	add	sp, #28
 8005fac:	bd30      	pop	{r4, r5, pc}
 8005fae:	bf00      	nop
 8005fb0:	40013800 	.word	0x40013800
 8005fb4:	51eb851f 	.word	0x51eb851f

08005fb8 <USART_ClockInit>:
 8005fb8:	b430      	push	{r4, r5}
 8005fba:	880b      	ldrh	r3, [r1, #0]
 8005fbc:	884d      	ldrh	r5, [r1, #2]
 8005fbe:	888c      	ldrh	r4, [r1, #4]
 8005fc0:	8a02      	ldrh	r2, [r0, #16]
 8005fc2:	432b      	orrs	r3, r5
 8005fc4:	88c9      	ldrh	r1, [r1, #6]
 8005fc6:	4323      	orrs	r3, r4
 8005fc8:	b292      	uxth	r2, r2
 8005fca:	430b      	orrs	r3, r1
 8005fcc:	f422 6270 	bic.w	r2, r2, #3840	; 0xf00
 8005fd0:	4313      	orrs	r3, r2
 8005fd2:	b29b      	uxth	r3, r3
 8005fd4:	8203      	strh	r3, [r0, #16]
 8005fd6:	bc30      	pop	{r4, r5}
 8005fd8:	4770      	bx	lr
 8005fda:	bf00      	nop

08005fdc <USART_ClockStructInit>:
 8005fdc:	2300      	movs	r3, #0
 8005fde:	8003      	strh	r3, [r0, #0]
 8005fe0:	8043      	strh	r3, [r0, #2]
 8005fe2:	8083      	strh	r3, [r0, #4]
 8005fe4:	80c3      	strh	r3, [r0, #6]
 8005fe6:	4770      	bx	lr

08005fe8 <USART_Cmd>:
 8005fe8:	8983      	ldrh	r3, [r0, #12]
 8005fea:	b929      	cbnz	r1, 8005ff8 <USART_Cmd+0x10>
 8005fec:	f423 5300 	bic.w	r3, r3, #8192	; 0x2000
 8005ff0:	041b      	lsls	r3, r3, #16
 8005ff2:	0c1b      	lsrs	r3, r3, #16
 8005ff4:	8183      	strh	r3, [r0, #12]
 8005ff6:	4770      	bx	lr
 8005ff8:	b29b      	uxth	r3, r3
 8005ffa:	f443 5300 	orr.w	r3, r3, #8192	; 0x2000
 8005ffe:	8183      	strh	r3, [r0, #12]
 8006000:	4770      	bx	lr
 8006002:	bf00      	nop

08006004 <USART_ITConfig>:
 8006004:	f001 031f 	and.w	r3, r1, #31
 8006008:	b410      	push	{r4}
 800600a:	f3c1 1142 	ubfx	r1, r1, #5, #3
 800600e:	2401      	movs	r4, #1
 8006010:	42a1      	cmp	r1, r4
 8006012:	fa04 f303 	lsl.w	r3, r4, r3
 8006016:	d010      	beq.n	800603a <USART_ITConfig+0x36>
 8006018:	2902      	cmp	r1, #2
 800601a:	bf0c      	ite	eq
 800601c:	3010      	addeq	r0, #16
 800601e:	3014      	addne	r0, #20
 8006020:	6804      	ldr	r4, [r0, #0]
 8006022:	b92a      	cbnz	r2, 8006030 <USART_ITConfig+0x2c>
 8006024:	ea24 0303 	bic.w	r3, r4, r3
 8006028:	6003      	str	r3, [r0, #0]
 800602a:	f85d 4b04 	ldr.w	r4, [sp], #4
 800602e:	4770      	bx	lr
 8006030:	4323      	orrs	r3, r4
 8006032:	6003      	str	r3, [r0, #0]
 8006034:	f85d 4b04 	ldr.w	r4, [sp], #4
 8006038:	4770      	bx	lr
 800603a:	300c      	adds	r0, #12
 800603c:	e7f0      	b.n	8006020 <USART_ITConfig+0x1c>
 800603e:	bf00      	nop

08006040 <RCC_USBCLKConfig>:
 8006040:	4b01      	ldr	r3, [pc, #4]	; (8006048 <RCC_USBCLKConfig+0x8>)
 8006042:	6018      	str	r0, [r3, #0]
 8006044:	4770      	bx	lr
 8006046:	bf00      	nop
 8006048:	424200d8 	.word	0x424200d8

0800604c <RCC_ADCCLKConfig>:
 800604c:	4b03      	ldr	r3, [pc, #12]	; (800605c <RCC_ADCCLKConfig+0x10>)
 800604e:	685a      	ldr	r2, [r3, #4]
 8006050:	f422 4240 	bic.w	r2, r2, #49152	; 0xc000
 8006054:	4310      	orrs	r0, r2
 8006056:	6058      	str	r0, [r3, #4]
 8006058:	4770      	bx	lr
 800605a:	bf00      	nop
 800605c:	40021000 	.word	0x40021000

08006060 <RCC_GetClocksFreq>:
 8006060:	491f      	ldr	r1, [pc, #124]	; (80060e0 <RCC_GetClocksFreq+0x80>)
 8006062:	b430      	push	{r4, r5}
 8006064:	684b      	ldr	r3, [r1, #4]
 8006066:	f003 030c 	and.w	r3, r3, #12
 800606a:	2b04      	cmp	r3, #4
 800606c:	d001      	beq.n	8006072 <RCC_GetClocksFreq+0x12>
 800606e:	2b08      	cmp	r3, #8
 8006070:	d020      	beq.n	80060b4 <RCC_GetClocksFreq+0x54>
 8006072:	4a1c      	ldr	r2, [pc, #112]	; (80060e4 <RCC_GetClocksFreq+0x84>)
 8006074:	6002      	str	r2, [r0, #0]
 8006076:	4b1a      	ldr	r3, [pc, #104]	; (80060e0 <RCC_GetClocksFreq+0x80>)
 8006078:	491b      	ldr	r1, [pc, #108]	; (80060e8 <RCC_GetClocksFreq+0x88>)
 800607a:	685d      	ldr	r5, [r3, #4]
 800607c:	4c1b      	ldr	r4, [pc, #108]	; (80060ec <RCC_GetClocksFreq+0x8c>)
 800607e:	f3c5 1503 	ubfx	r5, r5, #4, #4
 8006082:	5d4d      	ldrb	r5, [r1, r5]
 8006084:	40ea      	lsrs	r2, r5
 8006086:	6042      	str	r2, [r0, #4]
 8006088:	685d      	ldr	r5, [r3, #4]
 800608a:	f3c5 2502 	ubfx	r5, r5, #8, #3
 800608e:	5d4d      	ldrb	r5, [r1, r5]
 8006090:	fa22 f505 	lsr.w	r5, r2, r5
 8006094:	6085      	str	r5, [r0, #8]
 8006096:	685d      	ldr	r5, [r3, #4]
 8006098:	f3c5 25c2 	ubfx	r5, r5, #11, #3
 800609c:	5d49      	ldrb	r1, [r1, r5]
 800609e:	40ca      	lsrs	r2, r1
 80060a0:	60c2      	str	r2, [r0, #12]
 80060a2:	685b      	ldr	r3, [r3, #4]
 80060a4:	f3c3 3381 	ubfx	r3, r3, #14, #2
 80060a8:	5ce3      	ldrb	r3, [r4, r3]
 80060aa:	bc30      	pop	{r4, r5}
 80060ac:	fbb2 f2f3 	udiv	r2, r2, r3
 80060b0:	6102      	str	r2, [r0, #16]
 80060b2:	4770      	bx	lr
 80060b4:	684a      	ldr	r2, [r1, #4]
 80060b6:	684b      	ldr	r3, [r1, #4]
 80060b8:	f3c2 4283 	ubfx	r2, r2, #18, #4
 80060bc:	03dc      	lsls	r4, r3, #15
 80060be:	f102 0202 	add.w	r2, r2, #2
 80060c2:	d507      	bpl.n	80060d4 <RCC_GetClocksFreq+0x74>
 80060c4:	684b      	ldr	r3, [r1, #4]
 80060c6:	039b      	lsls	r3, r3, #14
 80060c8:	d404      	bmi.n	80060d4 <RCC_GetClocksFreq+0x74>
 80060ca:	4b06      	ldr	r3, [pc, #24]	; (80060e4 <RCC_GetClocksFreq+0x84>)
 80060cc:	fb03 f202 	mul.w	r2, r3, r2
 80060d0:	6002      	str	r2, [r0, #0]
 80060d2:	e7d0      	b.n	8006076 <RCC_GetClocksFreq+0x16>
 80060d4:	4b06      	ldr	r3, [pc, #24]	; (80060f0 <RCC_GetClocksFreq+0x90>)
 80060d6:	fb03 f202 	mul.w	r2, r3, r2
 80060da:	6002      	str	r2, [r0, #0]
 80060dc:	e7cb      	b.n	8006076 <RCC_GetClocksFreq+0x16>
 80060de:	bf00      	nop
 80060e0:	40021000 	.word	0x40021000
 80060e4:	007a1200 	.word	0x007a1200
 80060e8:	20000004 	.word	0x20000004
 80060ec:	20000000 	.word	0x20000000
 80060f0:	003d0900 	.word	0x003d0900

080060f4 <RCC_AHBPeriphClockCmd>:
 80060f4:	4b04      	ldr	r3, [pc, #16]	; (8006108 <RCC_AHBPeriphClockCmd+0x14>)
 80060f6:	695a      	ldr	r2, [r3, #20]
 80060f8:	b919      	cbnz	r1, 8006102 <RCC_AHBPeriphClockCmd+0xe>
 80060fa:	ea22 0000 	bic.w	r0, r2, r0
 80060fe:	6158      	str	r0, [r3, #20]
 8006100:	4770      	bx	lr
 8006102:	4310      	orrs	r0, r2
 8006104:	6158      	str	r0, [r3, #20]
 8006106:	4770      	bx	lr
 8006108:	40021000 	.word	0x40021000

0800610c <RCC_APB2PeriphClockCmd>:
 800610c:	4b04      	ldr	r3, [pc, #16]	; (8006120 <RCC_APB2PeriphClockCmd+0x14>)
 800610e:	699a      	ldr	r2, [r3, #24]
 8006110:	b919      	cbnz	r1, 800611a <RCC_APB2PeriphClockCmd+0xe>
 8006112:	ea22 0000 	bic.w	r0, r2, r0
 8006116:	6198      	str	r0, [r3, #24]
 8006118:	4770      	bx	lr
 800611a:	4310      	orrs	r0, r2
 800611c:	6198      	str	r0, [r3, #24]
 800611e:	4770      	bx	lr
 8006120:	40021000 	.word	0x40021000

08006124 <RCC_APB1PeriphClockCmd>:
 8006124:	4b04      	ldr	r3, [pc, #16]	; (8006138 <RCC_APB1PeriphClockCmd+0x14>)
 8006126:	69da      	ldr	r2, [r3, #28]
 8006128:	b919      	cbnz	r1, 8006132 <RCC_APB1PeriphClockCmd+0xe>
 800612a:	ea22 0000 	bic.w	r0, r2, r0
 800612e:	61d8      	str	r0, [r3, #28]
 8006130:	4770      	bx	lr
 8006132:	4310      	orrs	r0, r2
 8006134:	61d8      	str	r0, [r3, #28]
 8006136:	4770      	bx	lr
 8006138:	40021000 	.word	0x40021000

0800613c <RCC_APB2PeriphResetCmd>:
 800613c:	4b04      	ldr	r3, [pc, #16]	; (8006150 <RCC_APB2PeriphResetCmd+0x14>)
 800613e:	68da      	ldr	r2, [r3, #12]
 8006140:	b919      	cbnz	r1, 800614a <RCC_APB2PeriphResetCmd+0xe>
 8006142:	ea22 0000 	bic.w	r0, r2, r0
 8006146:	60d8      	str	r0, [r3, #12]
 8006148:	4770      	bx	lr
 800614a:	4310      	orrs	r0, r2
 800614c:	60d8      	str	r0, [r3, #12]
 800614e:	4770      	bx	lr
 8006150:	40021000 	.word	0x40021000

08006154 <ADC_Config>:
 8006154:	b530      	push	{r4, r5, lr}
 8006156:	b087      	sub	sp, #28
 8006158:	2308      	movs	r3, #8
 800615a:	2400      	movs	r4, #0
 800615c:	4669      	mov	r1, sp
 800615e:	481c      	ldr	r0, [pc, #112]	; (80061d0 <ADC_Config+0x7c>)
 8006160:	f8ad 3000 	strh.w	r3, [sp]
 8006164:	f88d 4003 	strb.w	r4, [sp, #3]
 8006168:	f7ff fb82 	bl	8005870 <GPIO_Init>
 800616c:	f44f 4000 	mov.w	r0, #32768	; 0x8000
 8006170:	f7ff ff6c 	bl	800604c <RCC_ADCCLKConfig>
 8006174:	2101      	movs	r1, #1
 8006176:	f44f 7000 	mov.w	r0, #512	; 0x200
 800617a:	f7ff ffc7 	bl	800610c <RCC_APB2PeriphClockCmd>
 800617e:	4815      	ldr	r0, [pc, #84]	; (80061d4 <ADC_Config+0x80>)
 8006180:	f7ff fc86 	bl	8005a90 <ADC_DeInit>
 8006184:	2501      	movs	r5, #1
 8006186:	f44f 2360 	mov.w	r3, #917504	; 0xe0000
 800618a:	4812      	ldr	r0, [pc, #72]	; (80061d4 <ADC_Config+0x80>)
 800618c:	a901      	add	r1, sp, #4
 800618e:	9303      	str	r3, [sp, #12]
 8006190:	9401      	str	r4, [sp, #4]
 8006192:	f88d 4008 	strb.w	r4, [sp, #8]
 8006196:	f88d 4009 	strb.w	r4, [sp, #9]
 800619a:	9404      	str	r4, [sp, #16]
 800619c:	f88d 5014 	strb.w	r5, [sp, #20]
 80061a0:	f7ff fcac 	bl	8005afc <ADC_Init>
 80061a4:	480b      	ldr	r0, [pc, #44]	; (80061d4 <ADC_Config+0x80>)
 80061a6:	4629      	mov	r1, r5
 80061a8:	f7ff fccc 	bl	8005b44 <ADC_Cmd>
 80061ac:	4809      	ldr	r0, [pc, #36]	; (80061d4 <ADC_Config+0x80>)
 80061ae:	f7ff fcd3 	bl	8005b58 <ADC_ResetCalibration>
 80061b2:	4808      	ldr	r0, [pc, #32]	; (80061d4 <ADC_Config+0x80>)
 80061b4:	f7ff fcd6 	bl	8005b64 <ADC_GetResetCalibrationStatus>
 80061b8:	2800      	cmp	r0, #0
 80061ba:	d1fa      	bne.n	80061b2 <ADC_Config+0x5e>
 80061bc:	4805      	ldr	r0, [pc, #20]	; (80061d4 <ADC_Config+0x80>)
 80061be:	f7ff fcd5 	bl	8005b6c <ADC_StartCalibration>
 80061c2:	4804      	ldr	r0, [pc, #16]	; (80061d4 <ADC_Config+0x80>)
 80061c4:	f7ff fcd8 	bl	8005b78 <ADC_GetCalibrationStatus>
 80061c8:	2800      	cmp	r0, #0
 80061ca:	d1fa      	bne.n	80061c2 <ADC_Config+0x6e>
 80061cc:	b007      	add	sp, #28
 80061ce:	bd30      	pop	{r4, r5, pc}
 80061d0:	40011000 	.word	0x40011000
 80061d4:	40012400 	.word	0x40012400

080061d8 <micros>:
 80061d8:	b430      	push	{r4, r5}
 80061da:	4a10      	ldr	r2, [pc, #64]	; (800621c <micros+0x44>)
 80061dc:	4d10      	ldr	r5, [pc, #64]	; (8006220 <micros+0x48>)
 80061de:	6813      	ldr	r3, [r2, #0]
 80061e0:	4c0f      	ldr	r4, [pc, #60]	; (8006220 <micros+0x48>)
 80061e2:	68a8      	ldr	r0, [r5, #8]
 80061e4:	bf00      	nop
 80061e6:	bf00      	nop
 80061e8:	6811      	ldr	r1, [r2, #0]
 80061ea:	428b      	cmp	r3, r1
 80061ec:	d1f7      	bne.n	80061de <micros+0x6>
 80061ee:	6822      	ldr	r2, [r4, #0]
 80061f0:	490b      	ldr	r1, [pc, #44]	; (8006220 <micros+0x48>)
 80061f2:	03d2      	lsls	r2, r2, #15
 80061f4:	bf48      	it	mi
 80061f6:	68a0      	ldrmi	r0, [r4, #8]
 80061f8:	4a0a      	ldr	r2, [pc, #40]	; (8006224 <micros+0x4c>)
 80061fa:	6849      	ldr	r1, [r1, #4]
 80061fc:	6812      	ldr	r2, [r2, #0]
 80061fe:	f101 0101 	add.w	r1, r1, #1
 8006202:	ebc0 0001 	rsb	r0, r0, r1
 8006206:	fbb0 f0f2 	udiv	r0, r0, r2
 800620a:	bf48      	it	mi
 800620c:	3301      	addmi	r3, #1
 800620e:	f44f 727a 	mov.w	r2, #1000	; 0x3e8
 8006212:	fb02 0003 	mla	r0, r2, r3, r0
 8006216:	bc30      	pop	{r4, r5}
 8006218:	4770      	bx	lr
 800621a:	bf00      	nop
 800621c:	200009b4 	.word	0x200009b4
 8006220:	e000e010 	.word	0xe000e010
 8006224:	20000014 	.word	0x20000014

08006228 <millis>:
 8006228:	4b01      	ldr	r3, [pc, #4]	; (8006230 <millis+0x8>)
 800622a:	6818      	ldr	r0, [r3, #0]
 800622c:	4770      	bx	lr
 800622e:	bf00      	nop
 8006230:	200009b4 	.word	0x200009b4

08006234 <SysTick_Handler>:
 8006234:	b508      	push	{r3, lr}
 8006236:	b672      	cpsid	i
 8006238:	4b05      	ldr	r3, [pc, #20]	; (8006250 <SysTick_Handler+0x1c>)
 800623a:	4a06      	ldr	r2, [pc, #24]	; (8006254 <SysTick_Handler+0x20>)
 800623c:	6812      	ldr	r2, [r2, #0]
 800623e:	681a      	ldr	r2, [r3, #0]
 8006240:	3201      	adds	r2, #1
 8006242:	601a      	str	r2, [r3, #0]
 8006244:	b662      	cpsie	i
 8006246:	4b04      	ldr	r3, [pc, #16]	; (8006258 <SysTick_Handler+0x24>)
 8006248:	681b      	ldr	r3, [r3, #0]
 800624a:	b103      	cbz	r3, 800624e <SysTick_Handler+0x1a>
 800624c:	4798      	blx	r3
 800624e:	bd08      	pop	{r3, pc}
 8006250:	200009b4 	.word	0x200009b4
 8006254:	e000e010 	.word	0xe000e010
 8006258:	200009b8 	.word	0x200009b8

0800625c <SysTickAttachCallback>:
 800625c:	4b01      	ldr	r3, [pc, #4]	; (8006264 <SysTickAttachCallback+0x8>)
 800625e:	6018      	str	r0, [r3, #0]
 8006260:	4770      	bx	lr
 8006262:	bf00      	nop
 8006264:	200009b8 	.word	0x200009b8

08006268 <InitSysTick>:
 8006268:	4b0e      	ldr	r3, [pc, #56]	; (80062a4 <InitSysTick+0x3c>)
 800626a:	4a0f      	ldr	r2, [pc, #60]	; (80062a8 <InitSysTick+0x40>)
 800626c:	681b      	ldr	r3, [r3, #0]
 800626e:	490f      	ldr	r1, [pc, #60]	; (80062ac <InitSysTick+0x44>)
 8006270:	fba2 0203 	umull	r0, r2, r2, r3
 8006274:	fba1 0303 	umull	r0, r3, r1, r3
 8006278:	0992      	lsrs	r2, r2, #6
 800627a:	490d      	ldr	r1, [pc, #52]	; (80062b0 <InitSysTick+0x48>)
 800627c:	3a01      	subs	r2, #1
 800627e:	0c9b      	lsrs	r3, r3, #18
 8006280:	f1b2 7f80 	cmp.w	r2, #16777216	; 0x1000000
 8006284:	b430      	push	{r4, r5}
 8006286:	600b      	str	r3, [r1, #0]
 8006288:	d209      	bcs.n	800629e <InitSysTick+0x36>
 800628a:	4b0a      	ldr	r3, [pc, #40]	; (80062b4 <InitSysTick+0x4c>)
 800628c:	4c0a      	ldr	r4, [pc, #40]	; (80062b8 <InitSysTick+0x50>)
 800628e:	25f0      	movs	r5, #240	; 0xf0
 8006290:	2000      	movs	r0, #0
 8006292:	2107      	movs	r1, #7
 8006294:	605a      	str	r2, [r3, #4]
 8006296:	f884 5023 	strb.w	r5, [r4, #35]	; 0x23
 800629a:	6098      	str	r0, [r3, #8]
 800629c:	6019      	str	r1, [r3, #0]
 800629e:	bc30      	pop	{r4, r5}
 80062a0:	4770      	bx	lr
 80062a2:	bf00      	nop
 80062a4:	20000034 	.word	0x20000034
 80062a8:	10624dd3 	.word	0x10624dd3
 80062ac:	431bde83 	.word	0x431bde83
 80062b0:	20000014 	.word	0x20000014
 80062b4:	e000e010 	.word	0xe000e010
 80062b8:	e000ed00 	.word	0xe000ed00

080062bc <I2C1_Start>:
 80062bc:	b510      	push	{r4, lr}
 80062be:	4c12      	ldr	r4, [pc, #72]	; (8006308 <I2C1_Start+0x4c>)
 80062c0:	f44f 6100 	mov.w	r1, #2048	; 0x800
 80062c4:	4620      	mov	r0, r4
 80062c6:	2201      	movs	r2, #1
 80062c8:	f7ff fb3e 	bl	8005948 <GPIO_WriteBit>
 80062cc:	4620      	mov	r0, r4
 80062ce:	f44f 6180 	mov.w	r1, #1024	; 0x400
 80062d2:	2201      	movs	r2, #1
 80062d4:	f7ff fb38 	bl	8005948 <GPIO_WriteBit>
 80062d8:	2001      	movs	r0, #1
 80062da:	f001 fceb 	bl	8007cb4 <Delay_us>
 80062de:	4620      	mov	r0, r4
 80062e0:	f44f 6100 	mov.w	r1, #2048	; 0x800
 80062e4:	2200      	movs	r2, #0
 80062e6:	f7ff fb2f 	bl	8005948 <GPIO_WriteBit>
 80062ea:	2001      	movs	r0, #1
 80062ec:	f001 fce2 	bl	8007cb4 <Delay_us>
 80062f0:	4620      	mov	r0, r4
 80062f2:	f44f 6180 	mov.w	r1, #1024	; 0x400
 80062f6:	2200      	movs	r2, #0
 80062f8:	f7ff fb26 	bl	8005948 <GPIO_WriteBit>
 80062fc:	e8bd 4010 	ldmia.w	sp!, {r4, lr}
 8006300:	2001      	movs	r0, #1
 8006302:	f001 bcd7 	b.w	8007cb4 <Delay_us>
 8006306:	bf00      	nop
 8006308:	40010c00 	.word	0x40010c00

0800630c <I2C1_Stop>:
 800630c:	b510      	push	{r4, lr}
 800630e:	4c13      	ldr	r4, [pc, #76]	; (800635c <I2C1_Stop+0x50>)
 8006310:	f44f 6180 	mov.w	r1, #1024	; 0x400
 8006314:	4620      	mov	r0, r4
 8006316:	2200      	movs	r2, #0
 8006318:	f7ff fb16 	bl	8005948 <GPIO_WriteBit>
 800631c:	2001      	movs	r0, #1
 800631e:	f001 fcc9 	bl	8007cb4 <Delay_us>
 8006322:	4620      	mov	r0, r4
 8006324:	f44f 6100 	mov.w	r1, #2048	; 0x800
 8006328:	2200      	movs	r2, #0
 800632a:	f7ff fb0d 	bl	8005948 <GPIO_WriteBit>
 800632e:	2001      	movs	r0, #1
 8006330:	f001 fcc0 	bl	8007cb4 <Delay_us>
 8006334:	4620      	mov	r0, r4
 8006336:	f44f 6180 	mov.w	r1, #1024	; 0x400
 800633a:	2201      	movs	r2, #1
 800633c:	f7ff fb04 	bl	8005948 <GPIO_WriteBit>
 8006340:	2001      	movs	r0, #1
 8006342:	f001 fcb7 	bl	8007cb4 <Delay_us>
 8006346:	4620      	mov	r0, r4
 8006348:	f44f 6100 	mov.w	r1, #2048	; 0x800
 800634c:	2201      	movs	r2, #1
 800634e:	f7ff fafb 	bl	8005948 <GPIO_WriteBit>
 8006352:	e8bd 4010 	ldmia.w	sp!, {r4, lr}
 8006356:	2001      	movs	r0, #1
 8006358:	f001 bcac 	b.w	8007cb4 <Delay_us>
 800635c:	40010c00 	.word	0x40010c00

08006360 <I2C1_Ack>:
 8006360:	b510      	push	{r4, lr}
 8006362:	4c13      	ldr	r4, [pc, #76]	; (80063b0 <I2C1_Ack+0x50>)
 8006364:	f44f 6180 	mov.w	r1, #1024	; 0x400
 8006368:	4620      	mov	r0, r4
 800636a:	2200      	movs	r2, #0
 800636c:	f7ff faec 	bl	8005948 <GPIO_WriteBit>
 8006370:	2001      	movs	r0, #1
 8006372:	f001 fc9f 	bl	8007cb4 <Delay_us>
 8006376:	4620      	mov	r0, r4
 8006378:	f44f 6100 	mov.w	r1, #2048	; 0x800
 800637c:	2200      	movs	r2, #0
 800637e:	f7ff fae3 	bl	8005948 <GPIO_WriteBit>
 8006382:	2001      	movs	r0, #1
 8006384:	f001 fc96 	bl	8007cb4 <Delay_us>
 8006388:	4620      	mov	r0, r4
 800638a:	f44f 6180 	mov.w	r1, #1024	; 0x400
 800638e:	2201      	movs	r2, #1
 8006390:	f7ff fada 	bl	8005948 <GPIO_WriteBit>
 8006394:	2001      	movs	r0, #1
 8006396:	f001 fc8d 	bl	8007cb4 <Delay_us>
 800639a:	4620      	mov	r0, r4
 800639c:	f44f 6180 	mov.w	r1, #1024	; 0x400
 80063a0:	2200      	movs	r2, #0
 80063a2:	f7ff fad1 	bl	8005948 <GPIO_WriteBit>
 80063a6:	e8bd 4010 	ldmia.w	sp!, {r4, lr}
 80063aa:	2001      	movs	r0, #1
 80063ac:	f001 bc82 	b.w	8007cb4 <Delay_us>
 80063b0:	40010c00 	.word	0x40010c00

080063b4 <I2C1_NoAck>:
 80063b4:	b510      	push	{r4, lr}
 80063b6:	4c13      	ldr	r4, [pc, #76]	; (8006404 <I2C1_NoAck+0x50>)
 80063b8:	f44f 6180 	mov.w	r1, #1024	; 0x400
 80063bc:	4620      	mov	r0, r4
 80063be:	2200      	movs	r2, #0
 80063c0:	f7ff fac2 	bl	8005948 <GPIO_WriteBit>
 80063c4:	2001      	movs	r0, #1
 80063c6:	f001 fc75 	bl	8007cb4 <Delay_us>
 80063ca:	4620      	mov	r0, r4
 80063cc:	f44f 6100 	mov.w	r1, #2048	; 0x800
 80063d0:	2201      	movs	r2, #1
 80063d2:	f7ff fab9 	bl	8005948 <GPIO_WriteBit>
 80063d6:	2001      	movs	r0, #1
 80063d8:	f001 fc6c 	bl	8007cb4 <Delay_us>
 80063dc:	4620      	mov	r0, r4
 80063de:	f44f 6180 	mov.w	r1, #1024	; 0x400
 80063e2:	2201      	movs	r2, #1
 80063e4:	f7ff fab0 	bl	8005948 <GPIO_WriteBit>
 80063e8:	2001      	movs	r0, #1
 80063ea:	f001 fc63 	bl	8007cb4 <Delay_us>
 80063ee:	4620      	mov	r0, r4
 80063f0:	f44f 6180 	mov.w	r1, #1024	; 0x400
 80063f4:	2200      	movs	r2, #0
 80063f6:	f7ff faa7 	bl	8005948 <GPIO_WriteBit>
 80063fa:	e8bd 4010 	ldmia.w	sp!, {r4, lr}
 80063fe:	2001      	movs	r0, #1
 8006400:	f001 bc58 	b.w	8007cb4 <Delay_us>
 8006404:	40010c00 	.word	0x40010c00

08006408 <I2C1_SendByte>:
 8006408:	b538      	push	{r3, r4, r5, lr}
 800640a:	4604      	mov	r4, r0
 800640c:	2508      	movs	r5, #8
 800640e:	e014      	b.n	800643a <I2C1_SendByte+0x32>
 8006410:	2200      	movs	r2, #0
 8006412:	f7ff fa99 	bl	8005948 <GPIO_WriteBit>
 8006416:	2001      	movs	r0, #1
 8006418:	f001 fc4c 	bl	8007cb4 <Delay_us>
 800641c:	2201      	movs	r2, #1
 800641e:	4814      	ldr	r0, [pc, #80]	; (8006470 <I2C1_SendByte+0x68>)
 8006420:	f44f 6180 	mov.w	r1, #1024	; 0x400
 8006424:	f7ff fa90 	bl	8005948 <GPIO_WriteBit>
 8006428:	2001      	movs	r0, #1
 800642a:	f001 fc43 	bl	8007cb4 <Delay_us>
 800642e:	1e6a      	subs	r2, r5, #1
 8006430:	0064      	lsls	r4, r4, #1
 8006432:	f012 05ff 	ands.w	r5, r2, #255	; 0xff
 8006436:	b2e4      	uxtb	r4, r4
 8006438:	d011      	beq.n	800645e <I2C1_SendByte+0x56>
 800643a:	f44f 6180 	mov.w	r1, #1024	; 0x400
 800643e:	480c      	ldr	r0, [pc, #48]	; (8006470 <I2C1_SendByte+0x68>)
 8006440:	2200      	movs	r2, #0
 8006442:	f7ff fa81 	bl	8005948 <GPIO_WriteBit>
 8006446:	2001      	movs	r0, #1
 8006448:	f001 fc34 	bl	8007cb4 <Delay_us>
 800644c:	0623      	lsls	r3, r4, #24
 800644e:	4808      	ldr	r0, [pc, #32]	; (8006470 <I2C1_SendByte+0x68>)
 8006450:	f44f 6100 	mov.w	r1, #2048	; 0x800
 8006454:	d5dc      	bpl.n	8006410 <I2C1_SendByte+0x8>
 8006456:	2201      	movs	r2, #1
 8006458:	f7ff fa76 	bl	8005948 <GPIO_WriteBit>
 800645c:	e7db      	b.n	8006416 <I2C1_SendByte+0xe>
 800645e:	462a      	mov	r2, r5
 8006460:	4803      	ldr	r0, [pc, #12]	; (8006470 <I2C1_SendByte+0x68>)
 8006462:	f44f 6180 	mov.w	r1, #1024	; 0x400
 8006466:	e8bd 4038 	ldmia.w	sp!, {r3, r4, r5, lr}
 800646a:	f7ff ba6d 	b.w	8005948 <GPIO_WriteBit>
 800646e:	bf00      	nop
 8006470:	40010c00 	.word	0x40010c00

08006474 <I2C1_ReceiveByte>:
 8006474:	b5f8      	push	{r3, r4, r5, r6, r7, lr}
 8006476:	481b      	ldr	r0, [pc, #108]	; (80064e4 <I2C1_ReceiveByte+0x70>)
 8006478:	f44f 6100 	mov.w	r1, #2048	; 0x800
 800647c:	2201      	movs	r2, #1
 800647e:	f7ff fa63 	bl	8005948 <GPIO_WriteBit>
 8006482:	2708      	movs	r7, #8
 8006484:	2600      	movs	r6, #0
 8006486:	f44f 6180 	mov.w	r1, #1024	; 0x400
 800648a:	2200      	movs	r2, #0
 800648c:	4815      	ldr	r0, [pc, #84]	; (80064e4 <I2C1_ReceiveByte+0x70>)
 800648e:	f7ff fa5b 	bl	8005948 <GPIO_WriteBit>
 8006492:	2001      	movs	r0, #1
 8006494:	f001 fc0e 	bl	8007cb4 <Delay_us>
 8006498:	4812      	ldr	r0, [pc, #72]	; (80064e4 <I2C1_ReceiveByte+0x70>)
 800649a:	f44f 6180 	mov.w	r1, #1024	; 0x400
 800649e:	2201      	movs	r2, #1
 80064a0:	f7ff fa52 	bl	8005948 <GPIO_WriteBit>
 80064a4:	0076      	lsls	r6, r6, #1
 80064a6:	b2f6      	uxtb	r6, r6
 80064a8:	2508      	movs	r5, #8
 80064aa:	2400      	movs	r4, #0
 80064ac:	480d      	ldr	r0, [pc, #52]	; (80064e4 <I2C1_ReceiveByte+0x70>)
 80064ae:	f44f 6100 	mov.w	r1, #2048	; 0x800
 80064b2:	f7ff fa3f 	bl	8005934 <GPIO_ReadInputDataBit>
 80064b6:	1e6b      	subs	r3, r5, #1
 80064b8:	4420      	add	r0, r4
 80064ba:	f013 05ff 	ands.w	r5, r3, #255	; 0xff
 80064be:	b2c4      	uxtb	r4, r0
 80064c0:	d1f4      	bne.n	80064ac <I2C1_ReceiveByte+0x38>
 80064c2:	2c03      	cmp	r4, #3
 80064c4:	f107 32ff 	add.w	r2, r7, #4294967295
 80064c8:	bf88      	it	hi
 80064ca:	f046 0601 	orrhi.w	r6, r6, #1
 80064ce:	f012 07ff 	ands.w	r7, r2, #255	; 0xff
 80064d2:	d1d8      	bne.n	8006486 <I2C1_ReceiveByte+0x12>
 80064d4:	463a      	mov	r2, r7
 80064d6:	4803      	ldr	r0, [pc, #12]	; (80064e4 <I2C1_ReceiveByte+0x70>)
 80064d8:	f44f 6180 	mov.w	r1, #1024	; 0x400
 80064dc:	f7ff fa34 	bl	8005948 <GPIO_WriteBit>
 80064e0:	4630      	mov	r0, r6
 80064e2:	bdf8      	pop	{r3, r4, r5, r6, r7, pc}
 80064e4:	40010c00 	.word	0x40010c00

080064e8 <I2C1_WaitAck>:
 80064e8:	b508      	push	{r3, lr}
 80064ea:	f44f 6180 	mov.w	r1, #1024	; 0x400
 80064ee:	2200      	movs	r2, #0
 80064f0:	4817      	ldr	r0, [pc, #92]	; (8006550 <I2C1_WaitAck+0x68>)
 80064f2:	f7ff fa29 	bl	8005948 <GPIO_WriteBit>
 80064f6:	2001      	movs	r0, #1
 80064f8:	f001 fbdc 	bl	8007cb4 <Delay_us>
 80064fc:	f44f 6100 	mov.w	r1, #2048	; 0x800
 8006500:	2201      	movs	r2, #1
 8006502:	4813      	ldr	r0, [pc, #76]	; (8006550 <I2C1_WaitAck+0x68>)
 8006504:	f7ff fa20 	bl	8005948 <GPIO_WriteBit>
 8006508:	2001      	movs	r0, #1
 800650a:	f001 fbd3 	bl	8007cb4 <Delay_us>
 800650e:	f44f 6180 	mov.w	r1, #1024	; 0x400
 8006512:	2201      	movs	r2, #1
 8006514:	480e      	ldr	r0, [pc, #56]	; (8006550 <I2C1_WaitAck+0x68>)
 8006516:	f7ff fa17 	bl	8005948 <GPIO_WriteBit>
 800651a:	2001      	movs	r0, #1
 800651c:	f001 fbca 	bl	8007cb4 <Delay_us>
 8006520:	480b      	ldr	r0, [pc, #44]	; (8006550 <I2C1_WaitAck+0x68>)
 8006522:	f44f 6100 	mov.w	r1, #2048	; 0x800
 8006526:	f7ff fa05 	bl	8005934 <GPIO_ReadInputDataBit>
 800652a:	2801      	cmp	r0, #1
 800652c:	d007      	beq.n	800653e <I2C1_WaitAck+0x56>
 800652e:	e8bd 4008 	ldmia.w	sp!, {r3, lr}
 8006532:	4807      	ldr	r0, [pc, #28]	; (8006550 <I2C1_WaitAck+0x68>)
 8006534:	f44f 6180 	mov.w	r1, #1024	; 0x400
 8006538:	2200      	movs	r2, #0
 800653a:	f7ff ba05 	b.w	8005948 <GPIO_WriteBit>
 800653e:	4b05      	ldr	r3, [pc, #20]	; (8006554 <I2C1_WaitAck+0x6c>)
 8006540:	6018      	str	r0, [r3, #0]
 8006542:	f001 fb85 	bl	8007c50 <DEBUG_LEDon>
 8006546:	4b04      	ldr	r3, [pc, #16]	; (8006558 <I2C1_WaitAck+0x70>)
 8006548:	681a      	ldr	r2, [r3, #0]
 800654a:	3201      	adds	r2, #1
 800654c:	601a      	str	r2, [r3, #0]
 800654e:	e7ee      	b.n	800652e <I2C1_WaitAck+0x46>
 8006550:	40010c00 	.word	0x40010c00
 8006554:	20000f1c 	.word	0x20000f1c
 8006558:	20000f18 	.word	0x20000f18

0800655c <UART4EnableTxInterrupt>:
 800655c:	4802      	ldr	r0, [pc, #8]	; (8006568 <UART4EnableTxInterrupt+0xc>)
 800655e:	f240 7127 	movw	r1, #1831	; 0x727
 8006562:	2201      	movs	r2, #1
 8006564:	f7ff bd4e 	b.w	8006004 <USART_ITConfig>
 8006568:	40004c00 	.word	0x40004c00

0800656c <InitUart4BufferIRQ>:
 800656c:	b500      	push	{lr}
 800656e:	f44f 60a0 	mov.w	r0, #1280	; 0x500
 8006572:	b083      	sub	sp, #12
 8006574:	f7ff fb04 	bl	8005b80 <NVIC_PriorityGroupConfig>
 8006578:	2301      	movs	r3, #1
 800657a:	2134      	movs	r1, #52	; 0x34
 800657c:	2200      	movs	r2, #0
 800657e:	a801      	add	r0, sp, #4
 8006580:	f88d 1004 	strb.w	r1, [sp, #4]
 8006584:	f88d 3005 	strb.w	r3, [sp, #5]
 8006588:	f88d 3007 	strb.w	r3, [sp, #7]
 800658c:	f88d 2006 	strb.w	r2, [sp, #6]
 8006590:	f7ff fb00 	bl	8005b94 <NVIC_Init>
 8006594:	b003      	add	sp, #12
 8006596:	f85d fb04 	ldr.w	pc, [sp], #4
 800659a:	bf00      	nop

0800659c <USART_GetChar>:
 800659c:	4801      	ldr	r0, [pc, #4]	; (80065a4 <USART_GetChar+0x8>)
 800659e:	f001 b911 	b.w	80077c4 <RingBufferGet>
 80065a2:	bf00      	nop
 80065a4:	20000bcc 	.word	0x20000bcc

080065a8 <USART_Available>:
 80065a8:	4801      	ldr	r0, [pc, #4]	; (80065b0 <USART_Available+0x8>)
 80065aa:	f001 b847 	b.w	800763c <RingBufferFillLevel>
 80065ae:	bf00      	nop
 80065b0:	20000bcc 	.word	0x20000bcc

080065b4 <USART_Flush>:
 80065b4:	b508      	push	{r3, lr}
 80065b6:	4803      	ldr	r0, [pc, #12]	; (80065c4 <USART_Flush+0x10>)
 80065b8:	f001 f840 	bl	800763c <RingBufferFillLevel>
 80065bc:	2800      	cmp	r0, #0
 80065be:	d1fa      	bne.n	80065b6 <USART_Flush+0x2>
 80065c0:	bd08      	pop	{r3, pc}
 80065c2:	bf00      	nop
 80065c4:	200009bc 	.word	0x200009bc

080065c8 <USART_PutString>:
 80065c8:	b510      	push	{r4, lr}
 80065ca:	7801      	ldrb	r1, [r0, #0]
 80065cc:	b141      	cbz	r1, 80065e0 <USART_PutString+0x18>
 80065ce:	4604      	mov	r4, r0
 80065d0:	4804      	ldr	r0, [pc, #16]	; (80065e4 <USART_PutString+0x1c>)
 80065d2:	2201      	movs	r2, #1
 80065d4:	f001 f846 	bl	8007664 <RingBufferPut>
 80065d8:	f814 1f01 	ldrb.w	r1, [r4, #1]!
 80065dc:	2900      	cmp	r1, #0
 80065de:	d1f7      	bne.n	80065d0 <USART_PutString+0x8>
 80065e0:	bd10      	pop	{r4, pc}
 80065e2:	bf00      	nop
 80065e4:	200009bc 	.word	0x200009bc

080065e8 <UART4_IRQHandler>:
 80065e8:	4b26      	ldr	r3, [pc, #152]	; (8006684 <UART4_IRQHandler+0x9c>)
 80065ea:	4a27      	ldr	r2, [pc, #156]	; (8006688 <UART4_IRQHandler+0xa0>)
 80065ec:	b570      	push	{r4, r5, r6, lr}
 80065ee:	6819      	ldr	r1, [r3, #0]
 80065f0:	8815      	ldrh	r5, [r2, #0]
 80065f2:	3101      	adds	r1, #1
 80065f4:	b2ad      	uxth	r5, r5
 80065f6:	6019      	str	r1, [r3, #0]
 80065f8:	0629      	lsls	r1, r5, #24
 80065fa:	d513      	bpl.n	8006624 <UART4_IRQHandler+0x3c>
 80065fc:	4c23      	ldr	r4, [pc, #140]	; (800668c <UART4_IRQHandler+0xa4>)
 80065fe:	6821      	ldr	r1, [r4, #0]
 8006600:	6863      	ldr	r3, [r4, #4]
 8006602:	4299      	cmp	r1, r3
 8006604:	d02d      	beq.n	8006662 <UART4_IRQHandler+0x7a>
 8006606:	6823      	ldr	r3, [r4, #0]
 8006608:	4620      	mov	r0, r4
 800660a:	4423      	add	r3, r4
 800660c:	7b1b      	ldrb	r3, [r3, #12]
 800660e:	8093      	strh	r3, [r2, #4]
 8006610:	6826      	ldr	r6, [r4, #0]
 8006612:	f001 f80f 	bl	8007634 <RingBufferSize>
 8006616:	3601      	adds	r6, #1
 8006618:	4286      	cmp	r6, r0
 800661a:	bf16      	itet	ne
 800661c:	6823      	ldrne	r3, [r4, #0]
 800661e:	2300      	moveq	r3, #0
 8006620:	3301      	addne	r3, #1
 8006622:	6023      	str	r3, [r4, #0]
 8006624:	06ab      	lsls	r3, r5, #26
 8006626:	d400      	bmi.n	800662a <UART4_IRQHandler+0x42>
 8006628:	bd70      	pop	{r4, r5, r6, pc}
 800662a:	4b17      	ldr	r3, [pc, #92]	; (8006688 <UART4_IRQHandler+0xa0>)
 800662c:	4c18      	ldr	r4, [pc, #96]	; (8006690 <UART4_IRQHandler+0xa8>)
 800662e:	889b      	ldrh	r3, [r3, #4]
 8006630:	4620      	mov	r0, r4
 8006632:	b29e      	uxth	r6, r3
 8006634:	f001 f802 	bl	800763c <RingBufferFillLevel>
 8006638:	4605      	mov	r5, r0
 800663a:	4620      	mov	r0, r4
 800663c:	f000 fffa 	bl	8007634 <RingBufferSize>
 8006640:	1c6b      	adds	r3, r5, #1
 8006642:	4283      	cmp	r3, r0
 8006644:	d016      	beq.n	8006674 <UART4_IRQHandler+0x8c>
 8006646:	6863      	ldr	r3, [r4, #4]
 8006648:	4620      	mov	r0, r4
 800664a:	4423      	add	r3, r4
 800664c:	6865      	ldr	r5, [r4, #4]
 800664e:	731e      	strb	r6, [r3, #12]
 8006650:	f000 fff0 	bl	8007634 <RingBufferSize>
 8006654:	3501      	adds	r5, #1
 8006656:	4285      	cmp	r5, r0
 8006658:	d010      	beq.n	800667c <UART4_IRQHandler+0x94>
 800665a:	6863      	ldr	r3, [r4, #4]
 800665c:	3301      	adds	r3, #1
 800665e:	6063      	str	r3, [r4, #4]
 8006660:	bd70      	pop	{r4, r5, r6, pc}
 8006662:	4610      	mov	r0, r2
 8006664:	f240 7127 	movw	r1, #1831	; 0x727
 8006668:	2200      	movs	r2, #0
 800666a:	f7ff fccb 	bl	8006004 <USART_ITConfig>
 800666e:	bf00      	nop
 8006670:	bf00      	nop
 8006672:	e7d7      	b.n	8006624 <UART4_IRQHandler+0x3c>
 8006674:	68a3      	ldr	r3, [r4, #8]
 8006676:	3301      	adds	r3, #1
 8006678:	60a3      	str	r3, [r4, #8]
 800667a:	bd70      	pop	{r4, r5, r6, pc}
 800667c:	2300      	movs	r3, #0
 800667e:	6063      	str	r3, [r4, #4]
 8006680:	bd70      	pop	{r4, r5, r6, pc}
 8006682:	bf00      	nop
 8006684:	20000f20 	.word	0x20000f20
 8006688:	40004c00 	.word	0x40004c00
 800668c:	200009bc 	.word	0x200009bc
 8006690:	20000bcc 	.word	0x20000bcc

08006694 <InitUart4Buffer>:
 8006694:	b508      	push	{r3, lr}
 8006696:	4805      	ldr	r0, [pc, #20]	; (80066ac <InitUart4Buffer+0x18>)
 8006698:	4905      	ldr	r1, [pc, #20]	; (80066b0 <InitUart4Buffer+0x1c>)
 800669a:	f000 ffc3 	bl	8007624 <RingBufferInit>
 800669e:	e8bd 4008 	ldmia.w	sp!, {r3, lr}
 80066a2:	4804      	ldr	r0, [pc, #16]	; (80066b4 <InitUart4Buffer+0x20>)
 80066a4:	2100      	movs	r1, #0
 80066a6:	f000 bfbd 	b.w	8007624 <RingBufferInit>
 80066aa:	bf00      	nop
 80066ac:	200009bc 	.word	0x200009bc
 80066b0:	0800655d 	.word	0x0800655d
 80066b4:	20000bcc 	.word	0x20000bcc

080066b8 <Usart4Init>:
 80066b8:	b530      	push	{r4, r5, lr}
 80066ba:	4d23      	ldr	r5, [pc, #140]	; (8006748 <Usart4Init+0x90>)
 80066bc:	b089      	sub	sp, #36	; 0x24
 80066be:	4628      	mov	r0, r5
 80066c0:	a901      	add	r1, sp, #4
 80066c2:	2218      	movs	r2, #24
 80066c4:	2303      	movs	r3, #3
 80066c6:	f44f 6480 	mov.w	r4, #1024	; 0x400
 80066ca:	f8ad 4004 	strh.w	r4, [sp, #4]
 80066ce:	f88d 2007 	strb.w	r2, [sp, #7]
 80066d2:	4c1e      	ldr	r4, [pc, #120]	; (800674c <Usart4Init+0x94>)
 80066d4:	f88d 3006 	strb.w	r3, [sp, #6]
 80066d8:	f7ff f8ca 	bl	8005870 <GPIO_Init>
 80066dc:	f44f 6200 	mov.w	r2, #2048	; 0x800
 80066e0:	2328      	movs	r3, #40	; 0x28
 80066e2:	a901      	add	r1, sp, #4
 80066e4:	4628      	mov	r0, r5
 80066e6:	f8ad 2004 	strh.w	r2, [sp, #4]
 80066ea:	f88d 3007 	strb.w	r3, [sp, #7]
 80066ee:	f7ff f8bf 	bl	8005870 <GPIO_Init>
 80066f2:	a802      	add	r0, sp, #8
 80066f4:	f7ff fc72 	bl	8005fdc <USART_ClockStructInit>
 80066f8:	a902      	add	r1, sp, #8
 80066fa:	4620      	mov	r0, r4
 80066fc:	f7ff fc5c 	bl	8005fb8 <USART_ClockInit>
 8006700:	f44f 5516 	mov.w	r5, #9600	; 0x2580
 8006704:	2300      	movs	r3, #0
 8006706:	4620      	mov	r0, r4
 8006708:	220c      	movs	r2, #12
 800670a:	a904      	add	r1, sp, #16
 800670c:	f8ad 3014 	strh.w	r3, [sp, #20]
 8006710:	f8ad 3016 	strh.w	r3, [sp, #22]
 8006714:	f8ad 3018 	strh.w	r3, [sp, #24]
 8006718:	f8ad 301c 	strh.w	r3, [sp, #28]
 800671c:	f8ad 201a 	strh.w	r2, [sp, #26]
 8006720:	9504      	str	r5, [sp, #16]
 8006722:	f7ff fbeb 	bl	8005efc <USART_Init>
 8006726:	2201      	movs	r2, #1
 8006728:	4620      	mov	r0, r4
 800672a:	f240 5125 	movw	r1, #1317	; 0x525
 800672e:	f7ff fc69 	bl	8006004 <USART_ITConfig>
 8006732:	4620      	mov	r0, r4
 8006734:	2101      	movs	r1, #1
 8006736:	f7ff fc57 	bl	8005fe8 <USART_Cmd>
 800673a:	f7ff ffab 	bl	8006694 <InitUart4Buffer>
 800673e:	f7ff ff15 	bl	800656c <InitUart4BufferIRQ>
 8006742:	b009      	add	sp, #36	; 0x24
 8006744:	bd30      	pop	{r4, r5, pc}
 8006746:	bf00      	nop
 8006748:	40011000 	.word	0x40011000
 800674c:	40004c00 	.word	0x40004c00

08006750 <usbOverrun>:
 8006750:	4b01      	ldr	r3, [pc, #4]	; (8006758 <usbOverrun+0x8>)
 8006752:	6898      	ldr	r0, [r3, #8]
 8006754:	4770      	bx	lr
 8006756:	bf00      	nop
 8006758:	20000f24 	.word	0x20000f24

0800675c <USBPushTXData>:
 800675c:	b538      	push	{r3, r4, r5, lr}
 800675e:	4c0f      	ldr	r4, [pc, #60]	; (800679c <USBPushTXData+0x40>)
 8006760:	6825      	ldr	r5, [r4, #0]
 8006762:	6861      	ldr	r1, [r4, #4]
 8006764:	6823      	ldr	r3, [r4, #0]
 8006766:	1ac9      	subs	r1, r1, r3
 8006768:	2900      	cmp	r1, #0
 800676a:	d00f      	beq.n	800678c <USBPushTXData+0x30>
 800676c:	db0f      	blt.n	800678e <USBPushTXData+0x32>
 800676e:	1960      	adds	r0, r4, r5
 8006770:	b2c9      	uxtb	r1, r1
 8006772:	300c      	adds	r0, #12
 8006774:	f003 fb9c 	bl	8009eb0 <CDC_Send_DATA>
 8006778:	6825      	ldr	r5, [r4, #0]
 800677a:	4405      	add	r5, r0
 800677c:	4807      	ldr	r0, [pc, #28]	; (800679c <USBPushTXData+0x40>)
 800677e:	f000 ff59 	bl	8007634 <RingBufferSize>
 8006782:	fb95 f3f0 	sdiv	r3, r5, r0
 8006786:	fb03 5010 	mls	r0, r3, r0, r5
 800678a:	6020      	str	r0, [r4, #0]
 800678c:	bd38      	pop	{r3, r4, r5, pc}
 800678e:	4620      	mov	r0, r4
 8006790:	f000 ff50 	bl	8007634 <RingBufferSize>
 8006794:	6821      	ldr	r1, [r4, #0]
 8006796:	1a41      	subs	r1, r0, r1
 8006798:	e7e9      	b.n	800676e <USBPushTXData+0x12>
 800679a:	bf00      	nop
 800679c:	20000f24 	.word	0x20000f24

080067a0 <USBPushTX>:
 80067a0:	b508      	push	{r3, lr}
 80067a2:	4b06      	ldr	r3, [pc, #24]	; (80067bc <USBPushTX+0x1c>)
 80067a4:	681b      	ldr	r3, [r3, #0]
 80067a6:	b103      	cbz	r3, 80067aa <USBPushTX+0xa>
 80067a8:	bd08      	pop	{r3, pc}
 80067aa:	f7ff fd3d 	bl	8006228 <millis>
 80067ae:	4b04      	ldr	r3, [pc, #16]	; (80067c0 <USBPushTX+0x20>)
 80067b0:	6018      	str	r0, [r3, #0]
 80067b2:	e8bd 4008 	ldmia.w	sp!, {r3, lr}
 80067b6:	f7ff bfd1 	b.w	800675c <USBPushTXData>
 80067ba:	bf00      	nop
 80067bc:	20005888 	.word	0x20005888
 80067c0:	20000ddc 	.word	0x20000ddc

080067c4 <EP1_IN_Callback>:
 80067c4:	b508      	push	{r3, lr}
 80067c6:	4907      	ldr	r1, [pc, #28]	; (80067e4 <EP1_IN_Callback+0x20>)
 80067c8:	4b07      	ldr	r3, [pc, #28]	; (80067e8 <EP1_IN_Callback+0x24>)
 80067ca:	2001      	movs	r0, #1
 80067cc:	2200      	movs	r2, #0
 80067ce:	601a      	str	r2, [r3, #0]
 80067d0:	6008      	str	r0, [r1, #0]
 80067d2:	f7ff fd29 	bl	8006228 <millis>
 80067d6:	4b05      	ldr	r3, [pc, #20]	; (80067ec <EP1_IN_Callback+0x28>)
 80067d8:	6018      	str	r0, [r3, #0]
 80067da:	e8bd 4008 	ldmia.w	sp!, {r3, lr}
 80067de:	f7ff bfbd 	b.w	800675c <USBPushTXData>
 80067e2:	bf00      	nop
 80067e4:	20000de0 	.word	0x20000de0
 80067e8:	20005888 	.word	0x20005888
 80067ec:	20000ddc 	.word	0x20000ddc

080067f0 <setupUSB>:
 80067f0:	b508      	push	{r3, lr}
 80067f2:	f003 fac7 	bl	8009d84 <Set_System>
 80067f6:	f003 fafb 	bl	8009df0 <Set_USBClock>
 80067fa:	f003 fb17 	bl	8009e2c <USB_Interrupts_Config>
 80067fe:	f003 f98b 	bl	8009b18 <USB_Init>
 8006802:	e8bd 4008 	ldmia.w	sp!, {r3, lr}
 8006806:	4802      	ldr	r0, [pc, #8]	; (8006810 <setupUSB+0x20>)
 8006808:	4902      	ldr	r1, [pc, #8]	; (8006814 <setupUSB+0x24>)
 800680a:	f000 bf0b 	b.w	8007624 <RingBufferInit>
 800680e:	bf00      	nop
 8006810:	20000f24 	.word	0x20000f24
 8006814:	080067a1 	.word	0x080067a1

08006818 <usbSendBytes>:
 8006818:	b538      	push	{r3, r4, r5, lr}
 800681a:	4605      	mov	r5, r0
 800681c:	460c      	mov	r4, r1
 800681e:	f003 fba1 	bl	8009f64 <usbIsConnected>
 8006822:	b128      	cbz	r0, 8006830 <usbSendBytes+0x18>
 8006824:	4629      	mov	r1, r5
 8006826:	4803      	ldr	r0, [pc, #12]	; (8006834 <usbSendBytes+0x1c>)
 8006828:	4622      	mov	r2, r4
 800682a:	2300      	movs	r3, #0
 800682c:	f000 ff62 	bl	80076f4 <RingBufferPutBlock>
 8006830:	4620      	mov	r0, r4
 8006832:	bd38      	pop	{r3, r4, r5, pc}
 8006834:	20000f24 	.word	0x20000f24

08006838 <usbBytesAvailable>:
 8006838:	4b01      	ldr	r3, [pc, #4]	; (8006840 <usbBytesAvailable+0x8>)
 800683a:	6818      	ldr	r0, [r3, #0]
 800683c:	4770      	bx	lr
 800683e:	bf00      	nop
 8006840:	200058d4 	.word	0x200058d4

08006844 <usbReceiveBytes>:
 8006844:	4b05      	ldr	r3, [pc, #20]	; (800685c <usbReceiveBytes+0x18>)
 8006846:	b510      	push	{r4, lr}
 8006848:	681c      	ldr	r4, [r3, #0]
 800684a:	428c      	cmp	r4, r1
 800684c:	bfa8      	it	ge
 800684e:	460c      	movge	r4, r1
 8006850:	4621      	mov	r1, r4
 8006852:	f003 fb51 	bl	8009ef8 <CDC_Receive_DATA>
 8006856:	4620      	mov	r0, r4
 8006858:	bd10      	pop	{r4, pc}
 800685a:	bf00      	nop
 800685c:	200058d4 	.word	0x200058d4

08006860 <StopWatchInit>:
 8006860:	b510      	push	{r4, lr}
 8006862:	4604      	mov	r4, r0
 8006864:	f7ff fcb8 	bl	80061d8 <micros>
 8006868:	6020      	str	r0, [r4, #0]
 800686a:	6060      	str	r0, [r4, #4]
 800686c:	bd10      	pop	{r4, pc}
 800686e:	bf00      	nop

08006870 <StopWatchLap>:
 8006870:	b510      	push	{r4, lr}
 8006872:	4604      	mov	r4, r0
 8006874:	f7ff fcb0 	bl	80061d8 <micros>
 8006878:	6863      	ldr	r3, [r4, #4]
 800687a:	6060      	str	r0, [r4, #4]
 800687c:	1ac0      	subs	r0, r0, r3
 800687e:	bd10      	pop	{r4, pc}

08006880 <StopWatchTotal>:
 8006880:	c805      	ldmia	r0, {r0, r2}
 8006882:	1a10      	subs	r0, r2, r0
 8006884:	4770      	bx	lr
 8006886:	bf00      	nop

08006888 <roll_PID>:
 8006888:	4b18      	ldr	r3, [pc, #96]	; (80068ec <roll_PID+0x64>)
 800688a:	e92d 41f0 	stmdb	sp!, {r4, r5, r6, r7, r8, lr}
 800688e:	6818      	ldr	r0, [r3, #0]
 8006890:	4917      	ldr	r1, [pc, #92]	; (80068f0 <roll_PID+0x68>)
 8006892:	f7fe fa81 	bl	8004d98 <__aeabi_fmul>
 8006896:	4b17      	ldr	r3, [pc, #92]	; (80068f4 <roll_PID+0x6c>)
 8006898:	4c17      	ldr	r4, [pc, #92]	; (80068f8 <roll_PID+0x70>)
 800689a:	6819      	ldr	r1, [r3, #0]
 800689c:	f7fe f974 	bl	8004b88 <__addsf3>
 80068a0:	4605      	mov	r5, r0
 80068a2:	7860      	ldrb	r0, [r4, #1]
 80068a4:	f7fe fa20 	bl	8004ce8 <__aeabi_ui2f>
 80068a8:	4911      	ldr	r1, [pc, #68]	; (80068f0 <roll_PID+0x68>)
 80068aa:	f7fe fb29 	bl	8004f00 <__aeabi_fdiv>
 80068ae:	4629      	mov	r1, r5
 80068b0:	f7fe fa72 	bl	8004d98 <__aeabi_fmul>
 80068b4:	4607      	mov	r7, r0
 80068b6:	7920      	ldrb	r0, [r4, #4]
 80068b8:	f7fe fa16 	bl	8004ce8 <__aeabi_ui2f>
 80068bc:	490f      	ldr	r1, [pc, #60]	; (80068fc <roll_PID+0x74>)
 80068be:	f7fe fb1f 	bl	8004f00 <__aeabi_fdiv>
 80068c2:	4e0f      	ldr	r6, [pc, #60]	; (8006900 <roll_PID+0x78>)
 80068c4:	4680      	mov	r8, r0
 80068c6:	6831      	ldr	r1, [r6, #0]
 80068c8:	4628      	mov	r0, r5
 80068ca:	f7fe f95b 	bl	8004b84 <__aeabi_fsub>
 80068ce:	4601      	mov	r1, r0
 80068d0:	4640      	mov	r0, r8
 80068d2:	f7fe fa61 	bl	8004d98 <__aeabi_fmul>
 80068d6:	4639      	mov	r1, r7
 80068d8:	6035      	str	r5, [r6, #0]
 80068da:	f7fe f955 	bl	8004b88 <__addsf3>
 80068de:	4b09      	ldr	r3, [pc, #36]	; (8006904 <roll_PID+0x7c>)
 80068e0:	79e1      	ldrb	r1, [r4, #7]
 80068e2:	e8bd 41f0 	ldmia.w	sp!, {r4, r5, r6, r7, r8, lr}
 80068e6:	6018      	str	r0, [r3, #0]
 80068e8:	f001 bbbc 	b.w	8008064 <SetRollMotor>
 80068ec:	20001134 	.word	0x20001134
 80068f0:	447a0000 	.word	0x447a0000
 80068f4:	20000de4 	.word	0x20000de4
 80068f8:	2000004c 	.word	0x2000004c
 80068fc:	42c80000 	.word	0x42c80000
 8006900:	20000e30 	.word	0x20000e30
 8006904:	20003098 	.word	0x20003098

08006908 <pitch_PID>:
 8006908:	4b18      	ldr	r3, [pc, #96]	; (800696c <pitch_PID+0x64>)
 800690a:	e92d 41f0 	stmdb	sp!, {r4, r5, r6, r7, r8, lr}
 800690e:	6858      	ldr	r0, [r3, #4]
 8006910:	4917      	ldr	r1, [pc, #92]	; (8006970 <pitch_PID+0x68>)
 8006912:	f7fe fa41 	bl	8004d98 <__aeabi_fmul>
 8006916:	4b17      	ldr	r3, [pc, #92]	; (8006974 <pitch_PID+0x6c>)
 8006918:	4c17      	ldr	r4, [pc, #92]	; (8006978 <pitch_PID+0x70>)
 800691a:	6819      	ldr	r1, [r3, #0]
 800691c:	f7fe f934 	bl	8004b88 <__addsf3>
 8006920:	4605      	mov	r5, r0
 8006922:	7820      	ldrb	r0, [r4, #0]
 8006924:	f7fe f9e0 	bl	8004ce8 <__aeabi_ui2f>
 8006928:	4911      	ldr	r1, [pc, #68]	; (8006970 <pitch_PID+0x68>)
 800692a:	f7fe fae9 	bl	8004f00 <__aeabi_fdiv>
 800692e:	4629      	mov	r1, r5
 8006930:	f7fe fa32 	bl	8004d98 <__aeabi_fmul>
 8006934:	4607      	mov	r7, r0
 8006936:	78e0      	ldrb	r0, [r4, #3]
 8006938:	f7fe f9d6 	bl	8004ce8 <__aeabi_ui2f>
 800693c:	490f      	ldr	r1, [pc, #60]	; (800697c <pitch_PID+0x74>)
 800693e:	f7fe fadf 	bl	8004f00 <__aeabi_fdiv>
 8006942:	4e0f      	ldr	r6, [pc, #60]	; (8006980 <pitch_PID+0x78>)
 8006944:	4680      	mov	r8, r0
 8006946:	6831      	ldr	r1, [r6, #0]
 8006948:	4628      	mov	r0, r5
 800694a:	f7fe f91b 	bl	8004b84 <__aeabi_fsub>
 800694e:	4601      	mov	r1, r0
 8006950:	4640      	mov	r0, r8
 8006952:	f7fe fa21 	bl	8004d98 <__aeabi_fmul>
 8006956:	4639      	mov	r1, r7
 8006958:	6035      	str	r5, [r6, #0]
 800695a:	f7fe f915 	bl	8004b88 <__addsf3>
 800695e:	4b09      	ldr	r3, [pc, #36]	; (8006984 <pitch_PID+0x7c>)
 8006960:	79a1      	ldrb	r1, [r4, #6]
 8006962:	e8bd 41f0 	ldmia.w	sp!, {r4, r5, r6, r7, r8, lr}
 8006966:	6058      	str	r0, [r3, #4]
 8006968:	f001 bb9c 	b.w	80080a4 <SetPitchMotor>
 800696c:	20001134 	.word	0x20001134
 8006970:	447a0000 	.word	0x447a0000
 8006974:	20000e38 	.word	0x20000e38
 8006978:	2000004c 	.word	0x2000004c
 800697c:	42c80000 	.word	0x42c80000
 8006980:	20000e0c 	.word	0x20000e0c
 8006984:	20003098 	.word	0x20003098

08006988 <yaw_PID>:
 8006988:	4b18      	ldr	r3, [pc, #96]	; (80069ec <yaw_PID+0x64>)
 800698a:	e92d 41f0 	stmdb	sp!, {r4, r5, r6, r7, r8, lr}
 800698e:	6898      	ldr	r0, [r3, #8]
 8006990:	4917      	ldr	r1, [pc, #92]	; (80069f0 <yaw_PID+0x68>)
 8006992:	f7fe fa01 	bl	8004d98 <__aeabi_fmul>
 8006996:	4b17      	ldr	r3, [pc, #92]	; (80069f4 <yaw_PID+0x6c>)
 8006998:	4c17      	ldr	r4, [pc, #92]	; (80069f8 <yaw_PID+0x70>)
 800699a:	6819      	ldr	r1, [r3, #0]
 800699c:	f7fe f8f4 	bl	8004b88 <__addsf3>
 80069a0:	4605      	mov	r5, r0
 80069a2:	78a0      	ldrb	r0, [r4, #2]
 80069a4:	f7fe f9a0 	bl	8004ce8 <__aeabi_ui2f>
 80069a8:	4911      	ldr	r1, [pc, #68]	; (80069f0 <yaw_PID+0x68>)
 80069aa:	f7fe faa9 	bl	8004f00 <__aeabi_fdiv>
 80069ae:	4629      	mov	r1, r5
 80069b0:	f7fe f9f2 	bl	8004d98 <__aeabi_fmul>
 80069b4:	4607      	mov	r7, r0
 80069b6:	7960      	ldrb	r0, [r4, #5]
 80069b8:	f7fe f996 	bl	8004ce8 <__aeabi_ui2f>
 80069bc:	490f      	ldr	r1, [pc, #60]	; (80069fc <yaw_PID+0x74>)
 80069be:	f7fe fa9f 	bl	8004f00 <__aeabi_fdiv>
 80069c2:	4e0f      	ldr	r6, [pc, #60]	; (8006a00 <yaw_PID+0x78>)
 80069c4:	4680      	mov	r8, r0
 80069c6:	6831      	ldr	r1, [r6, #0]
 80069c8:	4628      	mov	r0, r5
 80069ca:	f7fe f8db 	bl	8004b84 <__aeabi_fsub>
 80069ce:	4601      	mov	r1, r0
 80069d0:	4640      	mov	r0, r8
 80069d2:	f7fe f9e1 	bl	8004d98 <__aeabi_fmul>
 80069d6:	4639      	mov	r1, r7
 80069d8:	6035      	str	r5, [r6, #0]
 80069da:	f7fe f8d5 	bl	8004b88 <__addsf3>
 80069de:	4b09      	ldr	r3, [pc, #36]	; (8006a04 <yaw_PID+0x7c>)
 80069e0:	7a21      	ldrb	r1, [r4, #8]
 80069e2:	e8bd 41f0 	ldmia.w	sp!, {r4, r5, r6, r7, r8, lr}
 80069e6:	6098      	str	r0, [r3, #8]
 80069e8:	f001 bb7c 	b.w	80080e4 <SetYawMotor>
 80069ec:	20001134 	.word	0x20001134
 80069f0:	447a0000 	.word	0x447a0000
 80069f4:	20000df4 	.word	0x20000df4
 80069f8:	2000004c 	.word	0x2000004c
 80069fc:	42c80000 	.word	0x42c80000
 8006a00:	20000e60 	.word	0x20000e60
 8006a04:	20003098 	.word	0x20003098

08006a08 <Init_Orientation>:
 8006a08:	e92d 4ff8 	stmdb	sp!, {r3, r4, r5, r6, r7, r8, r9, sl, fp, lr}
 8006a0c:	4d2b      	ldr	r5, [pc, #172]	; (8006abc <Init_Orientation+0xb4>)
 8006a0e:	4c2c      	ldr	r4, [pc, #176]	; (8006ac0 <Init_Orientation+0xb8>)
 8006a10:	2696      	movs	r6, #150	; 0x96
 8006a12:	482a      	ldr	r0, [pc, #168]	; (8006abc <Init_Orientation+0xb4>)
 8006a14:	f001 f826 	bl	8007a64 <MPU6050_ACC_get>
 8006a18:	68a9      	ldr	r1, [r5, #8]
 8006a1a:	6828      	ldr	r0, [r5, #0]
 8006a1c:	f003 fc8a 	bl	800a334 <atan2f>
 8006a20:	68a9      	ldr	r1, [r5, #8]
 8006a22:	4680      	mov	r8, r0
 8006a24:	6868      	ldr	r0, [r5, #4]
 8006a26:	f003 fc85 	bl	800a334 <atan2f>
 8006a2a:	4926      	ldr	r1, [pc, #152]	; (8006ac4 <Init_Orientation+0xbc>)
 8006a2c:	4607      	mov	r7, r0
 8006a2e:	6820      	ldr	r0, [r4, #0]
 8006a30:	f7fe f9b2 	bl	8004d98 <__aeabi_fmul>
 8006a34:	4641      	mov	r1, r8
 8006a36:	f7fe f8a5 	bl	8004b84 <__aeabi_fsub>
 8006a3a:	4923      	ldr	r1, [pc, #140]	; (8006ac8 <Init_Orientation+0xc0>)
 8006a3c:	f7fe fa60 	bl	8004f00 <__aeabi_fdiv>
 8006a40:	4920      	ldr	r1, [pc, #128]	; (8006ac4 <Init_Orientation+0xbc>)
 8006a42:	6020      	str	r0, [r4, #0]
 8006a44:	6860      	ldr	r0, [r4, #4]
 8006a46:	f7fe f9a7 	bl	8004d98 <__aeabi_fmul>
 8006a4a:	4601      	mov	r1, r0
 8006a4c:	4638      	mov	r0, r7
 8006a4e:	f7fe f89b 	bl	8004b88 <__addsf3>
 8006a52:	491d      	ldr	r1, [pc, #116]	; (8006ac8 <Init_Orientation+0xc0>)
 8006a54:	f7fe fa54 	bl	8004f00 <__aeabi_fdiv>
 8006a58:	6060      	str	r0, [r4, #4]
 8006a5a:	2001      	movs	r0, #1
 8006a5c:	f001 f932 	bl	8007cc4 <Delay_ms>
 8006a60:	3e01      	subs	r6, #1
 8006a62:	4f17      	ldr	r7, [pc, #92]	; (8006ac0 <Init_Orientation+0xb8>)
 8006a64:	d1d5      	bne.n	8006a12 <Init_Orientation+0xa>
 8006a66:	4d19      	ldr	r5, [pc, #100]	; (8006acc <Init_Orientation+0xc4>)
 8006a68:	f8d7 b004 	ldr.w	fp, [r7, #4]
 8006a6c:	f8d7 a000 	ldr.w	sl, [r7]
 8006a70:	f8df c070 	ldr.w	ip, [pc, #112]	; 8006ae4 <Init_Orientation+0xdc>
 8006a74:	4f16      	ldr	r7, [pc, #88]	; (8006ad0 <Init_Orientation+0xc8>)
 8006a76:	f8df 9070 	ldr.w	r9, [pc, #112]	; 8006ae8 <Init_Orientation+0xe0>
 8006a7a:	4633      	mov	r3, r6
 8006a7c:	f04f 0800 	mov.w	r8, #0
 8006a80:	4e14      	ldr	r6, [pc, #80]	; (8006ad4 <Init_Orientation+0xcc>)
 8006a82:	4c15      	ldr	r4, [pc, #84]	; (8006ad8 <Init_Orientation+0xd0>)
 8006a84:	4815      	ldr	r0, [pc, #84]	; (8006adc <Init_Orientation+0xd4>)
 8006a86:	4916      	ldr	r1, [pc, #88]	; (8006ae0 <Init_Orientation+0xd8>)
 8006a88:	461a      	mov	r2, r3
 8006a8a:	f8c7 b004 	str.w	fp, [r7, #4]
 8006a8e:	f8c7 a000 	str.w	sl, [r7]
 8006a92:	f8c7 8008 	str.w	r8, [r7, #8]
 8006a96:	f8c5 9008 	str.w	r9, [r5, #8]
 8006a9a:	f8c5 c004 	str.w	ip, [r5, #4]
 8006a9e:	f8c5 c000 	str.w	ip, [r5]
 8006aa2:	f846 8003 	str.w	r8, [r6, r3]
 8006aa6:	50e2      	str	r2, [r4, r3]
 8006aa8:	f840 8003 	str.w	r8, [r0, r3]
 8006aac:	f841 8003 	str.w	r8, [r1, r3]
 8006ab0:	3304      	adds	r3, #4
 8006ab2:	f5b3 6f7a 	cmp.w	r3, #4000	; 0xfa0
 8006ab6:	d1f4      	bne.n	8006aa2 <Init_Orientation+0x9a>
 8006ab8:	e8bd 8ff8 	ldmia.w	sp!, {r3, r4, r5, r6, r7, r8, r9, sl, fp, pc}
 8006abc:	20000e14 	.word	0x20000e14
 8006ac0:	2000308c 	.word	0x2000308c
 8006ac4:	43150000 	.word	0x43150000
 8006ac8:	43160000 	.word	0x43160000
 8006acc:	200020e0 	.word	0x200020e0
 8006ad0:	20001134 	.word	0x20001134
 8006ad4:	20001140 	.word	0x20001140
 8006ad8:	200030a8 	.word	0x200030a8
 8006adc:	2000404c 	.word	0x2000404c
 8006ae0:	200020ec 	.word	0x200020ec
 8006ae4:	42b40000 	.word	0x42b40000
 8006ae8:	43340000 	.word	0x43340000

08006aec <Get_Orientation>:
 8006aec:	e92d 4ff8 	stmdb	sp!, {r3, r4, r5, r6, r7, r8, r9, sl, fp, lr}
 8006af0:	4617      	mov	r7, r2
 8006af2:	6892      	ldr	r2, [r2, #8]
 8006af4:	4606      	mov	r6, r0
 8006af6:	460c      	mov	r4, r1
 8006af8:	4610      	mov	r0, r2
 8006afa:	4611      	mov	r1, r2
 8006afc:	461d      	mov	r5, r3
 8006afe:	f7fe f94b 	bl	8004d98 <__aeabi_fmul>
 8006b02:	f8d7 8004 	ldr.w	r8, [r7, #4]
 8006b06:	4681      	mov	r9, r0
 8006b08:	4641      	mov	r1, r8
 8006b0a:	4640      	mov	r0, r8
 8006b0c:	f7fe f944 	bl	8004d98 <__aeabi_fmul>
 8006b10:	4601      	mov	r1, r0
 8006b12:	4648      	mov	r0, r9
 8006b14:	f7fe f838 	bl	8004b88 <__addsf3>
 8006b18:	f8d7 9000 	ldr.w	r9, [r7]
 8006b1c:	f8dd 8028 	ldr.w	r8, [sp, #40]	; 0x28
 8006b20:	f003 fc0a 	bl	800a338 <sqrtf>
 8006b24:	4601      	mov	r1, r0
 8006b26:	4648      	mov	r0, r9
 8006b28:	f003 fc04 	bl	800a334 <atan2f>
 8006b2c:	68b9      	ldr	r1, [r7, #8]
 8006b2e:	4681      	mov	r9, r0
 8006b30:	6878      	ldr	r0, [r7, #4]
 8006b32:	f003 fbff 	bl	800a334 <atan2f>
 8006b36:	493b      	ldr	r1, [pc, #236]	; (8006c24 <Get_Orientation+0x138>)
 8006b38:	4607      	mov	r7, r0
 8006b3a:	6830      	ldr	r0, [r6, #0]
 8006b3c:	f7fe f92c 	bl	8004d98 <__aeabi_fmul>
 8006b40:	4649      	mov	r1, r9
 8006b42:	f7fe f81f 	bl	8004b84 <__aeabi_fsub>
 8006b46:	4938      	ldr	r1, [pc, #224]	; (8006c28 <Get_Orientation+0x13c>)
 8006b48:	f7fe f9da 	bl	8004f00 <__aeabi_fdiv>
 8006b4c:	4935      	ldr	r1, [pc, #212]	; (8006c24 <Get_Orientation+0x138>)
 8006b4e:	6030      	str	r0, [r6, #0]
 8006b50:	6870      	ldr	r0, [r6, #4]
 8006b52:	f7fe f921 	bl	8004d98 <__aeabi_fmul>
 8006b56:	4601      	mov	r1, r0
 8006b58:	4638      	mov	r0, r7
 8006b5a:	f7fe f815 	bl	8004b88 <__addsf3>
 8006b5e:	4932      	ldr	r1, [pc, #200]	; (8006c28 <Get_Orientation+0x13c>)
 8006b60:	f7fe f9ce 	bl	8004f00 <__aeabi_fdiv>
 8006b64:	6070      	str	r0, [r6, #4]
 8006b66:	6829      	ldr	r1, [r5, #0]
 8006b68:	4681      	mov	r9, r0
 8006b6a:	4640      	mov	r0, r8
 8006b6c:	f7fe f914 	bl	8004d98 <__aeabi_fmul>
 8006b70:	6867      	ldr	r7, [r4, #4]
 8006b72:	4601      	mov	r1, r0
 8006b74:	4638      	mov	r0, r7
 8006b76:	f7fe f807 	bl	8004b88 <__addsf3>
 8006b7a:	4639      	mov	r1, r7
 8006b7c:	4682      	mov	sl, r0
 8006b7e:	4648      	mov	r0, r9
 8006b80:	f7fe f800 	bl	8004b84 <__aeabi_fsub>
 8006b84:	4929      	ldr	r1, [pc, #164]	; (8006c2c <Get_Orientation+0x140>)
 8006b86:	f7fe f907 	bl	8004d98 <__aeabi_fmul>
 8006b8a:	4601      	mov	r1, r0
 8006b8c:	4650      	mov	r0, sl
 8006b8e:	f7fd fffb 	bl	8004b88 <__addsf3>
 8006b92:	6060      	str	r0, [r4, #4]
 8006b94:	4681      	mov	r9, r0
 8006b96:	f003 fb8f 	bl	800a2b8 <sinf>
 8006b9a:	4607      	mov	r7, r0
 8006b9c:	4648      	mov	r0, r9
 8006b9e:	f003 fb55 	bl	800a24c <cosf>
 8006ba2:	4681      	mov	r9, r0
 8006ba4:	68a8      	ldr	r0, [r5, #8]
 8006ba6:	4639      	mov	r1, r7
 8006ba8:	f100 4000 	add.w	r0, r0, #2147483648	; 0x80000000
 8006bac:	f7fe f8f4 	bl	8004d98 <__aeabi_fmul>
 8006bb0:	6869      	ldr	r1, [r5, #4]
 8006bb2:	4682      	mov	sl, r0
 8006bb4:	4648      	mov	r0, r9
 8006bb6:	f7fe f8ef 	bl	8004d98 <__aeabi_fmul>
 8006bba:	4601      	mov	r1, r0
 8006bbc:	4650      	mov	r0, sl
 8006bbe:	f7fd ffe3 	bl	8004b88 <__addsf3>
 8006bc2:	4601      	mov	r1, r0
 8006bc4:	4640      	mov	r0, r8
 8006bc6:	f7fe f8e7 	bl	8004d98 <__aeabi_fmul>
 8006bca:	f8d4 a000 	ldr.w	sl, [r4]
 8006bce:	4601      	mov	r1, r0
 8006bd0:	4650      	mov	r0, sl
 8006bd2:	f7fd ffd9 	bl	8004b88 <__addsf3>
 8006bd6:	4651      	mov	r1, sl
 8006bd8:	4683      	mov	fp, r0
 8006bda:	6830      	ldr	r0, [r6, #0]
 8006bdc:	f7fd ffd2 	bl	8004b84 <__aeabi_fsub>
 8006be0:	4912      	ldr	r1, [pc, #72]	; (8006c2c <Get_Orientation+0x140>)
 8006be2:	f7fe f8d9 	bl	8004d98 <__aeabi_fmul>
 8006be6:	4601      	mov	r1, r0
 8006be8:	4658      	mov	r0, fp
 8006bea:	f7fd ffcd 	bl	8004b88 <__addsf3>
 8006bee:	6020      	str	r0, [r4, #0]
 8006bf0:	68a9      	ldr	r1, [r5, #8]
 8006bf2:	4648      	mov	r0, r9
 8006bf4:	f101 4100 	add.w	r1, r1, #2147483648	; 0x80000000
 8006bf8:	f7fe f8ce 	bl	8004d98 <__aeabi_fmul>
 8006bfc:	6869      	ldr	r1, [r5, #4]
 8006bfe:	4606      	mov	r6, r0
 8006c00:	4638      	mov	r0, r7
 8006c02:	f7fe f8c9 	bl	8004d98 <__aeabi_fmul>
 8006c06:	4601      	mov	r1, r0
 8006c08:	4630      	mov	r0, r6
 8006c0a:	f7fd ffbb 	bl	8004b84 <__aeabi_fsub>
 8006c0e:	4601      	mov	r1, r0
 8006c10:	4640      	mov	r0, r8
 8006c12:	f7fe f8c1 	bl	8004d98 <__aeabi_fmul>
 8006c16:	4601      	mov	r1, r0
 8006c18:	68a0      	ldr	r0, [r4, #8]
 8006c1a:	f7fd ffb5 	bl	8004b88 <__addsf3>
 8006c1e:	60a0      	str	r0, [r4, #8]
 8006c20:	e8bd 8ff8 	ldmia.w	sp!, {r3, r4, r5, r6, r7, r8, r9, sl, fp, pc}
 8006c24:	42c60000 	.word	0x42c60000
 8006c28:	42c80000 	.word	0x42c80000
 8006c2c:	3951b717 	.word	0x3951b717

08006c30 <autoPan>:
 8006c30:	b5f8      	push	{r3, r4, r5, r6, r7, lr}
 8006c32:	4d1e      	ldr	r5, [pc, #120]	; (8006cac <autoPan+0x7c>)
 8006c34:	4604      	mov	r4, r0
 8006c36:	682e      	ldr	r6, [r5, #0]
 8006c38:	460f      	mov	r7, r1
 8006c3a:	4630      	mov	r0, r6
 8006c3c:	f04f 4180 	mov.w	r1, #1073741824	; 0x40000000
 8006c40:	f7fd ffa0 	bl	8004b84 <__aeabi_fsub>
 8006c44:	4621      	mov	r1, r4
 8006c46:	f7fe fa63 	bl	8005110 <__aeabi_fcmpgt>
 8006c4a:	2800      	cmp	r0, #0
 8006c4c:	d12b      	bne.n	8006ca6 <autoPan+0x76>
 8006c4e:	f04f 4180 	mov.w	r1, #1073741824	; 0x40000000
 8006c52:	4630      	mov	r0, r6
 8006c54:	f7fd ff98 	bl	8004b88 <__addsf3>
 8006c58:	4601      	mov	r1, r0
 8006c5a:	4620      	mov	r0, r4
 8006c5c:	f7fe fa58 	bl	8005110 <__aeabi_fcmpgt>
 8006c60:	b9b0      	cbnz	r0, 8006c90 <autoPan+0x60>
 8006c62:	4a13      	ldr	r2, [pc, #76]	; (8006cb0 <autoPan+0x80>)
 8006c64:	2300      	movs	r3, #0
 8006c66:	602b      	str	r3, [r5, #0]
 8006c68:	6013      	str	r3, [r2, #0]
 8006c6a:	461d      	mov	r5, r3
 8006c6c:	4c11      	ldr	r4, [pc, #68]	; (8006cb4 <autoPan+0x84>)
 8006c6e:	4912      	ldr	r1, [pc, #72]	; (8006cb8 <autoPan+0x88>)
 8006c70:	6820      	ldr	r0, [r4, #0]
 8006c72:	f7fe f891 	bl	8004d98 <__aeabi_fmul>
 8006c76:	4629      	mov	r1, r5
 8006c78:	f7fd ff86 	bl	8004b88 <__addsf3>
 8006c7c:	490f      	ldr	r1, [pc, #60]	; (8006cbc <autoPan+0x8c>)
 8006c7e:	f7fe f93f 	bl	8004f00 <__aeabi_fdiv>
 8006c82:	4603      	mov	r3, r0
 8006c84:	4601      	mov	r1, r0
 8006c86:	6023      	str	r3, [r4, #0]
 8006c88:	4638      	mov	r0, r7
 8006c8a:	f7fd ff7b 	bl	8004b84 <__aeabi_fsub>
 8006c8e:	bdf8      	pop	{r3, r4, r5, r6, r7, pc}
 8006c90:	f04f 4340 	mov.w	r3, #3221225472	; 0xc0000000
 8006c94:	602b      	str	r3, [r5, #0]
 8006c96:	4620      	mov	r0, r4
 8006c98:	4909      	ldr	r1, [pc, #36]	; (8006cc0 <autoPan+0x90>)
 8006c9a:	f7fe f87d 	bl	8004d98 <__aeabi_fmul>
 8006c9e:	4b04      	ldr	r3, [pc, #16]	; (8006cb0 <autoPan+0x80>)
 8006ca0:	4605      	mov	r5, r0
 8006ca2:	6018      	str	r0, [r3, #0]
 8006ca4:	e7e2      	b.n	8006c6c <autoPan+0x3c>
 8006ca6:	f04f 4380 	mov.w	r3, #1073741824	; 0x40000000
 8006caa:	e7f3      	b.n	8006c94 <autoPan+0x64>
 8006cac:	20000df8 	.word	0x20000df8
 8006cb0:	20000e40 	.word	0x20000e40
 8006cb4:	20000e20 	.word	0x20000e20
 8006cb8:	421c0000 	.word	0x421c0000
 8006cbc:	42200000 	.word	0x42200000
 8006cc0:	3f0ccccd 	.word	0x3f0ccccd

08006cc4 <engineProcess>:
 8006cc4:	e92d 4ff0 	stmdb	sp!, {r4, r5, r6, r7, r8, r9, sl, fp, lr}
 8006cc8:	4dab      	ldr	r5, [pc, #684]	; (8006f78 <engineProcess+0x2b4>)
 8006cca:	b099      	sub	sp, #100	; 0x64
 8006ccc:	682b      	ldr	r3, [r5, #0]
 8006cce:	9011      	str	r0, [sp, #68]	; 0x44
 8006cd0:	3301      	adds	r3, #1
 8006cd2:	602b      	str	r3, [r5, #0]
 8006cd4:	f000 ffa0 	bl	8007c18 <LEDon>
 8006cd8:	f000 ffc0 	bl	8007c5c <DEBUG_LEDoff>
 8006cdc:	a816      	add	r0, sp, #88	; 0x58
 8006cde:	f7ff fdbf 	bl	8006860 <StopWatchInit>
 8006ce2:	48a6      	ldr	r0, [pc, #664]	; (8006f7c <engineProcess+0x2b8>)
 8006ce4:	f000 febe 	bl	8007a64 <MPU6050_ACC_get>
 8006ce8:	a816      	add	r0, sp, #88	; 0x58
 8006cea:	f7ff fdc1 	bl	8006870 <StopWatchLap>
 8006cee:	9012      	str	r0, [sp, #72]	; 0x48
 8006cf0:	48a3      	ldr	r0, [pc, #652]	; (8006f80 <engineProcess+0x2bc>)
 8006cf2:	f000 fee3 	bl	8007abc <MPU6050_Gyro_get>
 8006cf6:	a816      	add	r0, sp, #88	; 0x58
 8006cf8:	f7ff fdba 	bl	8006870 <StopWatchLap>
 8006cfc:	4ca1      	ldr	r4, [pc, #644]	; (8006f84 <engineProcess+0x2c0>)
 8006cfe:	9911      	ldr	r1, [sp, #68]	; 0x44
 8006d00:	4b9f      	ldr	r3, [pc, #636]	; (8006f80 <engineProcess+0x2bc>)
 8006d02:	9013      	str	r0, [sp, #76]	; 0x4c
 8006d04:	9100      	str	r1, [sp, #0]
 8006d06:	48a0      	ldr	r0, [pc, #640]	; (8006f88 <engineProcess+0x2c4>)
 8006d08:	4621      	mov	r1, r4
 8006d0a:	4a9c      	ldr	r2, [pc, #624]	; (8006f7c <engineProcess+0x2b8>)
 8006d0c:	f7ff feee 	bl	8006aec <Get_Orientation>
 8006d10:	a816      	add	r0, sp, #88	; 0x58
 8006d12:	f7ff fdad 	bl	8006870 <StopWatchLap>
 8006d16:	4f9d      	ldr	r7, [pc, #628]	; (8006f8c <engineProcess+0x2c8>)
 8006d18:	9014      	str	r0, [sp, #80]	; 0x50
 8006d1a:	7a7b      	ldrb	r3, [r7, #9]
 8006d1c:	2b31      	cmp	r3, #49	; 0x31
 8006d1e:	d036      	beq.n	8006d8e <engineProcess+0xca>
 8006d20:	f8d4 8004 	ldr.w	r8, [r4, #4]
 8006d24:	f8df b2c8 	ldr.w	fp, [pc, #712]	; 8006ff0 <engineProcess+0x32c>
 8006d28:	4e99      	ldr	r6, [pc, #612]	; (8006f90 <engineProcess+0x2cc>)
 8006d2a:	f8db 3000 	ldr.w	r3, [fp]
 8006d2e:	2b00      	cmp	r3, #0
 8006d30:	d137      	bne.n	8006da2 <engineProcess+0xde>
 8006d32:	f8df 92c0 	ldr.w	r9, [pc, #704]	; 8006ff4 <engineProcess+0x330>
 8006d36:	4997      	ldr	r1, [pc, #604]	; (8006f94 <engineProcess+0x2d0>)
 8006d38:	6870      	ldr	r0, [r6, #4]
 8006d3a:	f7fe f8e1 	bl	8004f00 <__aeabi_fdiv>
 8006d3e:	f8d9 1000 	ldr.w	r1, [r9]
 8006d42:	f7fd ff21 	bl	8004b88 <__addsf3>
 8006d46:	4641      	mov	r1, r8
 8006d48:	f8c9 0000 	str.w	r0, [r9]
 8006d4c:	f7fd ff1c 	bl	8004b88 <__addsf3>
 8006d50:	4991      	ldr	r1, [pc, #580]	; (8006f98 <engineProcess+0x2d4>)
 8006d52:	f7fe f821 	bl	8004d98 <__aeabi_fmul>
 8006d56:	4991      	ldr	r1, [pc, #580]	; (8006f9c <engineProcess+0x2d8>)
 8006d58:	4681      	mov	r9, r0
 8006d5a:	f7fe f9bb 	bl	80050d4 <__aeabi_fcmplt>
 8006d5e:	2800      	cmp	r0, #0
 8006d60:	f040 8288 	bne.w	8007274 <engineProcess+0x5b0>
 8006d64:	4648      	mov	r0, r9
 8006d66:	f04f 517e 	mov.w	r1, #1065353216	; 0x3f800000
 8006d6a:	f7fe f9d1 	bl	8005110 <__aeabi_fcmpgt>
 8006d6e:	b108      	cbz	r0, 8006d74 <engineProcess+0xb0>
 8006d70:	f04f 597e 	mov.w	r9, #1065353216	; 0x3f800000
 8006d74:	f8df 8280 	ldr.w	r8, [pc, #640]	; 8006ff8 <engineProcess+0x334>
 8006d78:	4b89      	ldr	r3, [pc, #548]	; (8006fa0 <engineProcess+0x2dc>)
 8006d7a:	f8d8 0000 	ldr.w	r0, [r8]
 8006d7e:	4649      	mov	r1, r9
 8006d80:	f8c3 9000 	str.w	r9, [r3]
 8006d84:	f7fd ff00 	bl	8004b88 <__addsf3>
 8006d88:	f8c8 0000 	str.w	r0, [r8]
 8006d8c:	e047      	b.n	8006e1e <engineProcess+0x15a>
 8006d8e:	f8df b260 	ldr.w	fp, [pc, #608]	; 8006ff0 <engineProcess+0x32c>
 8006d92:	f8db 3000 	ldr.w	r3, [fp]
 8006d96:	2b00      	cmp	r3, #0
 8006d98:	f000 82aa 	beq.w	80072f0 <engineProcess+0x62c>
 8006d9c:	f8d4 8004 	ldr.w	r8, [r4, #4]
 8006da0:	4e7b      	ldr	r6, [pc, #492]	; (8006f90 <engineProcess+0x2cc>)
 8006da2:	f8df a258 	ldr.w	sl, [pc, #600]	; 8006ffc <engineProcess+0x338>
 8006da6:	497f      	ldr	r1, [pc, #508]	; (8006fa4 <engineProcess+0x2e0>)
 8006da8:	f8da 0004 	ldr.w	r0, [sl, #4]
 8006dac:	f7fd feea 	bl	8004b84 <__aeabi_fsub>
 8006db0:	497d      	ldr	r1, [pc, #500]	; (8006fa8 <engineProcess+0x2e4>)
 8006db2:	f100 4000 	add.w	r0, r0, #2147483648	; 0x80000000
 8006db6:	f7fd ffef 	bl	8004d98 <__aeabi_fmul>
 8006dba:	f8df 9244 	ldr.w	r9, [pc, #580]	; 8007000 <engineProcess+0x33c>
 8006dbe:	4602      	mov	r2, r0
 8006dc0:	4611      	mov	r1, r2
 8006dc2:	f8c9 2004 	str.w	r2, [r9, #4]
 8006dc6:	4640      	mov	r0, r8
 8006dc8:	f7fd fedc 	bl	8004b84 <__aeabi_fsub>
 8006dcc:	4a77      	ldr	r2, [pc, #476]	; (8006fac <engineProcess+0x2e8>)
 8006dce:	f8df 8228 	ldr.w	r8, [pc, #552]	; 8006ff8 <engineProcess+0x334>
 8006dd2:	6811      	ldr	r1, [r2, #0]
 8006dd4:	f7fd ffe0 	bl	8004d98 <__aeabi_fmul>
 8006dd8:	f8d8 1000 	ldr.w	r1, [r8]
 8006ddc:	6070      	str	r0, [r6, #4]
 8006dde:	f7fd fed3 	bl	8004b88 <__addsf3>
 8006de2:	4973      	ldr	r1, [pc, #460]	; (8006fb0 <engineProcess+0x2ec>)
 8006de4:	f8c8 0000 	str.w	r0, [r8]
 8006de8:	f8da 0008 	ldr.w	r0, [sl, #8]
 8006dec:	f7fd feca 	bl	8004b84 <__aeabi_fsub>
 8006df0:	496d      	ldr	r1, [pc, #436]	; (8006fa8 <engineProcess+0x2e4>)
 8006df2:	f7fd ffd1 	bl	8004d98 <__aeabi_fmul>
 8006df6:	4603      	mov	r3, r0
 8006df8:	4601      	mov	r1, r0
 8006dfa:	f8c9 3008 	str.w	r3, [r9, #8]
 8006dfe:	68a0      	ldr	r0, [r4, #8]
 8006e00:	f7fd fec0 	bl	8004b84 <__aeabi_fsub>
 8006e04:	4b6b      	ldr	r3, [pc, #428]	; (8006fb4 <engineProcess+0x2f0>)
 8006e06:	f8df 91b8 	ldr.w	r9, [pc, #440]	; 8006fc0 <engineProcess+0x2fc>
 8006e0a:	6819      	ldr	r1, [r3, #0]
 8006e0c:	f7fd ffc4 	bl	8004d98 <__aeabi_fmul>
 8006e10:	f8d9 1000 	ldr.w	r1, [r9]
 8006e14:	60b0      	str	r0, [r6, #8]
 8006e16:	f7fd feb7 	bl	8004b88 <__addsf3>
 8006e1a:	f8c9 0000 	str.w	r0, [r9]
 8006e1e:	f8df 91e4 	ldr.w	r9, [pc, #484]	; 8007004 <engineProcess+0x340>
 8006e22:	6830      	ldr	r0, [r6, #0]
 8006e24:	495b      	ldr	r1, [pc, #364]	; (8006f94 <engineProcess+0x2d0>)
 8006e26:	f7fe f86b 	bl	8004f00 <__aeabi_fdiv>
 8006e2a:	f8d9 1000 	ldr.w	r1, [r9]
 8006e2e:	f7fd feab 	bl	8004b88 <__addsf3>
 8006e32:	6821      	ldr	r1, [r4, #0]
 8006e34:	f8c9 0000 	str.w	r0, [r9]
 8006e38:	f7fd fea6 	bl	8004b88 <__addsf3>
 8006e3c:	4681      	mov	r9, r0
 8006e3e:	7af8      	ldrb	r0, [r7, #11]
 8006e40:	3864      	subs	r0, #100	; 0x64
 8006e42:	f7fd ff55 	bl	8004cf0 <__aeabi_i2f>
 8006e46:	495c      	ldr	r1, [pc, #368]	; (8006fb8 <engineProcess+0x2f4>)
 8006e48:	f7fe f85a 	bl	8004f00 <__aeabi_fdiv>
 8006e4c:	f000 ff4a 	bl	8007ce4 <Deg2Rad>
 8006e50:	4601      	mov	r1, r0
 8006e52:	4648      	mov	r0, r9
 8006e54:	f7fd fe98 	bl	8004b88 <__addsf3>
 8006e58:	494f      	ldr	r1, [pc, #316]	; (8006f98 <engineProcess+0x2d4>)
 8006e5a:	f7fd ff9d 	bl	8004d98 <__aeabi_fmul>
 8006e5e:	494f      	ldr	r1, [pc, #316]	; (8006f9c <engineProcess+0x2d8>)
 8006e60:	4682      	mov	sl, r0
 8006e62:	f7fe f937 	bl	80050d4 <__aeabi_fcmplt>
 8006e66:	2800      	cmp	r0, #0
 8006e68:	f040 8082 	bne.w	8006f70 <engineProcess+0x2ac>
 8006e6c:	4650      	mov	r0, sl
 8006e6e:	f04f 517e 	mov.w	r1, #1065353216	; 0x3f800000
 8006e72:	f7fe f94d 	bl	8005110 <__aeabi_fcmpgt>
 8006e76:	b108      	cbz	r0, 8006e7c <engineProcess+0x1b8>
 8006e78:	f04f 5a7e 	mov.w	sl, #1065353216	; 0x3f800000
 8006e7c:	f8df 9188 	ldr.w	r9, [pc, #392]	; 8007008 <engineProcess+0x344>
 8006e80:	4a4e      	ldr	r2, [pc, #312]	; (8006fbc <engineProcess+0x2f8>)
 8006e82:	f8d9 0000 	ldr.w	r0, [r9]
 8006e86:	4651      	mov	r1, sl
 8006e88:	f8c2 a000 	str.w	sl, [r2]
 8006e8c:	f7fd fe7c 	bl	8004b88 <__addsf3>
 8006e90:	7abb      	ldrb	r3, [r7, #10]
 8006e92:	f8c9 0000 	str.w	r0, [r9]
 8006e96:	2b30      	cmp	r3, #48	; 0x30
 8006e98:	f8db 3000 	ldr.w	r3, [fp]
 8006e9c:	d05e      	beq.n	8006f5c <engineProcess+0x298>
 8006e9e:	b993      	cbnz	r3, 8006ec6 <engineProcess+0x202>
 8006ea0:	f8d6 b008 	ldr.w	fp, [r6, #8]
 8006ea4:	4b46      	ldr	r3, [pc, #280]	; (8006fc0 <engineProcess+0x2fc>)
 8006ea6:	4658      	mov	r0, fp
 8006ea8:	6819      	ldr	r1, [r3, #0]
 8006eaa:	930e      	str	r3, [sp, #56]	; 0x38
 8006eac:	f7fd fe6c 	bl	8004b88 <__addsf3>
 8006eb0:	9b0e      	ldr	r3, [sp, #56]	; 0x38
 8006eb2:	4f44      	ldr	r7, [pc, #272]	; (8006fc4 <engineProcess+0x300>)
 8006eb4:	6018      	str	r0, [r3, #0]
 8006eb6:	4937      	ldr	r1, [pc, #220]	; (8006f94 <engineProcess+0x2d0>)
 8006eb8:	4658      	mov	r0, fp
 8006eba:	f7fe f821 	bl	8004f00 <__aeabi_fdiv>
 8006ebe:	6839      	ldr	r1, [r7, #0]
 8006ec0:	f7fd fe62 	bl	8004b88 <__addsf3>
 8006ec4:	6038      	str	r0, [r7, #0]
 8006ec6:	a816      	add	r0, sp, #88	; 0x58
 8006ec8:	f7ff fcd2 	bl	8006870 <StopWatchLap>
 8006ecc:	4683      	mov	fp, r0
 8006ece:	f7ff fd1b 	bl	8006908 <pitch_PID>
 8006ed2:	f7ff fcd9 	bl	8006888 <roll_PID>
 8006ed6:	f7ff fd57 	bl	8006988 <yaw_PID>
 8006eda:	a816      	add	r0, sp, #88	; 0x58
 8006edc:	f7ff fcc8 	bl	8006870 <StopWatchLap>
 8006ee0:	9015      	str	r0, [sp, #84]	; 0x54
 8006ee2:	a816      	add	r0, sp, #88	; 0x58
 8006ee4:	f7ff fccc 	bl	8006880 <StopWatchTotal>
 8006ee8:	4f37      	ldr	r7, [pc, #220]	; (8006fc8 <engineProcess+0x304>)
 8006eea:	f8df c120 	ldr.w	ip, [pc, #288]	; 800700c <engineProcess+0x348>
 8006eee:	683b      	ldr	r3, [r7, #0]
 8006ef0:	f8cc 0000 	str.w	r0, [ip]
 8006ef4:	3301      	adds	r3, #1
 8006ef6:	f5b3 7ffa 	cmp.w	r3, #500	; 0x1f4
 8006efa:	603b      	str	r3, [r7, #0]
 8006efc:	db29      	blt.n	8006f52 <engineProcess+0x28e>
 8006efe:	4b33      	ldr	r3, [pc, #204]	; (8006fcc <engineProcess+0x308>)
 8006f00:	681b      	ldr	r3, [r3, #0]
 8006f02:	2b00      	cmp	r3, #0
 8006f04:	f040 8084 	bne.w	8007010 <engineProcess+0x34c>
 8006f08:	4b31      	ldr	r3, [pc, #196]	; (8006fd0 <engineProcess+0x30c>)
 8006f0a:	681b      	ldr	r3, [r3, #0]
 8006f0c:	2b00      	cmp	r3, #0
 8006f0e:	f040 80b0 	bne.w	8007072 <engineProcess+0x3ae>
 8006f12:	4b30      	ldr	r3, [pc, #192]	; (8006fd4 <engineProcess+0x310>)
 8006f14:	681b      	ldr	r3, [r3, #0]
 8006f16:	2b00      	cmp	r3, #0
 8006f18:	f040 80df 	bne.w	80070da <engineProcess+0x416>
 8006f1c:	4b2e      	ldr	r3, [pc, #184]	; (8006fd8 <engineProcess+0x314>)
 8006f1e:	681b      	ldr	r3, [r3, #0]
 8006f20:	2b00      	cmp	r3, #0
 8006f22:	f040 80f9 	bne.w	8007118 <engineProcess+0x454>
 8006f26:	4b2d      	ldr	r3, [pc, #180]	; (8006fdc <engineProcess+0x318>)
 8006f28:	681b      	ldr	r3, [r3, #0]
 8006f2a:	2b00      	cmp	r3, #0
 8006f2c:	f040 8121 	bne.w	8007172 <engineProcess+0x4ae>
 8006f30:	4b2b      	ldr	r3, [pc, #172]	; (8006fe0 <engineProcess+0x31c>)
 8006f32:	681b      	ldr	r3, [r3, #0]
 8006f34:	2b00      	cmp	r3, #0
 8006f36:	f040 8138 	bne.w	80071aa <engineProcess+0x4e6>
 8006f3a:	4b2a      	ldr	r3, [pc, #168]	; (8006fe4 <engineProcess+0x320>)
 8006f3c:	681b      	ldr	r3, [r3, #0]
 8006f3e:	2b00      	cmp	r3, #0
 8006f40:	f040 815c 	bne.w	80071fc <engineProcess+0x538>
 8006f44:	4b28      	ldr	r3, [pc, #160]	; (8006fe8 <engineProcess+0x324>)
 8006f46:	681b      	ldr	r3, [r3, #0]
 8006f48:	2b00      	cmp	r3, #0
 8006f4a:	f040 8177 	bne.w	800723c <engineProcess+0x578>
 8006f4e:	2300      	movs	r3, #0
 8006f50:	603b      	str	r3, [r7, #0]
 8006f52:	f000 fe69 	bl	8007c28 <LEDoff>
 8006f56:	b019      	add	sp, #100	; 0x64
 8006f58:	e8bd 8ff0 	ldmia.w	sp!, {r4, r5, r6, r7, r8, r9, sl, fp, pc}
 8006f5c:	2b00      	cmp	r3, #0
 8006f5e:	d1b2      	bne.n	8006ec6 <engineProcess+0x202>
 8006f60:	4b22      	ldr	r3, [pc, #136]	; (8006fec <engineProcess+0x328>)
 8006f62:	4f17      	ldr	r7, [pc, #92]	; (8006fc0 <engineProcess+0x2fc>)
 8006f64:	6898      	ldr	r0, [r3, #8]
 8006f66:	6839      	ldr	r1, [r7, #0]
 8006f68:	f7ff fe62 	bl	8006c30 <autoPan>
 8006f6c:	6038      	str	r0, [r7, #0]
 8006f6e:	e7aa      	b.n	8006ec6 <engineProcess+0x202>
 8006f70:	f8df a028 	ldr.w	sl, [pc, #40]	; 8006f9c <engineProcess+0x2d8>
 8006f74:	e782      	b.n	8006e7c <engineProcess+0x1b8>
 8006f76:	bf00      	nop
 8006f78:	20000e44 	.word	0x20000e44
 8006f7c:	20000e14 	.word	0x20000e14
 8006f80:	20000e24 	.word	0x20000e24
 8006f84:	20001134 	.word	0x20001134
 8006f88:	2000308c 	.word	0x2000308c
 8006f8c:	2000004c 	.word	0x2000004c
 8006f90:	20000dfc 	.word	0x20000dfc
 8006f94:	447a0000 	.word	0x447a0000
 8006f98:	42653333 	.word	0x42653333
 8006f9c:	bf800000 	.word	0xbf800000
 8006fa0:	20004ff0 	.word	0x20004ff0
 8006fa4:	42b40000 	.word	0x42b40000
 8006fa8:	3c8efa34 	.word	0x3c8efa34
 8006fac:	20000018 	.word	0x20000018
 8006fb0:	43340000 	.word	0x43340000
 8006fb4:	20000020 	.word	0x20000020
 8006fb8:	41200000 	.word	0x41200000
 8006fbc:	200030a4 	.word	0x200030a4
 8006fc0:	20000df4 	.word	0x20000df4
 8006fc4:	20000e3c 	.word	0x20000e3c
 8006fc8:	20000e34 	.word	0x20000e34
 8006fcc:	20000e10 	.word	0x20000e10
 8006fd0:	20000e4c 	.word	0x20000e4c
 8006fd4:	20000e68 	.word	0x20000e68
 8006fd8:	20000e64 	.word	0x20000e64
 8006fdc:	20000df0 	.word	0x20000df0
 8006fe0:	20000dec 	.word	0x20000dec
 8006fe4:	20000e08 	.word	0x20000e08
 8006fe8:	20000e50 	.word	0x20000e50
 8006fec:	20003098 	.word	0x20003098
 8006ff0:	2000001c 	.word	0x2000001c
 8006ff4:	20000de8 	.word	0x20000de8
 8006ff8:	20000e38 	.word	0x20000e38
 8006ffc:	200020e0 	.word	0x200020e0
 8007000:	20000e54 	.word	0x20000e54
 8007004:	20000e48 	.word	0x20000e48
 8007008:	20000de4 	.word	0x20000de4
 800700c:	20004048 	.word	0x20004048
 8007010:	4a9a      	ldr	r2, [pc, #616]	; (800727c <engineProcess+0x5b8>)
 8007012:	682b      	ldr	r3, [r5, #0]
 8007014:	6812      	ldr	r2, [r2, #0]
 8007016:	6820      	ldr	r0, [r4, #0]
 8007018:	f8cd c034 	str.w	ip, [sp, #52]	; 0x34
 800701c:	920f      	str	r2, [sp, #60]	; 0x3c
 800701e:	930e      	str	r3, [sp, #56]	; 0x38
 8007020:	f000 fe58 	bl	8007cd4 <Rad2Deg>
 8007024:	4601      	mov	r1, r0
 8007026:	6860      	ldr	r0, [r4, #4]
 8007028:	9110      	str	r1, [sp, #64]	; 0x40
 800702a:	f000 fe53 	bl	8007cd4 <Rad2Deg>
 800702e:	4605      	mov	r5, r0
 8007030:	68a0      	ldr	r0, [r4, #8]
 8007032:	f000 fe4f 	bl	8007cd4 <Rad2Deg>
 8007036:	9910      	ldr	r1, [sp, #64]	; 0x40
 8007038:	4604      	mov	r4, r0
 800703a:	4608      	mov	r0, r1
 800703c:	f7fd fa38 	bl	80044b0 <__aeabi_f2d>
 8007040:	e9cd 0100 	strd	r0, r1, [sp]
 8007044:	4628      	mov	r0, r5
 8007046:	f7fd fa33 	bl	80044b0 <__aeabi_f2d>
 800704a:	e9cd 0102 	strd	r0, r1, [sp, #8]
 800704e:	4620      	mov	r0, r4
 8007050:	f7fd fa2e 	bl	80044b0 <__aeabi_f2d>
 8007054:	9b0e      	ldr	r3, [sp, #56]	; 0x38
 8007056:	e9cd 0104 	strd	r0, r1, [sp, #16]
 800705a:	9a0f      	ldr	r2, [sp, #60]	; 0x3c
 800705c:	4619      	mov	r1, r3
 800705e:	4888      	ldr	r0, [pc, #544]	; (8007280 <engineProcess+0x5bc>)
 8007060:	f001 fa50 	bl	8008504 <print>
 8007064:	4b87      	ldr	r3, [pc, #540]	; (8007284 <engineProcess+0x5c0>)
 8007066:	f8dd c034 	ldr.w	ip, [sp, #52]	; 0x34
 800706a:	681b      	ldr	r3, [r3, #0]
 800706c:	2b00      	cmp	r3, #0
 800706e:	f43f af50 	beq.w	8006f12 <engineProcess+0x24e>
 8007072:	9811      	ldr	r0, [sp, #68]	; 0x44
 8007074:	f8cd c034 	str.w	ip, [sp, #52]	; 0x34
 8007078:	f7fd fa1a 	bl	80044b0 <__aeabi_f2d>
 800707c:	4c82      	ldr	r4, [pc, #520]	; (8007288 <engineProcess+0x5c4>)
 800707e:	4602      	mov	r2, r0
 8007080:	6820      	ldr	r0, [r4, #0]
 8007082:	920f      	str	r2, [sp, #60]	; 0x3c
 8007084:	910e      	str	r1, [sp, #56]	; 0x38
 8007086:	f7fd fa13 	bl	80044b0 <__aeabi_f2d>
 800708a:	e9cd 0100 	strd	r0, r1, [sp]
 800708e:	6860      	ldr	r0, [r4, #4]
 8007090:	f7fd fa0e 	bl	80044b0 <__aeabi_f2d>
 8007094:	e9cd 0102 	strd	r0, r1, [sp, #8]
 8007098:	68a0      	ldr	r0, [r4, #8]
 800709a:	f7fd fa09 	bl	80044b0 <__aeabi_f2d>
 800709e:	e9cd 0104 	strd	r0, r1, [sp, #16]
 80070a2:	4c7a      	ldr	r4, [pc, #488]	; (800728c <engineProcess+0x5c8>)
 80070a4:	6820      	ldr	r0, [r4, #0]
 80070a6:	f7fd fa03 	bl	80044b0 <__aeabi_f2d>
 80070aa:	e9cd 0106 	strd	r0, r1, [sp, #24]
 80070ae:	6860      	ldr	r0, [r4, #4]
 80070b0:	f7fd f9fe 	bl	80044b0 <__aeabi_f2d>
 80070b4:	e9cd 0108 	strd	r0, r1, [sp, #32]
 80070b8:	68a0      	ldr	r0, [r4, #8]
 80070ba:	f7fd f9f9 	bl	80044b0 <__aeabi_f2d>
 80070be:	9b0e      	ldr	r3, [sp, #56]	; 0x38
 80070c0:	e9cd 010a 	strd	r0, r1, [sp, #40]	; 0x28
 80070c4:	9a0f      	ldr	r2, [sp, #60]	; 0x3c
 80070c6:	4872      	ldr	r0, [pc, #456]	; (8007290 <engineProcess+0x5cc>)
 80070c8:	f001 fa1c 	bl	8008504 <print>
 80070cc:	4b71      	ldr	r3, [pc, #452]	; (8007294 <engineProcess+0x5d0>)
 80070ce:	f8dd c034 	ldr.w	ip, [sp, #52]	; 0x34
 80070d2:	681b      	ldr	r3, [r3, #0]
 80070d4:	2b00      	cmp	r3, #0
 80070d6:	f43f af21 	beq.w	8006f1c <engineProcess+0x258>
 80070da:	f8cd c034 	str.w	ip, [sp, #52]	; 0x34
 80070de:	f001 fa8f 	bl	8008600 <GetIdlePerf>
 80070e2:	f7fd f9e5 	bl	80044b0 <__aeabi_f2d>
 80070e6:	f8dd c034 	ldr.w	ip, [sp, #52]	; 0x34
 80070ea:	460b      	mov	r3, r1
 80070ec:	f8dc 1000 	ldr.w	r1, [ip]
 80070f0:	4602      	mov	r2, r0
 80070f2:	9100      	str	r1, [sp, #0]
 80070f4:	9912      	ldr	r1, [sp, #72]	; 0x48
 80070f6:	f8cd b010 	str.w	fp, [sp, #16]
 80070fa:	9101      	str	r1, [sp, #4]
 80070fc:	9913      	ldr	r1, [sp, #76]	; 0x4c
 80070fe:	4866      	ldr	r0, [pc, #408]	; (8007298 <engineProcess+0x5d4>)
 8007100:	9102      	str	r1, [sp, #8]
 8007102:	9914      	ldr	r1, [sp, #80]	; 0x50
 8007104:	9103      	str	r1, [sp, #12]
 8007106:	9915      	ldr	r1, [sp, #84]	; 0x54
 8007108:	9105      	str	r1, [sp, #20]
 800710a:	f001 f9fb 	bl	8008504 <print>
 800710e:	4b63      	ldr	r3, [pc, #396]	; (800729c <engineProcess+0x5d8>)
 8007110:	681b      	ldr	r3, [r3, #0]
 8007112:	2b00      	cmp	r3, #0
 8007114:	f43f af07 	beq.w	8006f26 <engineProcess+0x262>
 8007118:	f8df a1cc 	ldr.w	sl, [pc, #460]	; 80072e8 <engineProcess+0x624>
 800711c:	f8da 0000 	ldr.w	r0, [sl]
 8007120:	f7fd f9c6 	bl	80044b0 <__aeabi_f2d>
 8007124:	4604      	mov	r4, r0
 8007126:	f8da 0004 	ldr.w	r0, [sl, #4]
 800712a:	460d      	mov	r5, r1
 800712c:	f7fd f9c0 	bl	80044b0 <__aeabi_f2d>
 8007130:	e9cd 0100 	strd	r0, r1, [sp]
 8007134:	f8da 0008 	ldr.w	r0, [sl, #8]
 8007138:	f7fd f9ba 	bl	80044b0 <__aeabi_f2d>
 800713c:	e9cd 0102 	strd	r0, r1, [sp, #8]
 8007140:	6830      	ldr	r0, [r6, #0]
 8007142:	f7fd f9b5 	bl	80044b0 <__aeabi_f2d>
 8007146:	e9cd 0104 	strd	r0, r1, [sp, #16]
 800714a:	6870      	ldr	r0, [r6, #4]
 800714c:	f7fd f9b0 	bl	80044b0 <__aeabi_f2d>
 8007150:	e9cd 0106 	strd	r0, r1, [sp, #24]
 8007154:	68b0      	ldr	r0, [r6, #8]
 8007156:	f7fd f9ab 	bl	80044b0 <__aeabi_f2d>
 800715a:	462b      	mov	r3, r5
 800715c:	e9cd 0108 	strd	r0, r1, [sp, #32]
 8007160:	4622      	mov	r2, r4
 8007162:	484f      	ldr	r0, [pc, #316]	; (80072a0 <engineProcess+0x5dc>)
 8007164:	f001 f9ce 	bl	8008504 <print>
 8007168:	4b4e      	ldr	r3, [pc, #312]	; (80072a4 <engineProcess+0x5e0>)
 800716a:	681b      	ldr	r3, [r3, #0]
 800716c:	2b00      	cmp	r3, #0
 800716e:	f43f aedf 	beq.w	8006f30 <engineProcess+0x26c>
 8007172:	f8d9 0000 	ldr.w	r0, [r9]
 8007176:	f7fd f99b 	bl	80044b0 <__aeabi_f2d>
 800717a:	4604      	mov	r4, r0
 800717c:	f8d8 0000 	ldr.w	r0, [r8]
 8007180:	460d      	mov	r5, r1
 8007182:	f7fd f995 	bl	80044b0 <__aeabi_f2d>
 8007186:	e9cd 0100 	strd	r0, r1, [sp]
 800718a:	4b47      	ldr	r3, [pc, #284]	; (80072a8 <engineProcess+0x5e4>)
 800718c:	6818      	ldr	r0, [r3, #0]
 800718e:	f7fd f98f 	bl	80044b0 <__aeabi_f2d>
 8007192:	462b      	mov	r3, r5
 8007194:	e9cd 0102 	strd	r0, r1, [sp, #8]
 8007198:	4622      	mov	r2, r4
 800719a:	4844      	ldr	r0, [pc, #272]	; (80072ac <engineProcess+0x5e8>)
 800719c:	f001 f9b2 	bl	8008504 <print>
 80071a0:	4b43      	ldr	r3, [pc, #268]	; (80072b0 <engineProcess+0x5ec>)
 80071a2:	681b      	ldr	r3, [r3, #0]
 80071a4:	2b00      	cmp	r3, #0
 80071a6:	f43f aec8 	beq.w	8006f3a <engineProcess+0x276>
 80071aa:	4c42      	ldr	r4, [pc, #264]	; (80072b4 <engineProcess+0x5f0>)
 80071ac:	4b42      	ldr	r3, [pc, #264]	; (80072b8 <engineProcess+0x5f4>)
 80071ae:	68a2      	ldr	r2, [r4, #8]
 80071b0:	4842      	ldr	r0, [pc, #264]	; (80072bc <engineProcess+0x5f8>)
 80071b2:	f8d3 8000 	ldr.w	r8, [r3]
 80071b6:	685e      	ldr	r6, [r3, #4]
 80071b8:	689d      	ldr	r5, [r3, #8]
 80071ba:	f8d0 a000 	ldr.w	sl, [r0]
 80071be:	e894 0808 	ldmia.w	r4, {r3, fp}
 80071c2:	f8d0 9004 	ldr.w	r9, [r0, #4]
 80071c6:	6884      	ldr	r4, [r0, #8]
 80071c8:	920f      	str	r2, [sp, #60]	; 0x3c
 80071ca:	930e      	str	r3, [sp, #56]	; 0x38
 80071cc:	f7ff fac0 	bl	8006750 <usbOverrun>
 80071d0:	9b0e      	ldr	r3, [sp, #56]	; 0x38
 80071d2:	9a0f      	ldr	r2, [sp, #60]	; 0x3c
 80071d4:	e88d 0808 	stmia.w	sp, {r3, fp}
 80071d8:	9202      	str	r2, [sp, #8]
 80071da:	462b      	mov	r3, r5
 80071dc:	9006      	str	r0, [sp, #24]
 80071de:	f8cd a00c 	str.w	sl, [sp, #12]
 80071e2:	f8cd 9010 	str.w	r9, [sp, #16]
 80071e6:	9405      	str	r4, [sp, #20]
 80071e8:	4641      	mov	r1, r8
 80071ea:	4632      	mov	r2, r6
 80071ec:	4834      	ldr	r0, [pc, #208]	; (80072c0 <engineProcess+0x5fc>)
 80071ee:	f001 f989 	bl	8008504 <print>
 80071f2:	4b34      	ldr	r3, [pc, #208]	; (80072c4 <engineProcess+0x600>)
 80071f4:	681b      	ldr	r3, [r3, #0]
 80071f6:	2b00      	cmp	r3, #0
 80071f8:	f43f aea4 	beq.w	8006f44 <engineProcess+0x280>
 80071fc:	4e32      	ldr	r6, [pc, #200]	; (80072c8 <engineProcess+0x604>)
 80071fe:	6870      	ldr	r0, [r6, #4]
 8007200:	f7fd f956 	bl	80044b0 <__aeabi_f2d>
 8007204:	4604      	mov	r4, r0
 8007206:	6830      	ldr	r0, [r6, #0]
 8007208:	460d      	mov	r5, r1
 800720a:	f7fd f951 	bl	80044b0 <__aeabi_f2d>
 800720e:	e9cd 0100 	strd	r0, r1, [sp]
 8007212:	68b0      	ldr	r0, [r6, #8]
 8007214:	f7fd f94c 	bl	80044b0 <__aeabi_f2d>
 8007218:	e9cd 0102 	strd	r0, r1, [sp, #8]
 800721c:	4b2b      	ldr	r3, [pc, #172]	; (80072cc <engineProcess+0x608>)
 800721e:	6818      	ldr	r0, [r3, #0]
 8007220:	f7fd f946 	bl	80044b0 <__aeabi_f2d>
 8007224:	462b      	mov	r3, r5
 8007226:	e9cd 0104 	strd	r0, r1, [sp, #16]
 800722a:	4622      	mov	r2, r4
 800722c:	4828      	ldr	r0, [pc, #160]	; (80072d0 <engineProcess+0x60c>)
 800722e:	f001 f969 	bl	8008504 <print>
 8007232:	4b28      	ldr	r3, [pc, #160]	; (80072d4 <engineProcess+0x610>)
 8007234:	681b      	ldr	r3, [r3, #0]
 8007236:	2b00      	cmp	r3, #0
 8007238:	f43f ae89 	beq.w	8006f4e <engineProcess+0x28a>
 800723c:	4e26      	ldr	r6, [pc, #152]	; (80072d8 <engineProcess+0x614>)
 800723e:	4927      	ldr	r1, [pc, #156]	; (80072dc <engineProcess+0x618>)
 8007240:	6870      	ldr	r0, [r6, #4]
 8007242:	f7fd fc9f 	bl	8004b84 <__aeabi_fsub>
 8007246:	f7fd f933 	bl	80044b0 <__aeabi_f2d>
 800724a:	4604      	mov	r4, r0
 800724c:	6830      	ldr	r0, [r6, #0]
 800724e:	460d      	mov	r5, r1
 8007250:	f7fd f92e 	bl	80044b0 <__aeabi_f2d>
 8007254:	e9cd 0100 	strd	r0, r1, [sp]
 8007258:	4921      	ldr	r1, [pc, #132]	; (80072e0 <engineProcess+0x61c>)
 800725a:	68b0      	ldr	r0, [r6, #8]
 800725c:	f7fd fc92 	bl	8004b84 <__aeabi_fsub>
 8007260:	f7fd f926 	bl	80044b0 <__aeabi_f2d>
 8007264:	4622      	mov	r2, r4
 8007266:	e9cd 0102 	strd	r0, r1, [sp, #8]
 800726a:	462b      	mov	r3, r5
 800726c:	481d      	ldr	r0, [pc, #116]	; (80072e4 <engineProcess+0x620>)
 800726e:	f001 f949 	bl	8008504 <print>
 8007272:	e66c      	b.n	8006f4e <engineProcess+0x28a>
 8007274:	f8df 9074 	ldr.w	r9, [pc, #116]	; 80072ec <engineProcess+0x628>
 8007278:	e57c      	b.n	8006d74 <engineProcess+0xb0>
 800727a:	bf00      	nop
 800727c:	20000f18 	.word	0x20000f18
 8007280:	0800efb8 	.word	0x0800efb8
 8007284:	20000e4c 	.word	0x20000e4c
 8007288:	20000e14 	.word	0x20000e14
 800728c:	20000e24 	.word	0x20000e24
 8007290:	0800f000 	.word	0x0800f000
 8007294:	20000e68 	.word	0x20000e68
 8007298:	0800f04c 	.word	0x0800f04c
 800729c:	20000e64 	.word	0x20000e64
 80072a0:	0800f0b0 	.word	0x0800f0b0
 80072a4:	20000df0 	.word	0x20000df0
 80072a8:	20000df4 	.word	0x20000df4
 80072ac:	0800f110 	.word	0x0800f110
 80072b0:	20000dec 	.word	0x20000dec
 80072b4:	20004ff8 	.word	0x20004ff8
 80072b8:	20005004 	.word	0x20005004
 80072bc:	20005010 	.word	0x20005010
 80072c0:	0800f158 	.word	0x0800f158
 80072c4:	20000e08 	.word	0x20000e08
 80072c8:	20003098 	.word	0x20003098
 80072cc:	20000df8 	.word	0x20000df8
 80072d0:	0800f1b0 	.word	0x0800f1b0
 80072d4:	20000e50 	.word	0x20000e50
 80072d8:	200020e0 	.word	0x200020e0
 80072dc:	42b40000 	.word	0x42b40000
 80072e0:	43340000 	.word	0x43340000
 80072e4:	0800f200 	.word	0x0800f200
 80072e8:	20000e54 	.word	0x20000e54
 80072ec:	bf800000 	.word	0xbf800000
 80072f0:	4e10      	ldr	r6, [pc, #64]	; (8007334 <engineProcess+0x670>)
 80072f2:	4911      	ldr	r1, [pc, #68]	; (8007338 <engineProcess+0x674>)
 80072f4:	4630      	mov	r0, r6
 80072f6:	f001 fc23 	bl	8008b40 <Get_RC_Step>
 80072fa:	f8d4 8004 	ldr.w	r8, [r4, #4]
 80072fe:	490f      	ldr	r1, [pc, #60]	; (800733c <engineProcess+0x678>)
 8007300:	4640      	mov	r0, r8
 8007302:	f8d6 9004 	ldr.w	r9, [r6, #4]
 8007306:	f7fd fee5 	bl	80050d4 <__aeabi_fcmplt>
 800730a:	b120      	cbz	r0, 8007316 <engineProcess+0x652>
 800730c:	4648      	mov	r0, r9
 800730e:	2100      	movs	r1, #0
 8007310:	f7fd fefe 	bl	8005110 <__aeabi_fcmpgt>
 8007314:	b948      	cbnz	r0, 800732a <engineProcess+0x666>
 8007316:	4640      	mov	r0, r8
 8007318:	4909      	ldr	r1, [pc, #36]	; (8007340 <engineProcess+0x67c>)
 800731a:	f7fd fef9 	bl	8005110 <__aeabi_fcmpgt>
 800731e:	b130      	cbz	r0, 800732e <engineProcess+0x66a>
 8007320:	4648      	mov	r0, r9
 8007322:	2100      	movs	r1, #0
 8007324:	f7fd fed6 	bl	80050d4 <__aeabi_fcmplt>
 8007328:	b108      	cbz	r0, 800732e <engineProcess+0x66a>
 800732a:	f04f 0900 	mov.w	r9, #0
 800732e:	f8c6 9004 	str.w	r9, [r6, #4]
 8007332:	e4fa      	b.n	8006d2a <engineProcess+0x66>
 8007334:	20000dfc 	.word	0x20000dfc
 8007338:	20000e54 	.word	0x20000e54
 800733c:	bf5f66f1 	.word	0xbf5f66f1
 8007340:	3fc90fd9 	.word	0x3fc90fd9

08007344 <CommHandler>:
 8007344:	e92d 41f0 	stmdb	sp!, {r4, r5, r6, r7, r8, lr}
 8007348:	f001 f8fe 	bl	8008548 <GetChar>
 800734c:	1e04      	subs	r4, r0, #0
 800734e:	db03      	blt.n	8007358 <CommHandler+0x14>
 8007350:	f000 fc62 	bl	8007c18 <LEDon>
 8007354:	2c24      	cmp	r4, #36	; 0x24
 8007356:	d001      	beq.n	800735c <CommHandler+0x18>
 8007358:	e8bd 81f0 	ldmia.w	sp!, {r4, r5, r6, r7, r8, pc}
 800735c:	f001 f91c 	bl	8008598 <CharAvailable>
 8007360:	2809      	cmp	r0, #9
 8007362:	dd1a      	ble.n	800739a <CommHandler+0x56>
 8007364:	2700      	movs	r7, #0
 8007366:	2501      	movs	r5, #1
 8007368:	46b8      	mov	r8, r7
 800736a:	463e      	mov	r6, r7
 800736c:	2400      	movs	r4, #0
 800736e:	f001 f8eb 	bl	8008548 <GetChar>
 8007372:	3830      	subs	r0, #48	; 0x30
 8007374:	f7fd fcbc 	bl	8004cf0 <__aeabi_i2f>
 8007378:	2c02      	cmp	r4, #2
 800737a:	4601      	mov	r1, r0
 800737c:	dd12      	ble.n	80073a4 <CommHandler+0x60>
 800737e:	1ee3      	subs	r3, r4, #3
 8007380:	2b02      	cmp	r3, #2
 8007382:	d925      	bls.n	80073d0 <CommHandler+0x8c>
 8007384:	2c09      	cmp	r4, #9
 8007386:	d154      	bne.n	8007432 <CommHandler+0xee>
 8007388:	f7fd fecc 	bl	8005124 <__aeabi_f2iz>
 800738c:	280b      	cmp	r0, #11
 800738e:	d028      	beq.n	80073e2 <CommHandler+0x9e>
 8007390:	2d0a      	cmp	r5, #10
 8007392:	d010      	beq.n	80073b6 <CommHandler+0x72>
 8007394:	3401      	adds	r4, #1
 8007396:	3501      	adds	r5, #1
 8007398:	e7e9      	b.n	800736e <CommHandler+0x2a>
 800739a:	4620      	mov	r0, r4
 800739c:	e8bd 41f0 	ldmia.w	sp!, {r4, r5, r6, r7, r8, lr}
 80073a0:	f001 b8cc 	b.w	800853c <UnGetChar>
 80073a4:	b14c      	cbz	r4, 80073ba <CommHandler+0x76>
 80073a6:	2c01      	cmp	r4, #1
 80073a8:	d010      	beq.n	80073cc <CommHandler+0x88>
 80073aa:	4630      	mov	r0, r6
 80073ac:	f7fd fbec 	bl	8004b88 <__addsf3>
 80073b0:	2d0a      	cmp	r5, #10
 80073b2:	4606      	mov	r6, r0
 80073b4:	d1ee      	bne.n	8007394 <CommHandler+0x50>
 80073b6:	e8bd 81f0 	ldmia.w	sp!, {r4, r5, r6, r7, r8, pc}
 80073ba:	492d      	ldr	r1, [pc, #180]	; (8007470 <CommHandler+0x12c>)
 80073bc:	f7fd fcec 	bl	8004d98 <__aeabi_fmul>
 80073c0:	4601      	mov	r1, r0
 80073c2:	4630      	mov	r0, r6
 80073c4:	f7fd fbe0 	bl	8004b88 <__addsf3>
 80073c8:	4606      	mov	r6, r0
 80073ca:	e7e3      	b.n	8007394 <CommHandler+0x50>
 80073cc:	4929      	ldr	r1, [pc, #164]	; (8007474 <CommHandler+0x130>)
 80073ce:	e7f5      	b.n	80073bc <CommHandler+0x78>
 80073d0:	2c03      	cmp	r4, #3
 80073d2:	d040      	beq.n	8007456 <CommHandler+0x112>
 80073d4:	2c04      	cmp	r4, #4
 80073d6:	d035      	beq.n	8007444 <CommHandler+0x100>
 80073d8:	4640      	mov	r0, r8
 80073da:	f7fd fbd5 	bl	8004b88 <__addsf3>
 80073de:	4680      	mov	r8, r0
 80073e0:	e7d6      	b.n	8007390 <CommHandler+0x4c>
 80073e2:	4630      	mov	r0, r6
 80073e4:	4924      	ldr	r1, [pc, #144]	; (8007478 <CommHandler+0x134>)
 80073e6:	f7fd fe89 	bl	80050fc <__aeabi_fcmpge>
 80073ea:	b130      	cbz	r0, 80073fa <CommHandler+0xb6>
 80073ec:	4630      	mov	r0, r6
 80073ee:	4923      	ldr	r1, [pc, #140]	; (800747c <CommHandler+0x138>)
 80073f0:	f7fd fe7a 	bl	80050e8 <__aeabi_fcmple>
 80073f4:	b108      	cbz	r0, 80073fa <CommHandler+0xb6>
 80073f6:	4b22      	ldr	r3, [pc, #136]	; (8007480 <CommHandler+0x13c>)
 80073f8:	605e      	str	r6, [r3, #4]
 80073fa:	4640      	mov	r0, r8
 80073fc:	2100      	movs	r1, #0
 80073fe:	f7fd fe7d 	bl	80050fc <__aeabi_fcmpge>
 8007402:	b138      	cbz	r0, 8007414 <CommHandler+0xd0>
 8007404:	4640      	mov	r0, r8
 8007406:	491f      	ldr	r1, [pc, #124]	; (8007484 <CommHandler+0x140>)
 8007408:	f7fd fe6e 	bl	80050e8 <__aeabi_fcmple>
 800740c:	b110      	cbz	r0, 8007414 <CommHandler+0xd0>
 800740e:	4b1c      	ldr	r3, [pc, #112]	; (8007480 <CommHandler+0x13c>)
 8007410:	f8c3 8000 	str.w	r8, [r3]
 8007414:	4638      	mov	r0, r7
 8007416:	2100      	movs	r1, #0
 8007418:	f7fd fe70 	bl	80050fc <__aeabi_fcmpge>
 800741c:	2800      	cmp	r0, #0
 800741e:	d0b7      	beq.n	8007390 <CommHandler+0x4c>
 8007420:	4638      	mov	r0, r7
 8007422:	4919      	ldr	r1, [pc, #100]	; (8007488 <CommHandler+0x144>)
 8007424:	f7fd fe60 	bl	80050e8 <__aeabi_fcmple>
 8007428:	2800      	cmp	r0, #0
 800742a:	d0b1      	beq.n	8007390 <CommHandler+0x4c>
 800742c:	4b14      	ldr	r3, [pc, #80]	; (8007480 <CommHandler+0x13c>)
 800742e:	609f      	str	r7, [r3, #8]
 8007430:	e7ae      	b.n	8007390 <CommHandler+0x4c>
 8007432:	2c06      	cmp	r4, #6
 8007434:	d01a      	beq.n	800746c <CommHandler+0x128>
 8007436:	2c07      	cmp	r4, #7
 8007438:	d00f      	beq.n	800745a <CommHandler+0x116>
 800743a:	4638      	mov	r0, r7
 800743c:	f7fd fba4 	bl	8004b88 <__addsf3>
 8007440:	4607      	mov	r7, r0
 8007442:	e7a5      	b.n	8007390 <CommHandler+0x4c>
 8007444:	490b      	ldr	r1, [pc, #44]	; (8007474 <CommHandler+0x130>)
 8007446:	f7fd fca7 	bl	8004d98 <__aeabi_fmul>
 800744a:	4601      	mov	r1, r0
 800744c:	4640      	mov	r0, r8
 800744e:	f7fd fb9b 	bl	8004b88 <__addsf3>
 8007452:	4680      	mov	r8, r0
 8007454:	e79e      	b.n	8007394 <CommHandler+0x50>
 8007456:	4906      	ldr	r1, [pc, #24]	; (8007470 <CommHandler+0x12c>)
 8007458:	e7f5      	b.n	8007446 <CommHandler+0x102>
 800745a:	4906      	ldr	r1, [pc, #24]	; (8007474 <CommHandler+0x130>)
 800745c:	f7fd fc9c 	bl	8004d98 <__aeabi_fmul>
 8007460:	4601      	mov	r1, r0
 8007462:	4638      	mov	r0, r7
 8007464:	f7fd fb90 	bl	8004b88 <__addsf3>
 8007468:	4607      	mov	r7, r0
 800746a:	e793      	b.n	8007394 <CommHandler+0x50>
 800746c:	4900      	ldr	r1, [pc, #0]	; (8007470 <CommHandler+0x12c>)
 800746e:	e7f5      	b.n	800745c <CommHandler+0x118>
 8007470:	42c80000 	.word	0x42c80000
 8007474:	41200000 	.word	0x41200000
 8007478:	41f00000 	.word	0x41f00000
 800747c:	430c0000 	.word	0x430c0000
 8007480:	200020e0 	.word	0x200020e0
 8007484:	43340000 	.word	0x43340000
 8007488:	43b40000 	.word	0x43b40000

0800748c <SystemCoreClockUpdate>:
 800748c:	4b11      	ldr	r3, [pc, #68]	; (80074d4 <SystemCoreClockUpdate+0x48>)
 800748e:	685a      	ldr	r2, [r3, #4]
 8007490:	f002 020c 	and.w	r2, r2, #12
 8007494:	2a08      	cmp	r2, #8
 8007496:	d10e      	bne.n	80074b6 <SystemCoreClockUpdate+0x2a>
 8007498:	685a      	ldr	r2, [r3, #4]
 800749a:	6859      	ldr	r1, [r3, #4]
 800749c:	f3c2 4283 	ubfx	r2, r2, #18, #4
 80074a0:	03c9      	lsls	r1, r1, #15
 80074a2:	f102 0202 	add.w	r2, r2, #2
 80074a6:	d511      	bpl.n	80074cc <SystemCoreClockUpdate+0x40>
 80074a8:	685b      	ldr	r3, [r3, #4]
 80074aa:	039b      	lsls	r3, r3, #14
 80074ac:	d40e      	bmi.n	80074cc <SystemCoreClockUpdate+0x40>
 80074ae:	4b0a      	ldr	r3, [pc, #40]	; (80074d8 <SystemCoreClockUpdate+0x4c>)
 80074b0:	fb03 f202 	mul.w	r2, r3, r2
 80074b4:	e000      	b.n	80074b8 <SystemCoreClockUpdate+0x2c>
 80074b6:	4a08      	ldr	r2, [pc, #32]	; (80074d8 <SystemCoreClockUpdate+0x4c>)
 80074b8:	4b06      	ldr	r3, [pc, #24]	; (80074d4 <SystemCoreClockUpdate+0x48>)
 80074ba:	4808      	ldr	r0, [pc, #32]	; (80074dc <SystemCoreClockUpdate+0x50>)
 80074bc:	6859      	ldr	r1, [r3, #4]
 80074be:	4b08      	ldr	r3, [pc, #32]	; (80074e0 <SystemCoreClockUpdate+0x54>)
 80074c0:	f3c1 1103 	ubfx	r1, r1, #4, #4
 80074c4:	5c41      	ldrb	r1, [r0, r1]
 80074c6:	40ca      	lsrs	r2, r1
 80074c8:	601a      	str	r2, [r3, #0]
 80074ca:	4770      	bx	lr
 80074cc:	4b05      	ldr	r3, [pc, #20]	; (80074e4 <SystemCoreClockUpdate+0x58>)
 80074ce:	fb03 f202 	mul.w	r2, r3, r2
 80074d2:	e7f1      	b.n	80074b8 <SystemCoreClockUpdate+0x2c>
 80074d4:	40021000 	.word	0x40021000
 80074d8:	007a1200 	.word	0x007a1200
 80074dc:	20000024 	.word	0x20000024
 80074e0:	20000034 	.word	0x20000034
 80074e4:	003d0900 	.word	0x003d0900

080074e8 <SystemInit>:
 80074e8:	4b49      	ldr	r3, [pc, #292]	; (8007610 <SystemInit+0x128>)
 80074ea:	b510      	push	{r4, lr}
 80074ec:	6819      	ldr	r1, [r3, #0]
 80074ee:	4a49      	ldr	r2, [pc, #292]	; (8007614 <SystemInit+0x12c>)
 80074f0:	f041 0101 	orr.w	r1, r1, #1
 80074f4:	6019      	str	r1, [r3, #0]
 80074f6:	6859      	ldr	r1, [r3, #4]
 80074f8:	b082      	sub	sp, #8
 80074fa:	400a      	ands	r2, r1
 80074fc:	605a      	str	r2, [r3, #4]
 80074fe:	6819      	ldr	r1, [r3, #0]
 8007500:	2000      	movs	r0, #0
 8007502:	f021 7184 	bic.w	r1, r1, #17301504	; 0x1080000
 8007506:	f421 3180 	bic.w	r1, r1, #65536	; 0x10000
 800750a:	6019      	str	r1, [r3, #0]
 800750c:	6819      	ldr	r1, [r3, #0]
 800750e:	f44f 041f 	mov.w	r4, #10420224	; 0x9f0000
 8007512:	f421 2180 	bic.w	r1, r1, #262144	; 0x40000
 8007516:	6019      	str	r1, [r3, #0]
 8007518:	6859      	ldr	r1, [r3, #4]
 800751a:	461a      	mov	r2, r3
 800751c:	f421 01fe 	bic.w	r1, r1, #8323072	; 0x7f0000
 8007520:	6059      	str	r1, [r3, #4]
 8007522:	609c      	str	r4, [r3, #8]
 8007524:	9000      	str	r0, [sp, #0]
 8007526:	9001      	str	r0, [sp, #4]
 8007528:	6819      	ldr	r1, [r3, #0]
 800752a:	f441 3180 	orr.w	r1, r1, #65536	; 0x10000
 800752e:	6019      	str	r1, [r3, #0]
 8007530:	e003      	b.n	800753a <SystemInit+0x52>
 8007532:	9b00      	ldr	r3, [sp, #0]
 8007534:	f5b3 6fa0 	cmp.w	r3, #1280	; 0x500
 8007538:	d009      	beq.n	800754e <SystemInit+0x66>
 800753a:	6813      	ldr	r3, [r2, #0]
 800753c:	f403 3300 	and.w	r3, r3, #131072	; 0x20000
 8007540:	9301      	str	r3, [sp, #4]
 8007542:	9b00      	ldr	r3, [sp, #0]
 8007544:	3301      	adds	r3, #1
 8007546:	9300      	str	r3, [sp, #0]
 8007548:	9b01      	ldr	r3, [sp, #4]
 800754a:	2b00      	cmp	r3, #0
 800754c:	d0f1      	beq.n	8007532 <SystemInit+0x4a>
 800754e:	4b30      	ldr	r3, [pc, #192]	; (8007610 <SystemInit+0x128>)
 8007550:	4a31      	ldr	r2, [pc, #196]	; (8007618 <SystemInit+0x130>)
 8007552:	681b      	ldr	r3, [r3, #0]
 8007554:	f413 3300 	ands.w	r3, r3, #131072	; 0x20000
 8007558:	bf18      	it	ne
 800755a:	2301      	movne	r3, #1
 800755c:	9301      	str	r3, [sp, #4]
 800755e:	9b01      	ldr	r3, [sp, #4]
 8007560:	6810      	ldr	r0, [r2, #0]
 8007562:	2b01      	cmp	r3, #1
 8007564:	f040 0010 	orr.w	r0, r0, #16
 8007568:	6010      	str	r0, [r2, #0]
 800756a:	6810      	ldr	r0, [r2, #0]
 800756c:	4b28      	ldr	r3, [pc, #160]	; (8007610 <SystemInit+0x128>)
 800756e:	f020 0003 	bic.w	r0, r0, #3
 8007572:	6010      	str	r0, [r2, #0]
 8007574:	6810      	ldr	r0, [r2, #0]
 8007576:	4619      	mov	r1, r3
 8007578:	f040 0002 	orr.w	r0, r0, #2
 800757c:	6010      	str	r0, [r2, #0]
 800757e:	685a      	ldr	r2, [r3, #4]
 8007580:	605a      	str	r2, [r3, #4]
 8007582:	685a      	ldr	r2, [r3, #4]
 8007584:	605a      	str	r2, [r3, #4]
 8007586:	685a      	ldr	r2, [r3, #4]
 8007588:	f442 6280 	orr.w	r2, r2, #1024	; 0x400
 800758c:	605a      	str	r2, [r3, #4]
 800758e:	685a      	ldr	r2, [r3, #4]
 8007590:	f422 127c 	bic.w	r2, r2, #4128768	; 0x3f0000
 8007594:	605a      	str	r2, [r3, #4]
 8007596:	685a      	ldr	r2, [r3, #4]
 8007598:	d01f      	beq.n	80075da <SystemInit+0xf2>
 800759a:	f442 1260 	orr.w	r2, r2, #3670016	; 0x380000
 800759e:	605a      	str	r2, [r3, #4]
 80075a0:	681a      	ldr	r2, [r3, #0]
 80075a2:	f042 7280 	orr.w	r2, r2, #16777216	; 0x1000000
 80075a6:	601a      	str	r2, [r3, #0]
 80075a8:	680b      	ldr	r3, [r1, #0]
 80075aa:	4a19      	ldr	r2, [pc, #100]	; (8007610 <SystemInit+0x128>)
 80075ac:	019b      	lsls	r3, r3, #6
 80075ae:	d5fb      	bpl.n	80075a8 <SystemInit+0xc0>
 80075b0:	6853      	ldr	r3, [r2, #4]
 80075b2:	4611      	mov	r1, r2
 80075b4:	f023 0303 	bic.w	r3, r3, #3
 80075b8:	6053      	str	r3, [r2, #4]
 80075ba:	6853      	ldr	r3, [r2, #4]
 80075bc:	f043 0302 	orr.w	r3, r3, #2
 80075c0:	6053      	str	r3, [r2, #4]
 80075c2:	684b      	ldr	r3, [r1, #4]
 80075c4:	f003 030c 	and.w	r3, r3, #12
 80075c8:	2b08      	cmp	r3, #8
 80075ca:	d1fa      	bne.n	80075c2 <SystemInit+0xda>
 80075cc:	f7ff ff5e 	bl	800748c <SystemCoreClockUpdate>
 80075d0:	4a12      	ldr	r2, [pc, #72]	; (800761c <SystemInit+0x134>)
 80075d2:	4b13      	ldr	r3, [pc, #76]	; (8007620 <SystemInit+0x138>)
 80075d4:	609a      	str	r2, [r3, #8]
 80075d6:	b002      	add	sp, #8
 80075d8:	bd10      	pop	{r4, pc}
 80075da:	f442 12e8 	orr.w	r2, r2, #1900544	; 0x1d0000
 80075de:	605a      	str	r2, [r3, #4]
 80075e0:	681a      	ldr	r2, [r3, #0]
 80075e2:	f042 7280 	orr.w	r2, r2, #16777216	; 0x1000000
 80075e6:	601a      	str	r2, [r3, #0]
 80075e8:	680b      	ldr	r3, [r1, #0]
 80075ea:	4a09      	ldr	r2, [pc, #36]	; (8007610 <SystemInit+0x128>)
 80075ec:	0198      	lsls	r0, r3, #6
 80075ee:	d5fb      	bpl.n	80075e8 <SystemInit+0x100>
 80075f0:	6853      	ldr	r3, [r2, #4]
 80075f2:	4611      	mov	r1, r2
 80075f4:	f023 0303 	bic.w	r3, r3, #3
 80075f8:	6053      	str	r3, [r2, #4]
 80075fa:	6853      	ldr	r3, [r2, #4]
 80075fc:	f043 0302 	orr.w	r3, r3, #2
 8007600:	6053      	str	r3, [r2, #4]
 8007602:	684b      	ldr	r3, [r1, #4]
 8007604:	f003 030c 	and.w	r3, r3, #12
 8007608:	2b08      	cmp	r3, #8
 800760a:	d1fa      	bne.n	8007602 <SystemInit+0x11a>
 800760c:	e7e0      	b.n	80075d0 <SystemInit+0xe8>
 800760e:	bf00      	nop
 8007610:	40021000 	.word	0x40021000
 8007614:	f8ff0000 	.word	0xf8ff0000
 8007618:	40022000 	.word	0x40022000
 800761c:	08004000 	.word	0x08004000
 8007620:	e000ed00 	.word	0xe000ed00

08007624 <RingBufferInit>:
 8007624:	2300      	movs	r3, #0
 8007626:	6003      	str	r3, [r0, #0]
 8007628:	f8c0 120c 	str.w	r1, [r0, #524]	; 0x20c
 800762c:	6043      	str	r3, [r0, #4]
 800762e:	6083      	str	r3, [r0, #8]
 8007630:	4770      	bx	lr
 8007632:	bf00      	nop

08007634 <RingBufferSize>:
 8007634:	f44f 7000 	mov.w	r0, #512	; 0x200
 8007638:	4770      	bx	lr
 800763a:	bf00      	nop

0800763c <RingBufferFillLevel>:
 800763c:	6842      	ldr	r2, [r0, #4]
 800763e:	6803      	ldr	r3, [r0, #0]
 8007640:	4807      	ldr	r0, [pc, #28]	; (8007660 <RingBufferFillLevel+0x24>)
 8007642:	1ad3      	subs	r3, r2, r3
 8007644:	f503 7300 	add.w	r3, r3, #512	; 0x200
 8007648:	4018      	ands	r0, r3
 800764a:	2800      	cmp	r0, #0
 800764c:	db00      	blt.n	8007650 <RingBufferFillLevel+0x14>
 800764e:	4770      	bx	lr
 8007650:	3801      	subs	r0, #1
 8007652:	ea6f 50c0 	mvn.w	r0, r0, lsl #23
 8007656:	ea6f 50d0 	mvn.w	r0, r0, lsr #23
 800765a:	3001      	adds	r0, #1
 800765c:	4770      	bx	lr
 800765e:	bf00      	nop
 8007660:	800001ff 	.word	0x800001ff

08007664 <RingBufferPut>:
 8007664:	b538      	push	{r3, r4, r5, lr}
 8007666:	b332      	cbz	r2, 80076b6 <RingBufferPut+0x52>
 8007668:	f240 15ff 	movw	r5, #511	; 0x1ff
 800766c:	e001      	b.n	8007672 <RingBufferPut+0xe>
 800766e:	42ab      	cmp	r3, r5
 8007670:	d110      	bne.n	8007694 <RingBufferPut+0x30>
 8007672:	6844      	ldr	r4, [r0, #4]
 8007674:	6802      	ldr	r2, [r0, #0]
 8007676:	4b1e      	ldr	r3, [pc, #120]	; (80076f0 <RingBufferPut+0x8c>)
 8007678:	1aa2      	subs	r2, r4, r2
 800767a:	f502 7200 	add.w	r2, r2, #512	; 0x200
 800767e:	4013      	ands	r3, r2
 8007680:	2b00      	cmp	r3, #0
 8007682:	daf4      	bge.n	800766e <RingBufferPut+0xa>
 8007684:	3b01      	subs	r3, #1
 8007686:	ea6f 53c3 	mvn.w	r3, r3, lsl #23
 800768a:	ea6f 53d3 	mvn.w	r3, r3, lsr #23
 800768e:	3301      	adds	r3, #1
 8007690:	42ab      	cmp	r3, r5
 8007692:	d0ee      	beq.n	8007672 <RingBufferPut+0xe>
 8007694:	6844      	ldr	r4, [r0, #4]
 8007696:	6842      	ldr	r2, [r0, #4]
 8007698:	f240 13ff 	movw	r3, #511	; 0x1ff
 800769c:	429a      	cmp	r2, r3
 800769e:	bf16      	itet	ne
 80076a0:	6843      	ldrne	r3, [r0, #4]
 80076a2:	2300      	moveq	r3, #0
 80076a4:	3301      	addne	r3, #1
 80076a6:	4404      	add	r4, r0
 80076a8:	7321      	strb	r1, [r4, #12]
 80076aa:	6043      	str	r3, [r0, #4]
 80076ac:	f8d0 320c 	ldr.w	r3, [r0, #524]	; 0x20c
 80076b0:	b103      	cbz	r3, 80076b4 <RingBufferPut+0x50>
 80076b2:	4798      	blx	r3
 80076b4:	bd38      	pop	{r3, r4, r5, pc}
 80076b6:	6844      	ldr	r4, [r0, #4]
 80076b8:	6802      	ldr	r2, [r0, #0]
 80076ba:	4b0d      	ldr	r3, [pc, #52]	; (80076f0 <RingBufferPut+0x8c>)
 80076bc:	1aa2      	subs	r2, r4, r2
 80076be:	f502 7200 	add.w	r2, r2, #512	; 0x200
 80076c2:	4013      	ands	r3, r2
 80076c4:	2b00      	cmp	r3, #0
 80076c6:	db07      	blt.n	80076d8 <RingBufferPut+0x74>
 80076c8:	f240 12ff 	movw	r2, #511	; 0x1ff
 80076cc:	4293      	cmp	r3, r2
 80076ce:	d1e1      	bne.n	8007694 <RingBufferPut+0x30>
 80076d0:	6883      	ldr	r3, [r0, #8]
 80076d2:	3301      	adds	r3, #1
 80076d4:	6083      	str	r3, [r0, #8]
 80076d6:	bd38      	pop	{r3, r4, r5, pc}
 80076d8:	3b01      	subs	r3, #1
 80076da:	ea6f 53c3 	mvn.w	r3, r3, lsl #23
 80076de:	ea6f 53d3 	mvn.w	r3, r3, lsr #23
 80076e2:	3301      	adds	r3, #1
 80076e4:	f240 12ff 	movw	r2, #511	; 0x1ff
 80076e8:	4293      	cmp	r3, r2
 80076ea:	d1d3      	bne.n	8007694 <RingBufferPut+0x30>
 80076ec:	e7f0      	b.n	80076d0 <RingBufferPut+0x6c>
 80076ee:	bf00      	nop
 80076f0:	800001ff 	.word	0x800001ff

080076f4 <RingBufferPutBlock>:
 80076f4:	b5f8      	push	{r3, r4, r5, r6, r7, lr}
 80076f6:	4604      	mov	r4, r0
 80076f8:	460f      	mov	r7, r1
 80076fa:	4616      	mov	r6, r2
 80076fc:	b9eb      	cbnz	r3, 800773a <RingBufferPutBlock+0x46>
 80076fe:	6841      	ldr	r1, [r0, #4]
 8007700:	6802      	ldr	r2, [r0, #0]
 8007702:	4b2f      	ldr	r3, [pc, #188]	; (80077c0 <RingBufferPutBlock+0xcc>)
 8007704:	1a8a      	subs	r2, r1, r2
 8007706:	f502 7200 	add.w	r2, r2, #512	; 0x200
 800770a:	4013      	ands	r3, r2
 800770c:	2b00      	cmp	r3, #0
 800770e:	db49      	blt.n	80077a4 <RingBufferPutBlock+0xb0>
 8007710:	4433      	add	r3, r6
 8007712:	f5b3 7f00 	cmp.w	r3, #512	; 0x200
 8007716:	db1d      	blt.n	8007754 <RingBufferPutBlock+0x60>
 8007718:	68a2      	ldr	r2, [r4, #8]
 800771a:	f8d4 320c 	ldr.w	r3, [r4, #524]	; 0x20c
 800771e:	4416      	add	r6, r2
 8007720:	60a6      	str	r6, [r4, #8]
 8007722:	bb73      	cbnz	r3, 8007782 <RingBufferPutBlock+0x8e>
 8007724:	e02e      	b.n	8007784 <RingBufferPutBlock+0x90>
 8007726:	3b01      	subs	r3, #1
 8007728:	ea6f 53c3 	mvn.w	r3, r3, lsl #23
 800772c:	ea6f 53d3 	mvn.w	r3, r3, lsr #23
 8007730:	3301      	adds	r3, #1
 8007732:	4433      	add	r3, r6
 8007734:	f5b3 7f00 	cmp.w	r3, #512	; 0x200
 8007738:	db0c      	blt.n	8007754 <RingBufferPutBlock+0x60>
 800773a:	6865      	ldr	r5, [r4, #4]
 800773c:	6820      	ldr	r0, [r4, #0]
 800773e:	4b20      	ldr	r3, [pc, #128]	; (80077c0 <RingBufferPutBlock+0xcc>)
 8007740:	1a28      	subs	r0, r5, r0
 8007742:	f500 7000 	add.w	r0, r0, #512	; 0x200
 8007746:	4003      	ands	r3, r0
 8007748:	2b00      	cmp	r3, #0
 800774a:	dbec      	blt.n	8007726 <RingBufferPutBlock+0x32>
 800774c:	4433      	add	r3, r6
 800774e:	f5b3 7f00 	cmp.w	r3, #512	; 0x200
 8007752:	daf2      	bge.n	800773a <RingBufferPutBlock+0x46>
 8007754:	6865      	ldr	r5, [r4, #4]
 8007756:	6860      	ldr	r0, [r4, #4]
 8007758:	f5c5 7500 	rsb	r5, r5, #512	; 0x200
 800775c:	42ae      	cmp	r6, r5
 800775e:	dd12      	ble.n	8007786 <RingBufferPutBlock+0x92>
 8007760:	4420      	add	r0, r4
 8007762:	1b76      	subs	r6, r6, r5
 8007764:	4639      	mov	r1, r7
 8007766:	462a      	mov	r2, r5
 8007768:	300c      	adds	r0, #12
 800776a:	f7fd fd01 	bl	8005170 <memcpy>
 800776e:	1979      	adds	r1, r7, r5
 8007770:	4632      	mov	r2, r6
 8007772:	f104 000c 	add.w	r0, r4, #12
 8007776:	f7fd fcfb 	bl	8005170 <memcpy>
 800777a:	6066      	str	r6, [r4, #4]
 800777c:	f8d4 320c 	ldr.w	r3, [r4, #524]	; 0x20c
 8007780:	b103      	cbz	r3, 8007784 <RingBufferPutBlock+0x90>
 8007782:	4798      	blx	r3
 8007784:	bdf8      	pop	{r3, r4, r5, r6, r7, pc}
 8007786:	4420      	add	r0, r4
 8007788:	4639      	mov	r1, r7
 800778a:	300c      	adds	r0, #12
 800778c:	4632      	mov	r2, r6
 800778e:	f7fd fcef 	bl	8005170 <memcpy>
 8007792:	6863      	ldr	r3, [r4, #4]
 8007794:	4433      	add	r3, r6
 8007796:	f5b3 7f00 	cmp.w	r3, #512	; 0x200
 800779a:	d00e      	beq.n	80077ba <RingBufferPutBlock+0xc6>
 800779c:	6863      	ldr	r3, [r4, #4]
 800779e:	441e      	add	r6, r3
 80077a0:	6066      	str	r6, [r4, #4]
 80077a2:	e7eb      	b.n	800777c <RingBufferPutBlock+0x88>
 80077a4:	3b01      	subs	r3, #1
 80077a6:	ea6f 53c3 	mvn.w	r3, r3, lsl #23
 80077aa:	ea6f 53d3 	mvn.w	r3, r3, lsr #23
 80077ae:	3301      	adds	r3, #1
 80077b0:	4433      	add	r3, r6
 80077b2:	f5b3 7f00 	cmp.w	r3, #512	; 0x200
 80077b6:	dbcd      	blt.n	8007754 <RingBufferPutBlock+0x60>
 80077b8:	e7ae      	b.n	8007718 <RingBufferPutBlock+0x24>
 80077ba:	2300      	movs	r3, #0
 80077bc:	6063      	str	r3, [r4, #4]
 80077be:	e7dd      	b.n	800777c <RingBufferPutBlock+0x88>
 80077c0:	800001ff 	.word	0x800001ff

080077c4 <RingBufferGet>:
 80077c4:	6801      	ldr	r1, [r0, #0]
 80077c6:	6842      	ldr	r2, [r0, #4]
 80077c8:	4603      	mov	r3, r0
 80077ca:	4291      	cmp	r1, r2
 80077cc:	d00d      	beq.n	80077ea <RingBufferGet+0x26>
 80077ce:	6800      	ldr	r0, [r0, #0]
 80077d0:	6819      	ldr	r1, [r3, #0]
 80077d2:	f240 12ff 	movw	r2, #511	; 0x1ff
 80077d6:	4291      	cmp	r1, r2
 80077d8:	bf18      	it	ne
 80077da:	681a      	ldrne	r2, [r3, #0]
 80077dc:	4418      	add	r0, r3
 80077de:	bf0c      	ite	eq
 80077e0:	2200      	moveq	r2, #0
 80077e2:	3201      	addne	r2, #1
 80077e4:	7b00      	ldrb	r0, [r0, #12]
 80077e6:	601a      	str	r2, [r3, #0]
 80077e8:	4770      	bx	lr
 80077ea:	f04f 30ff 	mov.w	r0, #4294967295
 80077ee:	4770      	bx	lr

080077f0 <MPU6050_Init>:
 80077f0:	b510      	push	{r4, lr}
 80077f2:	f7fe fd63 	bl	80062bc <I2C1_Start>
 80077f6:	20d0      	movs	r0, #208	; 0xd0
 80077f8:	f7fe fe06 	bl	8006408 <I2C1_SendByte>
 80077fc:	f7fe fe74 	bl	80064e8 <I2C1_WaitAck>
 8007800:	2075      	movs	r0, #117	; 0x75
 8007802:	f7fe fe01 	bl	8006408 <I2C1_SendByte>
 8007806:	f7fe fe6f 	bl	80064e8 <I2C1_WaitAck>
 800780a:	f7fe fd7f 	bl	800630c <I2C1_Stop>
 800780e:	2001      	movs	r0, #1
 8007810:	f000 fa58 	bl	8007cc4 <Delay_ms>
 8007814:	f7fe fd52 	bl	80062bc <I2C1_Start>
 8007818:	20d1      	movs	r0, #209	; 0xd1
 800781a:	f7fe fdf5 	bl	8006408 <I2C1_SendByte>
 800781e:	f7fe fe63 	bl	80064e8 <I2C1_WaitAck>
 8007822:	f7fe fe27 	bl	8006474 <I2C1_ReceiveByte>
 8007826:	4604      	mov	r4, r0
 8007828:	f7fe fdc4 	bl	80063b4 <I2C1_NoAck>
 800782c:	f7fe fd6e 	bl	800630c <I2C1_Stop>
 8007830:	2c68      	cmp	r4, #104	; 0x68
 8007832:	f040 80cb 	bne.w	80079cc <MPU6050_Init+0x1dc>
 8007836:	2005      	movs	r0, #5
 8007838:	f000 fa44 	bl	8007cc4 <Delay_ms>
 800783c:	f7fe fd3e 	bl	80062bc <I2C1_Start>
 8007840:	20d0      	movs	r0, #208	; 0xd0
 8007842:	f7fe fde1 	bl	8006408 <I2C1_SendByte>
 8007846:	f7fe fe4f 	bl	80064e8 <I2C1_WaitAck>
 800784a:	206b      	movs	r0, #107	; 0x6b
 800784c:	f7fe fddc 	bl	8006408 <I2C1_SendByte>
 8007850:	f7fe fe4a 	bl	80064e8 <I2C1_WaitAck>
 8007854:	2080      	movs	r0, #128	; 0x80
 8007856:	f7fe fdd7 	bl	8006408 <I2C1_SendByte>
 800785a:	f7fe fe45 	bl	80064e8 <I2C1_WaitAck>
 800785e:	f7fe fd55 	bl	800630c <I2C1_Stop>
 8007862:	2096      	movs	r0, #150	; 0x96
 8007864:	f000 fa2e 	bl	8007cc4 <Delay_ms>
 8007868:	f7fe fd28 	bl	80062bc <I2C1_Start>
 800786c:	20d0      	movs	r0, #208	; 0xd0
 800786e:	f7fe fdcb 	bl	8006408 <I2C1_SendByte>
 8007872:	f7fe fe39 	bl	80064e8 <I2C1_WaitAck>
 8007876:	206b      	movs	r0, #107	; 0x6b
 8007878:	f7fe fdc6 	bl	8006408 <I2C1_SendByte>
 800787c:	f7fe fe34 	bl	80064e8 <I2C1_WaitAck>
 8007880:	2003      	movs	r0, #3
 8007882:	f7fe fdc1 	bl	8006408 <I2C1_SendByte>
 8007886:	f7fe fe2f 	bl	80064e8 <I2C1_WaitAck>
 800788a:	f7fe fd3f 	bl	800630c <I2C1_Stop>
 800788e:	2005      	movs	r0, #5
 8007890:	f000 fa18 	bl	8007cc4 <Delay_ms>
 8007894:	f7fe fd12 	bl	80062bc <I2C1_Start>
 8007898:	20d0      	movs	r0, #208	; 0xd0
 800789a:	f7fe fdb5 	bl	8006408 <I2C1_SendByte>
 800789e:	f7fe fe23 	bl	80064e8 <I2C1_WaitAck>
 80078a2:	206c      	movs	r0, #108	; 0x6c
 80078a4:	f7fe fdb0 	bl	8006408 <I2C1_SendByte>
 80078a8:	f7fe fe1e 	bl	80064e8 <I2C1_WaitAck>
 80078ac:	2000      	movs	r0, #0
 80078ae:	f7fe fdab 	bl	8006408 <I2C1_SendByte>
 80078b2:	f7fe fe19 	bl	80064e8 <I2C1_WaitAck>
 80078b6:	f7fe fd29 	bl	800630c <I2C1_Stop>
 80078ba:	2005      	movs	r0, #5
 80078bc:	f000 fa02 	bl	8007cc4 <Delay_ms>
 80078c0:	f7fe fcfc 	bl	80062bc <I2C1_Start>
 80078c4:	20d0      	movs	r0, #208	; 0xd0
 80078c6:	f7fe fd9f 	bl	8006408 <I2C1_SendByte>
 80078ca:	f7fe fe0d 	bl	80064e8 <I2C1_WaitAck>
 80078ce:	2019      	movs	r0, #25
 80078d0:	f7fe fd9a 	bl	8006408 <I2C1_SendByte>
 80078d4:	f7fe fe08 	bl	80064e8 <I2C1_WaitAck>
 80078d8:	2000      	movs	r0, #0
 80078da:	f7fe fd95 	bl	8006408 <I2C1_SendByte>
 80078de:	f7fe fe03 	bl	80064e8 <I2C1_WaitAck>
 80078e2:	f7fe fd13 	bl	800630c <I2C1_Stop>
 80078e6:	2005      	movs	r0, #5
 80078e8:	f000 f9ec 	bl	8007cc4 <Delay_ms>
 80078ec:	f7fe fce6 	bl	80062bc <I2C1_Start>
 80078f0:	20d0      	movs	r0, #208	; 0xd0
 80078f2:	f7fe fd89 	bl	8006408 <I2C1_SendByte>
 80078f6:	f7fe fdf7 	bl	80064e8 <I2C1_WaitAck>
 80078fa:	201a      	movs	r0, #26
 80078fc:	f7fe fd84 	bl	8006408 <I2C1_SendByte>
 8007900:	f7fe fdf2 	bl	80064e8 <I2C1_WaitAck>
 8007904:	2000      	movs	r0, #0
 8007906:	f7fe fd7f 	bl	8006408 <I2C1_SendByte>
 800790a:	f7fe fded 	bl	80064e8 <I2C1_WaitAck>
 800790e:	f7fe fcfd 	bl	800630c <I2C1_Stop>
 8007912:	2005      	movs	r0, #5
 8007914:	f000 f9d6 	bl	8007cc4 <Delay_ms>
 8007918:	f7fe fcd0 	bl	80062bc <I2C1_Start>
 800791c:	20d0      	movs	r0, #208	; 0xd0
 800791e:	f7fe fd73 	bl	8006408 <I2C1_SendByte>
 8007922:	f7fe fde1 	bl	80064e8 <I2C1_WaitAck>
 8007926:	201b      	movs	r0, #27
 8007928:	f7fe fd6e 	bl	8006408 <I2C1_SendByte>
 800792c:	f7fe fddc 	bl	80064e8 <I2C1_WaitAck>
 8007930:	2000      	movs	r0, #0
 8007932:	f7fe fd69 	bl	8006408 <I2C1_SendByte>
 8007936:	f7fe fdd7 	bl	80064e8 <I2C1_WaitAck>
 800793a:	f7fe fce7 	bl	800630c <I2C1_Stop>
 800793e:	2005      	movs	r0, #5
 8007940:	f000 f9c0 	bl	8007cc4 <Delay_ms>
 8007944:	f7fe fcba 	bl	80062bc <I2C1_Start>
 8007948:	20d0      	movs	r0, #208	; 0xd0
 800794a:	f7fe fd5d 	bl	8006408 <I2C1_SendByte>
 800794e:	f7fe fdcb 	bl	80064e8 <I2C1_WaitAck>
 8007952:	201c      	movs	r0, #28
 8007954:	f7fe fd58 	bl	8006408 <I2C1_SendByte>
 8007958:	f7fe fdc6 	bl	80064e8 <I2C1_WaitAck>
 800795c:	2000      	movs	r0, #0
 800795e:	f7fe fd53 	bl	8006408 <I2C1_SendByte>
 8007962:	f7fe fdc1 	bl	80064e8 <I2C1_WaitAck>
 8007966:	f7fe fcd1 	bl	800630c <I2C1_Stop>
 800796a:	2005      	movs	r0, #5
 800796c:	f000 f9aa 	bl	8007cc4 <Delay_ms>
 8007970:	f7fe fca4 	bl	80062bc <I2C1_Start>
 8007974:	20d0      	movs	r0, #208	; 0xd0
 8007976:	f7fe fd47 	bl	8006408 <I2C1_SendByte>
 800797a:	f7fe fdb5 	bl	80064e8 <I2C1_WaitAck>
 800797e:	2037      	movs	r0, #55	; 0x37
 8007980:	f7fe fd42 	bl	8006408 <I2C1_SendByte>
 8007984:	f7fe fdb0 	bl	80064e8 <I2C1_WaitAck>
 8007988:	2000      	movs	r0, #0
 800798a:	f7fe fd3d 	bl	8006408 <I2C1_SendByte>
 800798e:	f7fe fdab 	bl	80064e8 <I2C1_WaitAck>
 8007992:	f7fe fcbb 	bl	800630c <I2C1_Stop>
 8007996:	2005      	movs	r0, #5
 8007998:	f000 f994 	bl	8007cc4 <Delay_ms>
 800799c:	f7fe fc8e 	bl	80062bc <I2C1_Start>
 80079a0:	20d0      	movs	r0, #208	; 0xd0
 80079a2:	f7fe fd31 	bl	8006408 <I2C1_SendByte>
 80079a6:	f7fe fd9f 	bl	80064e8 <I2C1_WaitAck>
 80079aa:	2038      	movs	r0, #56	; 0x38
 80079ac:	f7fe fd2c 	bl	8006408 <I2C1_SendByte>
 80079b0:	f7fe fd9a 	bl	80064e8 <I2C1_WaitAck>
 80079b4:	2000      	movs	r0, #0
 80079b6:	f7fe fd27 	bl	8006408 <I2C1_SendByte>
 80079ba:	f7fe fd95 	bl	80064e8 <I2C1_WaitAck>
 80079be:	f7fe fca5 	bl	800630c <I2C1_Stop>
 80079c2:	2005      	movs	r0, #5
 80079c4:	f000 f97e 	bl	8007cc4 <Delay_ms>
 80079c8:	2000      	movs	r0, #0
 80079ca:	bd10      	pop	{r4, pc}
 80079cc:	f04f 30ff 	mov.w	r0, #4294967295
 80079d0:	bd10      	pop	{r4, pc}
 80079d2:	bf00      	nop

080079d4 <MPU6050_get>:
 80079d4:	b570      	push	{r4, r5, r6, lr}
 80079d6:	4c22      	ldr	r4, [pc, #136]	; (8007a60 <MPU6050_get+0x8c>)
 80079d8:	2300      	movs	r3, #0
 80079da:	6023      	str	r3, [r4, #0]
 80079dc:	460e      	mov	r6, r1
 80079de:	4605      	mov	r5, r0
 80079e0:	f7fe fc6c 	bl	80062bc <I2C1_Start>
 80079e4:	20d0      	movs	r0, #208	; 0xd0
 80079e6:	f7fe fd0f 	bl	8006408 <I2C1_SendByte>
 80079ea:	f7fe fd7d 	bl	80064e8 <I2C1_WaitAck>
 80079ee:	6823      	ldr	r3, [r4, #0]
 80079f0:	b103      	cbz	r3, 80079f4 <MPU6050_get+0x20>
 80079f2:	bd70      	pop	{r4, r5, r6, pc}
 80079f4:	b2e8      	uxtb	r0, r5
 80079f6:	f7fe fd07 	bl	8006408 <I2C1_SendByte>
 80079fa:	f7fe fd75 	bl	80064e8 <I2C1_WaitAck>
 80079fe:	6823      	ldr	r3, [r4, #0]
 8007a00:	2b00      	cmp	r3, #0
 8007a02:	d1f6      	bne.n	80079f2 <MPU6050_get+0x1e>
 8007a04:	f7fe fc82 	bl	800630c <I2C1_Stop>
 8007a08:	f7fe fc58 	bl	80062bc <I2C1_Start>
 8007a0c:	20d1      	movs	r0, #209	; 0xd1
 8007a0e:	f7fe fcfb 	bl	8006408 <I2C1_SendByte>
 8007a12:	f7fe fd69 	bl	80064e8 <I2C1_WaitAck>
 8007a16:	6823      	ldr	r3, [r4, #0]
 8007a18:	2b00      	cmp	r3, #0
 8007a1a:	d1ea      	bne.n	80079f2 <MPU6050_get+0x1e>
 8007a1c:	f7fe fd2a 	bl	8006474 <I2C1_ReceiveByte>
 8007a20:	7030      	strb	r0, [r6, #0]
 8007a22:	f7fe fc9d 	bl	8006360 <I2C1_Ack>
 8007a26:	f7fe fd25 	bl	8006474 <I2C1_ReceiveByte>
 8007a2a:	7070      	strb	r0, [r6, #1]
 8007a2c:	f7fe fc98 	bl	8006360 <I2C1_Ack>
 8007a30:	f7fe fd20 	bl	8006474 <I2C1_ReceiveByte>
 8007a34:	70b0      	strb	r0, [r6, #2]
 8007a36:	f7fe fc93 	bl	8006360 <I2C1_Ack>
 8007a3a:	f7fe fd1b 	bl	8006474 <I2C1_ReceiveByte>
 8007a3e:	70f0      	strb	r0, [r6, #3]
 8007a40:	f7fe fc8e 	bl	8006360 <I2C1_Ack>
 8007a44:	f7fe fd16 	bl	8006474 <I2C1_ReceiveByte>
 8007a48:	7130      	strb	r0, [r6, #4]
 8007a4a:	f7fe fc89 	bl	8006360 <I2C1_Ack>
 8007a4e:	f7fe fd11 	bl	8006474 <I2C1_ReceiveByte>
 8007a52:	7170      	strb	r0, [r6, #5]
 8007a54:	f7fe fcae 	bl	80063b4 <I2C1_NoAck>
 8007a58:	e8bd 4070 	ldmia.w	sp!, {r4, r5, r6, lr}
 8007a5c:	f7fe bc56 	b.w	800630c <I2C1_Stop>
 8007a60:	20000f1c 	.word	0x20000f1c

08007a64 <MPU6050_ACC_get>:
 8007a64:	b510      	push	{r4, lr}
 8007a66:	b082      	sub	sp, #8
 8007a68:	4604      	mov	r4, r0
 8007a6a:	4669      	mov	r1, sp
 8007a6c:	203b      	movs	r0, #59	; 0x3b
 8007a6e:	f7ff ffb1 	bl	80079d4 <MPU6050_get>
 8007a72:	4b11      	ldr	r3, [pc, #68]	; (8007ab8 <MPU6050_ACC_get+0x54>)
 8007a74:	681b      	ldr	r3, [r3, #0]
 8007a76:	b9eb      	cbnz	r3, 8007ab4 <MPU6050_ACC_get+0x50>
 8007a78:	f89d 3001 	ldrb.w	r3, [sp, #1]
 8007a7c:	f89d 0000 	ldrb.w	r0, [sp]
 8007a80:	ea43 2000 	orr.w	r0, r3, r0, lsl #8
 8007a84:	b200      	sxth	r0, r0
 8007a86:	f7fd f933 	bl	8004cf0 <__aeabi_i2f>
 8007a8a:	f89d 2002 	ldrb.w	r2, [sp, #2]
 8007a8e:	f89d 3003 	ldrb.w	r3, [sp, #3]
 8007a92:	6020      	str	r0, [r4, #0]
 8007a94:	ea43 2002 	orr.w	r0, r3, r2, lsl #8
 8007a98:	b200      	sxth	r0, r0
 8007a9a:	f7fd f929 	bl	8004cf0 <__aeabi_i2f>
 8007a9e:	f89d 2004 	ldrb.w	r2, [sp, #4]
 8007aa2:	f89d 3005 	ldrb.w	r3, [sp, #5]
 8007aa6:	6060      	str	r0, [r4, #4]
 8007aa8:	ea43 2002 	orr.w	r0, r3, r2, lsl #8
 8007aac:	b200      	sxth	r0, r0
 8007aae:	f7fd f91f 	bl	8004cf0 <__aeabi_i2f>
 8007ab2:	60a0      	str	r0, [r4, #8]
 8007ab4:	b002      	add	sp, #8
 8007ab6:	bd10      	pop	{r4, pc}
 8007ab8:	20000f1c 	.word	0x20000f1c

08007abc <MPU6050_Gyro_get>:
 8007abc:	b510      	push	{r4, lr}
 8007abe:	b082      	sub	sp, #8
 8007ac0:	4604      	mov	r4, r0
 8007ac2:	4669      	mov	r1, sp
 8007ac4:	2043      	movs	r0, #67	; 0x43
 8007ac6:	f7ff ff85 	bl	80079d4 <MPU6050_get>
 8007aca:	4b1f      	ldr	r3, [pc, #124]	; (8007b48 <MPU6050_Gyro_get+0x8c>)
 8007acc:	681b      	ldr	r3, [r3, #0]
 8007ace:	2b00      	cmp	r3, #0
 8007ad0:	d138      	bne.n	8007b44 <MPU6050_Gyro_get+0x88>
 8007ad2:	f89d 1000 	ldrb.w	r1, [sp]
 8007ad6:	f89d 3001 	ldrb.w	r3, [sp, #1]
 8007ada:	4a1c      	ldr	r2, [pc, #112]	; (8007b4c <MPU6050_Gyro_get+0x90>)
 8007adc:	ea43 2301 	orr.w	r3, r3, r1, lsl #8
 8007ae0:	8013      	strh	r3, [r2, #0]
 8007ae2:	b218      	sxth	r0, r3
 8007ae4:	f7fd f904 	bl	8004cf0 <__aeabi_i2f>
 8007ae8:	4b19      	ldr	r3, [pc, #100]	; (8007b50 <MPU6050_Gyro_get+0x94>)
 8007aea:	6819      	ldr	r1, [r3, #0]
 8007aec:	f7fd f84a 	bl	8004b84 <__aeabi_fsub>
 8007af0:	4918      	ldr	r1, [pc, #96]	; (8007b54 <MPU6050_Gyro_get+0x98>)
 8007af2:	f7fd fa05 	bl	8004f00 <__aeabi_fdiv>
 8007af6:	f89d 1002 	ldrb.w	r1, [sp, #2]
 8007afa:	f89d 3003 	ldrb.w	r3, [sp, #3]
 8007afe:	4a16      	ldr	r2, [pc, #88]	; (8007b58 <MPU6050_Gyro_get+0x9c>)
 8007b00:	ea43 2301 	orr.w	r3, r3, r1, lsl #8
 8007b04:	8013      	strh	r3, [r2, #0]
 8007b06:	6020      	str	r0, [r4, #0]
 8007b08:	b218      	sxth	r0, r3
 8007b0a:	f7fd f8f1 	bl	8004cf0 <__aeabi_i2f>
 8007b0e:	4b13      	ldr	r3, [pc, #76]	; (8007b5c <MPU6050_Gyro_get+0xa0>)
 8007b10:	6819      	ldr	r1, [r3, #0]
 8007b12:	f7fd f837 	bl	8004b84 <__aeabi_fsub>
 8007b16:	490f      	ldr	r1, [pc, #60]	; (8007b54 <MPU6050_Gyro_get+0x98>)
 8007b18:	f7fd f9f2 	bl	8004f00 <__aeabi_fdiv>
 8007b1c:	f89d 1004 	ldrb.w	r1, [sp, #4]
 8007b20:	f89d 3005 	ldrb.w	r3, [sp, #5]
 8007b24:	4a0e      	ldr	r2, [pc, #56]	; (8007b60 <MPU6050_Gyro_get+0xa4>)
 8007b26:	ea43 2301 	orr.w	r3, r3, r1, lsl #8
 8007b2a:	8013      	strh	r3, [r2, #0]
 8007b2c:	6060      	str	r0, [r4, #4]
 8007b2e:	b218      	sxth	r0, r3
 8007b30:	f7fd f8de 	bl	8004cf0 <__aeabi_i2f>
 8007b34:	4b0b      	ldr	r3, [pc, #44]	; (8007b64 <MPU6050_Gyro_get+0xa8>)
 8007b36:	6819      	ldr	r1, [r3, #0]
 8007b38:	f7fd f824 	bl	8004b84 <__aeabi_fsub>
 8007b3c:	4905      	ldr	r1, [pc, #20]	; (8007b54 <MPU6050_Gyro_get+0x98>)
 8007b3e:	f7fd f9df 	bl	8004f00 <__aeabi_fdiv>
 8007b42:	60a0      	str	r0, [r4, #8]
 8007b44:	b002      	add	sp, #8
 8007b46:	bd10      	pop	{r4, pc}
 8007b48:	20000f1c 	.word	0x20000f1c
 8007b4c:	20000e74 	.word	0x20000e74
 8007b50:	20000e78 	.word	0x20000e78
 8007b54:	45ea8dfa 	.word	0x45ea8dfa
 8007b58:	20000e6c 	.word	0x20000e6c
 8007b5c:	20000e7c 	.word	0x20000e7c
 8007b60:	20000e76 	.word	0x20000e76
 8007b64:	20000e70 	.word	0x20000e70

08007b68 <MPU6050_Gyro_calibration>:
 8007b68:	e92d 4ff0 	stmdb	sp!, {r4, r5, r6, r7, r8, r9, sl, fp, lr}
 8007b6c:	4e23      	ldr	r6, [pc, #140]	; (8007bfc <MPU6050_Gyro_calibration+0x94>)
 8007b6e:	f8df b09c 	ldr.w	fp, [pc, #156]	; 8007c0c <MPU6050_Gyro_calibration+0xa4>
 8007b72:	4d23      	ldr	r5, [pc, #140]	; (8007c00 <MPU6050_Gyro_calibration+0x98>)
 8007b74:	f8df a098 	ldr.w	sl, [pc, #152]	; 8007c10 <MPU6050_Gyro_calibration+0xa8>
 8007b78:	4c22      	ldr	r4, [pc, #136]	; (8007c04 <MPU6050_Gyro_calibration+0x9c>)
 8007b7a:	f8df 9098 	ldr.w	r9, [pc, #152]	; 8007c14 <MPU6050_Gyro_calibration+0xac>
 8007b7e:	b085      	sub	sp, #20
 8007b80:	f04f 0896 	mov.w	r8, #150	; 0x96
 8007b84:	a801      	add	r0, sp, #4
 8007b86:	f7ff ff99 	bl	8007abc <MPU6050_Gyro_get>
 8007b8a:	f9bb 0000 	ldrsh.w	r0, [fp]
 8007b8e:	f7fd f8af 	bl	8004cf0 <__aeabi_i2f>
 8007b92:	6831      	ldr	r1, [r6, #0]
 8007b94:	f7fc fff8 	bl	8004b88 <__addsf3>
 8007b98:	6030      	str	r0, [r6, #0]
 8007b9a:	f9ba 0000 	ldrsh.w	r0, [sl]
 8007b9e:	f7fd f8a7 	bl	8004cf0 <__aeabi_i2f>
 8007ba2:	6829      	ldr	r1, [r5, #0]
 8007ba4:	f7fc fff0 	bl	8004b88 <__addsf3>
 8007ba8:	6028      	str	r0, [r5, #0]
 8007baa:	f9b9 0000 	ldrsh.w	r0, [r9]
 8007bae:	f7fd f89f 	bl	8004cf0 <__aeabi_i2f>
 8007bb2:	6821      	ldr	r1, [r4, #0]
 8007bb4:	f7fc ffe8 	bl	8004b88 <__addsf3>
 8007bb8:	6020      	str	r0, [r4, #0]
 8007bba:	2002      	movs	r0, #2
 8007bbc:	f000 f882 	bl	8007cc4 <Delay_ms>
 8007bc0:	f1b8 0801 	subs.w	r8, r8, #1
 8007bc4:	4f0f      	ldr	r7, [pc, #60]	; (8007c04 <MPU6050_Gyro_calibration+0x9c>)
 8007bc6:	d1dd      	bne.n	8007b84 <MPU6050_Gyro_calibration+0x1c>
 8007bc8:	4b0c      	ldr	r3, [pc, #48]	; (8007bfc <MPU6050_Gyro_calibration+0x94>)
 8007bca:	490f      	ldr	r1, [pc, #60]	; (8007c08 <MPU6050_Gyro_calibration+0xa0>)
 8007bcc:	6818      	ldr	r0, [r3, #0]
 8007bce:	f7fd f997 	bl	8004f00 <__aeabi_fdiv>
 8007bd2:	4b0a      	ldr	r3, [pc, #40]	; (8007bfc <MPU6050_Gyro_calibration+0x94>)
 8007bd4:	490c      	ldr	r1, [pc, #48]	; (8007c08 <MPU6050_Gyro_calibration+0xa0>)
 8007bd6:	6018      	str	r0, [r3, #0]
 8007bd8:	4b09      	ldr	r3, [pc, #36]	; (8007c00 <MPU6050_Gyro_calibration+0x98>)
 8007bda:	6818      	ldr	r0, [r3, #0]
 8007bdc:	f7fd f990 	bl	8004f00 <__aeabi_fdiv>
 8007be0:	4b07      	ldr	r3, [pc, #28]	; (8007c00 <MPU6050_Gyro_calibration+0x98>)
 8007be2:	4909      	ldr	r1, [pc, #36]	; (8007c08 <MPU6050_Gyro_calibration+0xa0>)
 8007be4:	6018      	str	r0, [r3, #0]
 8007be6:	6838      	ldr	r0, [r7, #0]
 8007be8:	f7fd f98a 	bl	8004f00 <__aeabi_fdiv>
 8007bec:	6038      	str	r0, [r7, #0]
 8007bee:	2005      	movs	r0, #5
 8007bf0:	f000 f868 	bl	8007cc4 <Delay_ms>
 8007bf4:	b005      	add	sp, #20
 8007bf6:	e8bd 8ff0 	ldmia.w	sp!, {r4, r5, r6, r7, r8, r9, sl, fp, pc}
 8007bfa:	bf00      	nop
 8007bfc:	20000e78 	.word	0x20000e78
 8007c00:	20000e7c 	.word	0x20000e7c
 8007c04:	20000e70 	.word	0x20000e70
 8007c08:	43160000 	.word	0x43160000
 8007c0c:	20000e74 	.word	0x20000e74
 8007c10:	20000e6c 	.word	0x20000e6c
 8007c14:	20000e76 	.word	0x20000e76

08007c18 <LEDon>:
 8007c18:	4802      	ldr	r0, [pc, #8]	; (8007c24 <LEDon+0xc>)
 8007c1a:	f44f 5180 	mov.w	r1, #4096	; 0x1000
 8007c1e:	f7fd be8f 	b.w	8005940 <GPIO_SetBits>
 8007c22:	bf00      	nop
 8007c24:	40010c00 	.word	0x40010c00

08007c28 <LEDoff>:
 8007c28:	4802      	ldr	r0, [pc, #8]	; (8007c34 <LEDoff+0xc>)
 8007c2a:	f44f 5180 	mov.w	r1, #4096	; 0x1000
 8007c2e:	f7fd be89 	b.w	8005944 <GPIO_ResetBits>
 8007c32:	bf00      	nop
 8007c34:	40010c00 	.word	0x40010c00

08007c38 <LEDtoggle>:
 8007c38:	b508      	push	{r3, lr}
 8007c3a:	b672      	cpsid	i
 8007c3c:	4803      	ldr	r0, [pc, #12]	; (8007c4c <LEDtoggle+0x14>)
 8007c3e:	f44f 5180 	mov.w	r1, #4096	; 0x1000
 8007c42:	f7fd fe87 	bl	8005954 <GPIO_ToggleBits>
 8007c46:	b662      	cpsie	i
 8007c48:	bd08      	pop	{r3, pc}
 8007c4a:	bf00      	nop
 8007c4c:	40010c00 	.word	0x40010c00

08007c50 <DEBUG_LEDon>:
 8007c50:	4801      	ldr	r0, [pc, #4]	; (8007c58 <DEBUG_LEDon+0x8>)
 8007c52:	2108      	movs	r1, #8
 8007c54:	f7fd be74 	b.w	8005940 <GPIO_SetBits>
 8007c58:	40010800 	.word	0x40010800

08007c5c <DEBUG_LEDoff>:
 8007c5c:	4801      	ldr	r0, [pc, #4]	; (8007c64 <DEBUG_LEDoff+0x8>)
 8007c5e:	2108      	movs	r1, #8
 8007c60:	f7fd be70 	b.w	8005944 <GPIO_ResetBits>
 8007c64:	40010800 	.word	0x40010800

08007c68 <DEBUG_LEDtoggle>:
 8007c68:	b508      	push	{r3, lr}
 8007c6a:	b672      	cpsid	i
 8007c6c:	4802      	ldr	r0, [pc, #8]	; (8007c78 <DEBUG_LEDtoggle+0x10>)
 8007c6e:	2108      	movs	r1, #8
 8007c70:	f7fd fe70 	bl	8005954 <GPIO_ToggleBits>
 8007c74:	b662      	cpsie	i
 8007c76:	bd08      	pop	{r3, pc}
 8007c78:	40010800 	.word	0x40010800

08007c7c <Blink>:
 8007c7c:	b538      	push	{r3, r4, r5, lr}
 8007c7e:	4c0b      	ldr	r4, [pc, #44]	; (8007cac <Blink+0x30>)
 8007c80:	2042      	movs	r0, #66	; 0x42
 8007c82:	f000 fc95 	bl	80085b0 <DEBUG_PutChar>
 8007c86:	4620      	mov	r0, r4
 8007c88:	f44f 5180 	mov.w	r1, #4096	; 0x1000
 8007c8c:	f7fd fe58 	bl	8005940 <GPIO_SetBits>
 8007c90:	4d07      	ldr	r5, [pc, #28]	; (8007cb0 <Blink+0x34>)
 8007c92:	4628      	mov	r0, r5
 8007c94:	3801      	subs	r0, #1
 8007c96:	d8fd      	bhi.n	8007c94 <Blink+0x18>
 8007c98:	f44f 5180 	mov.w	r1, #4096	; 0x1000
 8007c9c:	4620      	mov	r0, r4
 8007c9e:	f7fd fe51 	bl	8005944 <GPIO_ResetBits>
 8007ca2:	4628      	mov	r0, r5
 8007ca4:	3801      	subs	r0, #1
 8007ca6:	d8fd      	bhi.n	8007ca4 <Blink+0x28>
 8007ca8:	bd38      	pop	{r3, r4, r5, pc}
 8007caa:	bf00      	nop
 8007cac:	40010c00 	.word	0x40010c00
 8007cb0:	00249f00 	.word	0x00249f00

08007cb4 <Delay_us>:
 8007cb4:	eb00 0040 	add.w	r0, r0, r0, lsl #1
 8007cb8:	0083      	lsls	r3, r0, #2
 8007cba:	4618      	mov	r0, r3
 8007cbc:	3801      	subs	r0, #1
 8007cbe:	d8fd      	bhi.n	8007cbc <Delay_us+0x8>
 8007cc0:	4770      	bx	lr
 8007cc2:	bf00      	nop

08007cc4 <Delay_ms>:
 8007cc4:	f642 63e0 	movw	r3, #12000	; 0x2ee0
 8007cc8:	fb03 f300 	mul.w	r3, r3, r0
 8007ccc:	4618      	mov	r0, r3
 8007cce:	3801      	subs	r0, #1
 8007cd0:	d8fd      	bhi.n	8007cce <Delay_ms+0xa>
 8007cd2:	4770      	bx	lr

08007cd4 <Rad2Deg>:
 8007cd4:	b508      	push	{r3, lr}
 8007cd6:	4902      	ldr	r1, [pc, #8]	; (8007ce0 <Rad2Deg+0xc>)
 8007cd8:	f7fd f85e 	bl	8004d98 <__aeabi_fmul>
 8007cdc:	bd08      	pop	{r3, pc}
 8007cde:	bf00      	nop
 8007ce0:	42652ee0 	.word	0x42652ee0

08007ce4 <Deg2Rad>:
 8007ce4:	b508      	push	{r3, lr}
 8007ce6:	4902      	ldr	r1, [pc, #8]	; (8007cf0 <Deg2Rad+0xc>)
 8007ce8:	f7fd f856 	bl	8004d98 <__aeabi_fmul>
 8007cec:	bd08      	pop	{r3, pc}
 8007cee:	bf00      	nop
 8007cf0:	3c8efa35 	.word	0x3c8efa35

08007cf4 <Round>:
 8007cf4:	b510      	push	{r4, lr}
 8007cf6:	2100      	movs	r1, #0
 8007cf8:	4604      	mov	r4, r0
 8007cfa:	f7fd f9ff 	bl	80050fc <__aeabi_fcmpge>
 8007cfe:	b128      	cbz	r0, 8007d0c <Round+0x18>
 8007d00:	4620      	mov	r0, r4
 8007d02:	f04f 517c 	mov.w	r1, #1056964608	; 0x3f000000
 8007d06:	f7fc ff3f 	bl	8004b88 <__addsf3>
 8007d0a:	bd10      	pop	{r4, pc}
 8007d0c:	4620      	mov	r0, r4
 8007d0e:	f04f 517c 	mov.w	r1, #1056964608	; 0x3f000000
 8007d12:	f7fc ff37 	bl	8004b84 <__aeabi_fsub>
 8007d16:	bd10      	pop	{r4, pc}

08007d18 <_write>:
 8007d18:	2801      	cmp	r0, #1
 8007d1a:	b470      	push	{r4, r5, r6}
 8007d1c:	d018      	beq.n	8007d50 <_write+0x38>
 8007d1e:	2802      	cmp	r0, #2
 8007d20:	d10f      	bne.n	8007d42 <_write+0x2a>
 8007d22:	2a00      	cmp	r2, #0
 8007d24:	dd0a      	ble.n	8007d3c <_write+0x24>
 8007d26:	4c12      	ldr	r4, [pc, #72]	; (8007d70 <_write+0x58>)
 8007d28:	188e      	adds	r6, r1, r2
 8007d2a:	4625      	mov	r5, r4
 8007d2c:	8823      	ldrh	r3, [r4, #0]
 8007d2e:	065b      	lsls	r3, r3, #25
 8007d30:	d5fc      	bpl.n	8007d2c <_write+0x14>
 8007d32:	f811 3b01 	ldrb.w	r3, [r1], #1
 8007d36:	42b1      	cmp	r1, r6
 8007d38:	80ab      	strh	r3, [r5, #4]
 8007d3a:	d1f7      	bne.n	8007d2c <_write+0x14>
 8007d3c:	4610      	mov	r0, r2
 8007d3e:	bc70      	pop	{r4, r5, r6}
 8007d40:	4770      	bx	lr
 8007d42:	4b0c      	ldr	r3, [pc, #48]	; (8007d74 <_write+0x5c>)
 8007d44:	2209      	movs	r2, #9
 8007d46:	f04f 30ff 	mov.w	r0, #4294967295
 8007d4a:	601a      	str	r2, [r3, #0]
 8007d4c:	bc70      	pop	{r4, r5, r6}
 8007d4e:	4770      	bx	lr
 8007d50:	2a00      	cmp	r2, #0
 8007d52:	ddf3      	ble.n	8007d3c <_write+0x24>
 8007d54:	4c06      	ldr	r4, [pc, #24]	; (8007d70 <_write+0x58>)
 8007d56:	188e      	adds	r6, r1, r2
 8007d58:	4625      	mov	r5, r4
 8007d5a:	8823      	ldrh	r3, [r4, #0]
 8007d5c:	0658      	lsls	r0, r3, #25
 8007d5e:	d5fc      	bpl.n	8007d5a <_write+0x42>
 8007d60:	f811 3b01 	ldrb.w	r3, [r1], #1
 8007d64:	42b1      	cmp	r1, r6
 8007d66:	80ab      	strh	r3, [r5, #4]
 8007d68:	d1f7      	bne.n	8007d5a <_write+0x42>
 8007d6a:	4610      	mov	r0, r2
 8007d6c:	e7e7      	b.n	8007d3e <_write+0x26>
 8007d6e:	bf00      	nop
 8007d70:	40004c00 	.word	0x40004c00
 8007d74:	200058d8 	.word	0x200058d8

08007d78 <_sbrk>:
 8007d78:	4b0d      	ldr	r3, [pc, #52]	; (8007db0 <_sbrk+0x38>)
 8007d7a:	b510      	push	{r4, lr}
 8007d7c:	681a      	ldr	r2, [r3, #0]
 8007d7e:	4604      	mov	r4, r0
 8007d80:	b192      	cbz	r2, 8007da8 <_sbrk+0x30>
 8007d82:	4610      	mov	r0, r2
 8007d84:	f3ef 8108 	mrs	r1, MSP
 8007d88:	1902      	adds	r2, r0, r4
 8007d8a:	428a      	cmp	r2, r1
 8007d8c:	d801      	bhi.n	8007d92 <_sbrk+0x1a>
 8007d8e:	601a      	str	r2, [r3, #0]
 8007d90:	bd10      	pop	{r4, pc}
 8007d92:	4908      	ldr	r1, [pc, #32]	; (8007db4 <_sbrk+0x3c>)
 8007d94:	2219      	movs	r2, #25
 8007d96:	2002      	movs	r0, #2
 8007d98:	f7ff ffbe 	bl	8007d18 <_write>
 8007d9c:	4b06      	ldr	r3, [pc, #24]	; (8007db8 <_sbrk+0x40>)
 8007d9e:	220c      	movs	r2, #12
 8007da0:	601a      	str	r2, [r3, #0]
 8007da2:	f04f 30ff 	mov.w	r0, #4294967295
 8007da6:	bd10      	pop	{r4, pc}
 8007da8:	4804      	ldr	r0, [pc, #16]	; (8007dbc <_sbrk+0x44>)
 8007daa:	6018      	str	r0, [r3, #0]
 8007dac:	e7ea      	b.n	8007d84 <_sbrk+0xc>
 8007dae:	bf00      	nop
 8007db0:	20000e80 	.word	0x20000e80
 8007db4:	0800f244 	.word	0x0800f244
 8007db8:	200058d8 	.word	0x200058d8
 8007dbc:	200058dc 	.word	0x200058dc

08007dc0 <_init>:
 8007dc0:	4770      	bx	lr
 8007dc2:	bf00      	nop

08007dc4 <reboot>:
 8007dc4:	4b02      	ldr	r3, [pc, #8]	; (8007dd0 <reboot+0xc>)
 8007dc6:	4a03      	ldr	r2, [pc, #12]	; (8007dd4 <reboot+0x10>)
 8007dc8:	60da      	str	r2, [r3, #12]
 8007dca:	bf00      	nop
 8007dcc:	e7fd      	b.n	8007dca <reboot+0x6>
 8007dce:	bf00      	nop
 8007dd0:	e000ed00 	.word	0xe000ed00
 8007dd4:	05fa0004 	.word	0x05fa0004

08007dd8 <bootloader>:
 8007dd8:	4b0f      	ldr	r3, [pc, #60]	; (8007e18 <bootloader+0x40>)
 8007dda:	b510      	push	{r4, lr}
 8007ddc:	f1b3 6f00 	cmp.w	r3, #134217728	; 0x8000000
 8007de0:	d100      	bne.n	8007de4 <bootloader+0xc>
 8007de2:	bd10      	pop	{r4, pc}
 8007de4:	490d      	ldr	r1, [pc, #52]	; (8007e1c <bootloader+0x44>)
 8007de6:	4b0e      	ldr	r3, [pc, #56]	; (8007e20 <bootloader+0x48>)
 8007de8:	69c8      	ldr	r0, [r1, #28]
 8007dea:	4a0e      	ldr	r2, [pc, #56]	; (8007e24 <bootloader+0x4c>)
 8007dec:	f040 50c0 	orr.w	r0, r0, #402653184	; 0x18000000
 8007df0:	61c8      	str	r0, [r1, #28]
 8007df2:	681c      	ldr	r4, [r3, #0]
 8007df4:	f646 30b4 	movw	r0, #27572	; 0x6bb4
 8007df8:	f444 7480 	orr.w	r4, r4, #256	; 0x100
 8007dfc:	f644 21fc 	movw	r1, #19196	; 0x4afc
 8007e00:	601c      	str	r4, [r3, #0]
 8007e02:	f8a2 00b8 	strh.w	r0, [r2, #184]	; 0xb8
 8007e06:	f8a2 10bc 	strh.w	r1, [r2, #188]	; 0xbc
 8007e0a:	681a      	ldr	r2, [r3, #0]
 8007e0c:	f422 7280 	bic.w	r2, r2, #256	; 0x100
 8007e10:	601a      	str	r2, [r3, #0]
 8007e12:	f7ff ffd7 	bl	8007dc4 <reboot>
 8007e16:	bf00      	nop
 8007e18:	08004000 	.word	0x08004000
 8007e1c:	40021000 	.word	0x40021000
 8007e20:	40007000 	.word	0x40007000
 8007e24:	40006c00 	.word	0x40006c00

08007e28 <Timer_Channel_Config.constprop.0>:
 8007e28:	b538      	push	{r3, r4, r5, lr}
 8007e2a:	4604      	mov	r4, r0
 8007e2c:	460d      	mov	r5, r1
 8007e2e:	f7fd ff43 	bl	8005cb8 <TIM_OC1Init>
 8007e32:	4620      	mov	r0, r4
 8007e34:	4629      	mov	r1, r5
 8007e36:	f7fd ff87 	bl	8005d48 <TIM_OC2Init>
 8007e3a:	4620      	mov	r0, r4
 8007e3c:	4629      	mov	r1, r5
 8007e3e:	f7fd ffcb 	bl	8005dd8 <TIM_OC3Init>
 8007e42:	4620      	mov	r0, r4
 8007e44:	2108      	movs	r1, #8
 8007e46:	f7fe f83f 	bl	8005ec8 <TIM_OC1PreloadConfig>
 8007e4a:	4620      	mov	r0, r4
 8007e4c:	2108      	movs	r1, #8
 8007e4e:	f7fe f843 	bl	8005ed8 <TIM_OC2PreloadConfig>
 8007e52:	4620      	mov	r0, r4
 8007e54:	2108      	movs	r1, #8
 8007e56:	e8bd 4038 	ldmia.w	sp!, {r3, r4, r5, lr}
 8007e5a:	f7fe b847 	b.w	8005eec <TIM_OC3PreloadConfig>
 8007e5e:	bf00      	nop

08007e60 <Timer_PWM_General_Config>:
 8007e60:	b5f0      	push	{r4, r5, r6, r7, lr}
 8007e62:	b089      	sub	sp, #36	; 0x24
 8007e64:	460d      	mov	r5, r1
 8007e66:	2400      	movs	r4, #0
 8007e68:	f44f 727a 	mov.w	r2, #1000	; 0x3e8
 8007e6c:	f44f 7300 	mov.w	r3, #512	; 0x200
 8007e70:	4606      	mov	r6, r0
 8007e72:	a901      	add	r1, sp, #4
 8007e74:	2703      	movs	r7, #3
 8007e76:	f8ad 2008 	strh.w	r2, [sp, #8]
 8007e7a:	f8ad 300a 	strh.w	r3, [sp, #10]
 8007e7e:	f8ad 7004 	strh.w	r7, [sp, #4]
 8007e82:	f8ad 4006 	strh.w	r4, [sp, #6]
 8007e86:	f7fd febd 	bl	8005c04 <TIM_TimeBaseInit>
 8007e8a:	2260      	movs	r2, #96	; 0x60
 8007e8c:	2301      	movs	r3, #1
 8007e8e:	4630      	mov	r0, r6
 8007e90:	a904      	add	r1, sp, #16
 8007e92:	f8ad 5018 	strh.w	r5, [sp, #24]
 8007e96:	f8ad 4016 	strh.w	r4, [sp, #22]
 8007e9a:	f8ad 2010 	strh.w	r2, [sp, #16]
 8007e9e:	f8ad 3012 	strh.w	r3, [sp, #18]
 8007ea2:	f7ff ffc1 	bl	8007e28 <Timer_Channel_Config.constprop.0>
 8007ea6:	b009      	add	sp, #36	; 0x24
 8007ea8:	bdf0      	pop	{r4, r5, r6, r7, pc}
 8007eaa:	bf00      	nop

08007eac <Timer_PWM_Advanced_Config>:
 8007eac:	b5f0      	push	{r4, r5, r6, r7, lr}
 8007eae:	b08d      	sub	sp, #52	; 0x34
 8007eb0:	2400      	movs	r4, #0
 8007eb2:	2203      	movs	r2, #3
 8007eb4:	f44f 737a 	mov.w	r3, #1000	; 0x3e8
 8007eb8:	a901      	add	r1, sp, #4
 8007eba:	4605      	mov	r5, r0
 8007ebc:	f8ad 2004 	strh.w	r2, [sp, #4]
 8007ec0:	f8ad 3008 	strh.w	r3, [sp, #8]
 8007ec4:	f8ad 4006 	strh.w	r4, [sp, #6]
 8007ec8:	f8ad 400a 	strh.w	r4, [sp, #10]
 8007ecc:	f88d 400c 	strb.w	r4, [sp, #12]
 8007ed0:	f7fd fe98 	bl	8005c04 <TIM_TimeBaseInit>
 8007ed4:	4b1b      	ldr	r3, [pc, #108]	; (8007f44 <Timer_PWM_Advanced_Config+0x98>)
 8007ed6:	f44f 6e00 	mov.w	lr, #2048	; 0x800
 8007eda:	f8d3 c000 	ldr.w	ip, [r3]
 8007ede:	4628      	mov	r0, r5
 8007ee0:	f44f 7680 	mov.w	r6, #256	; 0x100
 8007ee4:	f44f 5200 	mov.w	r2, #8192	; 0x2000
 8007ee8:	f44f 4380 	mov.w	r3, #16384	; 0x4000
 8007eec:	a904      	add	r1, sp, #16
 8007eee:	f44f 6780 	mov.w	r7, #1024	; 0x400
 8007ef2:	f8ad c016 	strh.w	ip, [sp, #22]
 8007ef6:	f8ad e010 	strh.w	lr, [sp, #16]
 8007efa:	f8ad 201a 	strh.w	r2, [sp, #26]
 8007efe:	f8ad 301c 	strh.w	r3, [sp, #28]
 8007f02:	f8ad 4018 	strh.w	r4, [sp, #24]
 8007f06:	f8ad 7012 	strh.w	r7, [sp, #18]
 8007f0a:	f8ad 6014 	strh.w	r6, [sp, #20]
 8007f0e:	f7fd ffa9 	bl	8005e64 <TIM_BDTRConfig>
 8007f12:	4628      	mov	r0, r5
 8007f14:	2201      	movs	r2, #1
 8007f16:	2304      	movs	r3, #4
 8007f18:	2560      	movs	r5, #96	; 0x60
 8007f1a:	a908      	add	r1, sp, #32
 8007f1c:	f8ad 4026 	strh.w	r4, [sp, #38]	; 0x26
 8007f20:	f8ad 4028 	strh.w	r4, [sp, #40]	; 0x28
 8007f24:	f8ad 402a 	strh.w	r4, [sp, #42]	; 0x2a
 8007f28:	f8ad 602c 	strh.w	r6, [sp, #44]	; 0x2c
 8007f2c:	f8ad 402e 	strh.w	r4, [sp, #46]	; 0x2e
 8007f30:	f8ad 5020 	strh.w	r5, [sp, #32]
 8007f34:	f8ad 2022 	strh.w	r2, [sp, #34]	; 0x22
 8007f38:	f8ad 3024 	strh.w	r3, [sp, #36]	; 0x24
 8007f3c:	f7ff ff74 	bl	8007e28 <Timer_Channel_Config.constprop.0>
 8007f40:	b00d      	add	sp, #52	; 0x34
 8007f42:	bdf0      	pop	{r4, r5, r6, r7, pc}
 8007f44:	20000044 	.word	0x20000044

08007f48 <LimitYawPWM>:
 8007f48:	4a0d      	ldr	r2, [pc, #52]	; (8007f80 <LimitYawPWM+0x38>)
 8007f4a:	b430      	push	{r4, r5}
 8007f4c:	6813      	ldr	r3, [r2, #0]
 8007f4e:	f100 050c 	add.w	r5, r0, #12
 8007f52:	f5c3 74fa 	rsb	r4, r3, #500	; 0x1f4
 8007f56:	0064      	lsls	r4, r4, #1
 8007f58:	6801      	ldr	r1, [r0, #0]
 8007f5a:	1acb      	subs	r3, r1, r3
 8007f5c:	42a3      	cmp	r3, r4
 8007f5e:	bfa8      	it	ge
 8007f60:	4623      	movge	r3, r4
 8007f62:	f840 3b04 	str.w	r3, [r0], #4
 8007f66:	6811      	ldr	r1, [r2, #0]
 8007f68:	428b      	cmp	r3, r1
 8007f6a:	bfb8      	it	lt
 8007f6c:	2300      	movlt	r3, #0
 8007f6e:	42a8      	cmp	r0, r5
 8007f70:	f840 3c04 	str.w	r3, [r0, #-4]
 8007f74:	d001      	beq.n	8007f7a <LimitYawPWM+0x32>
 8007f76:	6813      	ldr	r3, [r2, #0]
 8007f78:	e7ee      	b.n	8007f58 <LimitYawPWM+0x10>
 8007f7a:	bc30      	pop	{r4, r5}
 8007f7c:	4770      	bx	lr
 8007f7e:	bf00      	nop
 8007f80:	2000003c 	.word	0x2000003c

08007f84 <SetPWMFastTable>:
 8007f84:	b5f8      	push	{r3, r4, r5, r6, r7, lr}
 8007f86:	4b32      	ldr	r3, [pc, #200]	; (8008050 <SetPWMFastTable+0xcc>)
 8007f88:	4604      	mov	r4, r0
 8007f8a:	681d      	ldr	r5, [r3, #0]
 8007f8c:	460f      	mov	r7, r1
 8007f8e:	4628      	mov	r0, r5
 8007f90:	2100      	movs	r1, #0
 8007f92:	4616      	mov	r6, r2
 8007f94:	f7fd f8b2 	bl	80050fc <__aeabi_fcmpge>
 8007f98:	2800      	cmp	r0, #0
 8007f9a:	d050      	beq.n	800803e <SetPWMFastTable+0xba>
 8007f9c:	492d      	ldr	r1, [pc, #180]	; (8008054 <SetPWMFastTable+0xd0>)
 8007f9e:	4628      	mov	r0, r5
 8007fa0:	f7fc ffae 	bl	8004f00 <__aeabi_fdiv>
 8007fa4:	f04f 4189 	mov.w	r1, #1149239296	; 0x44800000
 8007fa8:	f7fc fef6 	bl	8004d98 <__aeabi_fmul>
 8007fac:	f7ff fea2 	bl	8007cf4 <Round>
 8007fb0:	f7fd f8b8 	bl	8005124 <__aeabi_f2iz>
 8007fb4:	4b28      	ldr	r3, [pc, #160]	; (8008058 <SetPWMFastTable+0xd4>)
 8007fb6:	4003      	ands	r3, r0
 8007fb8:	2b00      	cmp	r3, #0
 8007fba:	db42      	blt.n	8008042 <SetPWMFastTable+0xbe>
 8007fbc:	2b00      	cmp	r3, #0
 8007fbe:	bfb8      	it	lt
 8007fc0:	f503 6380 	addlt.w	r3, r3, #1024	; 0x400
 8007fc4:	4825      	ldr	r0, [pc, #148]	; (800805c <SetPWMFastTable+0xd8>)
 8007fc6:	f203 1155 	addw	r1, r3, #341	; 0x155
 8007fca:	f203 22ab 	addw	r2, r3, #683	; 0x2ab
 8007fce:	f3c2 0209 	ubfx	r2, r2, #0, #10
 8007fd2:	f3c1 0109 	ubfx	r1, r1, #0, #10
 8007fd6:	f930 5013 	ldrsh.w	r5, [r0, r3, lsl #1]
 8007fda:	f930 1011 	ldrsh.w	r1, [r0, r1, lsl #1]
 8007fde:	f930 3012 	ldrsh.w	r3, [r0, r2, lsl #1]
 8007fe2:	eb06 0286 	add.w	r2, r6, r6, lsl #2
 8007fe6:	fb02 f101 	mul.w	r1, r2, r1
 8007fea:	fb02 f303 	mul.w	r3, r2, r3
 8007fee:	fb02 f205 	mul.w	r2, r2, r5
 8007ff2:	481b      	ldr	r0, [pc, #108]	; (8008060 <SetPWMFastTable+0xdc>)
 8007ff4:	f501 517f 	add.w	r1, r1, #16320	; 0x3fc0
 8007ff8:	f503 537f 	add.w	r3, r3, #16320	; 0x3fc0
 8007ffc:	f502 527f 	add.w	r2, r2, #16320	; 0x3fc0
 8008000:	313f      	adds	r1, #63	; 0x3f
 8008002:	333f      	adds	r3, #63	; 0x3f
 8008004:	323f      	adds	r2, #63	; 0x3f
 8008006:	fb80 5601 	smull	r5, r6, r0, r1
 800800a:	fb80 7503 	smull	r7, r5, r0, r3
 800800e:	fb80 7002 	smull	r7, r0, r0, r2
 8008012:	440e      	add	r6, r1
 8008014:	441d      	add	r5, r3
 8008016:	4410      	add	r0, r2
 8008018:	17c9      	asrs	r1, r1, #31
 800801a:	17db      	asrs	r3, r3, #31
 800801c:	17d2      	asrs	r2, r2, #31
 800801e:	ebc1 31a6 	rsb	r1, r1, r6, asr #14
 8008022:	ebc3 33a5 	rsb	r3, r3, r5, asr #14
 8008026:	ebc2 32a0 	rsb	r2, r2, r0, asr #14
 800802a:	f501 71fa 	add.w	r1, r1, #500	; 0x1f4
 800802e:	f503 73fa 	add.w	r3, r3, #500	; 0x1f4
 8008032:	f502 72fa 	add.w	r2, r2, #500	; 0x1f4
 8008036:	6061      	str	r1, [r4, #4]
 8008038:	60a3      	str	r3, [r4, #8]
 800803a:	6022      	str	r2, [r4, #0]
 800803c:	bdf8      	pop	{r3, r4, r5, r6, r7, pc}
 800803e:	463d      	mov	r5, r7
 8008040:	e7ac      	b.n	8007f9c <SetPWMFastTable+0x18>
 8008042:	3b01      	subs	r3, #1
 8008044:	ea6f 5383 	mvn.w	r3, r3, lsl #22
 8008048:	ea6f 5393 	mvn.w	r3, r3, lsr #22
 800804c:	3301      	adds	r3, #1
 800804e:	e7b5      	b.n	8007fbc <SetPWMFastTable+0x38>
 8008050:	20000038 	.word	0x20000038
 8008054:	40c90fdb 	.word	0x40c90fdb
 8008058:	800003ff 	.word	0x800003ff
 800805c:	2000501c 	.word	0x2000501c
 8008060:	80010003 	.word	0x80010003

08008064 <SetRollMotor>:
 8008064:	b500      	push	{lr}
 8008066:	b085      	sub	sp, #20
 8008068:	460a      	mov	r2, r1
 800806a:	4601      	mov	r1, r0
 800806c:	a801      	add	r0, sp, #4
 800806e:	f7ff ff89 	bl	8007f84 <SetPWMFastTable>
 8008072:	b672      	cpsid	i
 8008074:	4b09      	ldr	r3, [pc, #36]	; (800809c <SetRollMotor+0x38>)
 8008076:	a801      	add	r0, sp, #4
 8008078:	c807      	ldmia	r0, {r0, r1, r2}
 800807a:	e883 0007 	stmia.w	r3, {r0, r1, r2}
 800807e:	b662      	cpsie	i
 8008080:	b672      	cpsid	i
 8008082:	4a07      	ldr	r2, [pc, #28]	; (80080a0 <SetRollMotor+0x3c>)
 8008084:	2101      	movs	r1, #1
 8008086:	8a13      	ldrh	r3, [r2, #16]
 8008088:	f023 0301 	bic.w	r3, r3, #1
 800808c:	041b      	lsls	r3, r3, #16
 800808e:	0c1b      	lsrs	r3, r3, #16
 8008090:	8213      	strh	r3, [r2, #16]
 8008092:	8191      	strh	r1, [r2, #12]
 8008094:	b662      	cpsie	i
 8008096:	b005      	add	sp, #20
 8008098:	f85d fb04 	ldr.w	pc, [sp], #4
 800809c:	20000e84 	.word	0x20000e84
 80080a0:	40013400 	.word	0x40013400

080080a4 <SetPitchMotor>:
 80080a4:	b500      	push	{lr}
 80080a6:	b085      	sub	sp, #20
 80080a8:	460a      	mov	r2, r1
 80080aa:	4601      	mov	r1, r0
 80080ac:	a801      	add	r0, sp, #4
 80080ae:	f7ff ff69 	bl	8007f84 <SetPWMFastTable>
 80080b2:	b672      	cpsid	i
 80080b4:	4b09      	ldr	r3, [pc, #36]	; (80080dc <SetPitchMotor+0x38>)
 80080b6:	a801      	add	r0, sp, #4
 80080b8:	c807      	ldmia	r0, {r0, r1, r2}
 80080ba:	e883 0007 	stmia.w	r3, {r0, r1, r2}
 80080be:	b662      	cpsie	i
 80080c0:	b672      	cpsid	i
 80080c2:	4a07      	ldr	r2, [pc, #28]	; (80080e0 <SetPitchMotor+0x3c>)
 80080c4:	2101      	movs	r1, #1
 80080c6:	8a13      	ldrh	r3, [r2, #16]
 80080c8:	f023 0301 	bic.w	r3, r3, #1
 80080cc:	041b      	lsls	r3, r3, #16
 80080ce:	0c1b      	lsrs	r3, r3, #16
 80080d0:	8213      	strh	r3, [r2, #16]
 80080d2:	8191      	strh	r1, [r2, #12]
 80080d4:	b662      	cpsie	i
 80080d6:	b005      	add	sp, #20
 80080d8:	f85d fb04 	ldr.w	pc, [sp], #4
 80080dc:	20000e90 	.word	0x20000e90
 80080e0:	40012c00 	.word	0x40012c00

080080e4 <SetYawMotor>:
 80080e4:	b500      	push	{lr}
 80080e6:	b085      	sub	sp, #20
 80080e8:	460a      	mov	r2, r1
 80080ea:	4601      	mov	r1, r0
 80080ec:	a801      	add	r0, sp, #4
 80080ee:	f7ff ff49 	bl	8007f84 <SetPWMFastTable>
 80080f2:	a801      	add	r0, sp, #4
 80080f4:	f7ff ff28 	bl	8007f48 <LimitYawPWM>
 80080f8:	b672      	cpsid	i
 80080fa:	4b0b      	ldr	r3, [pc, #44]	; (8008128 <SetYawMotor+0x44>)
 80080fc:	a801      	add	r0, sp, #4
 80080fe:	c807      	ldmia	r0, {r0, r1, r2}
 8008100:	e883 0007 	stmia.w	r3, {r0, r1, r2}
 8008104:	b662      	cpsie	i
 8008106:	4b09      	ldr	r3, [pc, #36]	; (800812c <SetYawMotor+0x48>)
 8008108:	2200      	movs	r2, #0
 800810a:	601a      	str	r2, [r3, #0]
 800810c:	b672      	cpsid	i
 800810e:	4a08      	ldr	r2, [pc, #32]	; (8008130 <SetYawMotor+0x4c>)
 8008110:	2101      	movs	r1, #1
 8008112:	8a13      	ldrh	r3, [r2, #16]
 8008114:	f023 0301 	bic.w	r3, r3, #1
 8008118:	041b      	lsls	r3, r3, #16
 800811a:	0c1b      	lsrs	r3, r3, #16
 800811c:	8213      	strh	r3, [r2, #16]
 800811e:	8191      	strh	r1, [r2, #12]
 8008120:	b662      	cpsie	i
 8008122:	b005      	add	sp, #20
 8008124:	f85d fb04 	ldr.w	pc, [sp], #4
 8008128:	20000e9c 	.word	0x20000e9c
 800812c:	20000040 	.word	0x20000040
 8008130:	40000c00 	.word	0x40000c00

08008134 <TIM5_IRQHandler>:
 8008134:	4b27      	ldr	r3, [pc, #156]	; (80081d4 <TIM5_IRQHandler+0xa0>)
 8008136:	b4f0      	push	{r4, r5, r6, r7}
 8008138:	8a1a      	ldrh	r2, [r3, #16]
 800813a:	07d2      	lsls	r2, r2, #31
 800813c:	d51a      	bpl.n	8008174 <TIM5_IRQHandler+0x40>
 800813e:	8a1a      	ldrh	r2, [r3, #16]
 8008140:	f022 0201 	bic.w	r2, r2, #1
 8008144:	0412      	lsls	r2, r2, #16
 8008146:	0c12      	lsrs	r2, r2, #16
 8008148:	821a      	strh	r2, [r3, #16]
 800814a:	b672      	cpsid	i
 800814c:	4a22      	ldr	r2, [pc, #136]	; (80081d8 <TIM5_IRQHandler+0xa4>)
 800814e:	4923      	ldr	r1, [pc, #140]	; (80081dc <TIM5_IRQHandler+0xa8>)
 8008150:	6894      	ldr	r4, [r2, #8]
 8008152:	8c9b      	ldrh	r3, [r3, #36]	; 0x24
 8008154:	6888      	ldr	r0, [r1, #8]
 8008156:	3401      	adds	r4, #1
 8008158:	b29b      	uxth	r3, r3
 800815a:	6094      	str	r4, [r2, #8]
 800815c:	4a20      	ldr	r2, [pc, #128]	; (80081e0 <TIM5_IRQHandler+0xac>)
 800815e:	4283      	cmp	r3, r0
 8008160:	bfc8      	it	gt
 8008162:	608b      	strgt	r3, [r1, #8]
 8008164:	6891      	ldr	r1, [r2, #8]
 8008166:	428b      	cmp	r3, r1
 8008168:	bfb8      	it	lt
 800816a:	6093      	strlt	r3, [r2, #8]
 800816c:	f5b3 7f48 	cmp.w	r3, #800	; 0x320
 8008170:	d302      	bcc.n	8008178 <TIM5_IRQHandler+0x44>
 8008172:	b662      	cpsie	i
 8008174:	bcf0      	pop	{r4, r5, r6, r7}
 8008176:	4770      	bx	lr
 8008178:	4b1a      	ldr	r3, [pc, #104]	; (80081e4 <TIM5_IRQHandler+0xb0>)
 800817a:	681b      	ldr	r3, [r3, #0]
 800817c:	b9eb      	cbnz	r3, 80081ba <TIM5_IRQHandler+0x86>
 800817e:	4b1a      	ldr	r3, [pc, #104]	; (80081e8 <TIM5_IRQHandler+0xb4>)
 8008180:	4a1a      	ldr	r2, [pc, #104]	; (80081ec <TIM5_IRQHandler+0xb8>)
 8008182:	681b      	ldr	r3, [r3, #0]
 8008184:	8814      	ldrh	r4, [r2, #0]
 8008186:	8890      	ldrh	r0, [r2, #4]
 8008188:	8911      	ldrh	r1, [r2, #8]
 800818a:	005b      	lsls	r3, r3, #1
 800818c:	b29b      	uxth	r3, r3
 800818e:	4a18      	ldr	r2, [pc, #96]	; (80081f0 <TIM5_IRQHandler+0xbc>)
 8008190:	191f      	adds	r7, r3, r4
 8008192:	181e      	adds	r6, r3, r0
 8008194:	185d      	adds	r5, r3, r1
 8008196:	4b0f      	ldr	r3, [pc, #60]	; (80081d4 <TIM5_IRQHandler+0xa0>)
 8008198:	b2bf      	uxth	r7, r7
 800819a:	b2b6      	uxth	r6, r6
 800819c:	b2ad      	uxth	r5, r5
 800819e:	8697      	strh	r7, [r2, #52]	; 0x34
 80081a0:	8716      	strh	r6, [r2, #56]	; 0x38
 80081a2:	8795      	strh	r5, [r2, #60]	; 0x3c
 80081a4:	869c      	strh	r4, [r3, #52]	; 0x34
 80081a6:	8718      	strh	r0, [r3, #56]	; 0x38
 80081a8:	8799      	strh	r1, [r3, #60]	; 0x3c
 80081aa:	4a0a      	ldr	r2, [pc, #40]	; (80081d4 <TIM5_IRQHandler+0xa0>)
 80081ac:	8993      	ldrh	r3, [r2, #12]
 80081ae:	f023 0301 	bic.w	r3, r3, #1
 80081b2:	041b      	lsls	r3, r3, #16
 80081b4:	0c1b      	lsrs	r3, r3, #16
 80081b6:	8193      	strh	r3, [r2, #12]
 80081b8:	e7db      	b.n	8008172 <TIM5_IRQHandler+0x3e>
 80081ba:	490d      	ldr	r1, [pc, #52]	; (80081f0 <TIM5_IRQHandler+0xbc>)
 80081bc:	4b05      	ldr	r3, [pc, #20]	; (80081d4 <TIM5_IRQHandler+0xa0>)
 80081be:	f240 30e9 	movw	r0, #1001	; 0x3e9
 80081c2:	2200      	movs	r2, #0
 80081c4:	8688      	strh	r0, [r1, #52]	; 0x34
 80081c6:	8708      	strh	r0, [r1, #56]	; 0x38
 80081c8:	8788      	strh	r0, [r1, #60]	; 0x3c
 80081ca:	869a      	strh	r2, [r3, #52]	; 0x34
 80081cc:	871a      	strh	r2, [r3, #56]	; 0x38
 80081ce:	879a      	strh	r2, [r3, #60]	; 0x3c
 80081d0:	e7eb      	b.n	80081aa <TIM5_IRQHandler+0x76>
 80081d2:	bf00      	nop
 80081d4:	40000c00 	.word	0x40000c00
 80081d8:	20005010 	.word	0x20005010
 80081dc:	20004ff8 	.word	0x20004ff8
 80081e0:	20005004 	.word	0x20005004
 80081e4:	20000040 	.word	0x20000040
 80081e8:	2000003c 	.word	0x2000003c
 80081ec:	20000e9c 	.word	0x20000e9c
 80081f0:	40000800 	.word	0x40000800

080081f4 <TIM1_UP_IRQHandler>:
 80081f4:	4a17      	ldr	r2, [pc, #92]	; (8008254 <TIM1_UP_IRQHandler+0x60>)
 80081f6:	b410      	push	{r4}
 80081f8:	8a13      	ldrh	r3, [r2, #16]
 80081fa:	f023 0301 	bic.w	r3, r3, #1
 80081fe:	041b      	lsls	r3, r3, #16
 8008200:	0c1b      	lsrs	r3, r3, #16
 8008202:	8213      	strh	r3, [r2, #16]
 8008204:	b672      	cpsid	i
 8008206:	4814      	ldr	r0, [pc, #80]	; (8008258 <TIM1_UP_IRQHandler+0x64>)
 8008208:	8c93      	ldrh	r3, [r2, #36]	; 0x24
 800820a:	4914      	ldr	r1, [pc, #80]	; (800825c <TIM1_UP_IRQHandler+0x68>)
 800820c:	6842      	ldr	r2, [r0, #4]
 800820e:	b29b      	uxth	r3, r3
 8008210:	684c      	ldr	r4, [r1, #4]
 8008212:	4293      	cmp	r3, r2
 8008214:	4a12      	ldr	r2, [pc, #72]	; (8008260 <TIM1_UP_IRQHandler+0x6c>)
 8008216:	f104 0401 	add.w	r4, r4, #1
 800821a:	604c      	str	r4, [r1, #4]
 800821c:	6851      	ldr	r1, [r2, #4]
 800821e:	bfc8      	it	gt
 8008220:	6043      	strgt	r3, [r0, #4]
 8008222:	428b      	cmp	r3, r1
 8008224:	bfb8      	it	lt
 8008226:	6053      	strlt	r3, [r2, #4]
 8008228:	f5b3 7f48 	cmp.w	r3, #800	; 0x320
 800822c:	d20d      	bcs.n	800824a <TIM1_UP_IRQHandler+0x56>
 800822e:	4a0d      	ldr	r2, [pc, #52]	; (8008264 <TIM1_UP_IRQHandler+0x70>)
 8008230:	4b08      	ldr	r3, [pc, #32]	; (8008254 <TIM1_UP_IRQHandler+0x60>)
 8008232:	8810      	ldrh	r0, [r2, #0]
 8008234:	8891      	ldrh	r1, [r2, #4]
 8008236:	8912      	ldrh	r2, [r2, #8]
 8008238:	8698      	strh	r0, [r3, #52]	; 0x34
 800823a:	8719      	strh	r1, [r3, #56]	; 0x38
 800823c:	879a      	strh	r2, [r3, #60]	; 0x3c
 800823e:	899a      	ldrh	r2, [r3, #12]
 8008240:	f022 0201 	bic.w	r2, r2, #1
 8008244:	0412      	lsls	r2, r2, #16
 8008246:	0c12      	lsrs	r2, r2, #16
 8008248:	819a      	strh	r2, [r3, #12]
 800824a:	b662      	cpsie	i
 800824c:	f85d 4b04 	ldr.w	r4, [sp], #4
 8008250:	4770      	bx	lr
 8008252:	bf00      	nop
 8008254:	40012c00 	.word	0x40012c00
 8008258:	20004ff8 	.word	0x20004ff8
 800825c:	20005010 	.word	0x20005010
 8008260:	20005004 	.word	0x20005004
 8008264:	20000e90 	.word	0x20000e90

08008268 <TIM8_UP_IRQHandler>:
 8008268:	4a17      	ldr	r2, [pc, #92]	; (80082c8 <TIM8_UP_IRQHandler+0x60>)
 800826a:	b410      	push	{r4}
 800826c:	8a13      	ldrh	r3, [r2, #16]
 800826e:	f023 0301 	bic.w	r3, r3, #1
 8008272:	041b      	lsls	r3, r3, #16
 8008274:	0c1b      	lsrs	r3, r3, #16
 8008276:	8213      	strh	r3, [r2, #16]
 8008278:	b672      	cpsid	i
 800827a:	4814      	ldr	r0, [pc, #80]	; (80082cc <TIM8_UP_IRQHandler+0x64>)
 800827c:	8c93      	ldrh	r3, [r2, #36]	; 0x24
 800827e:	4914      	ldr	r1, [pc, #80]	; (80082d0 <TIM8_UP_IRQHandler+0x68>)
 8008280:	6802      	ldr	r2, [r0, #0]
 8008282:	b29b      	uxth	r3, r3
 8008284:	680c      	ldr	r4, [r1, #0]
 8008286:	4293      	cmp	r3, r2
 8008288:	4a12      	ldr	r2, [pc, #72]	; (80082d4 <TIM8_UP_IRQHandler+0x6c>)
 800828a:	f104 0401 	add.w	r4, r4, #1
 800828e:	600c      	str	r4, [r1, #0]
 8008290:	6811      	ldr	r1, [r2, #0]
 8008292:	bfc8      	it	gt
 8008294:	6003      	strgt	r3, [r0, #0]
 8008296:	428b      	cmp	r3, r1
 8008298:	bfb8      	it	lt
 800829a:	6013      	strlt	r3, [r2, #0]
 800829c:	f5b3 7f48 	cmp.w	r3, #800	; 0x320
 80082a0:	d20d      	bcs.n	80082be <TIM8_UP_IRQHandler+0x56>
 80082a2:	4a0d      	ldr	r2, [pc, #52]	; (80082d8 <TIM8_UP_IRQHandler+0x70>)
 80082a4:	4b08      	ldr	r3, [pc, #32]	; (80082c8 <TIM8_UP_IRQHandler+0x60>)
 80082a6:	8810      	ldrh	r0, [r2, #0]
 80082a8:	8891      	ldrh	r1, [r2, #4]
 80082aa:	8912      	ldrh	r2, [r2, #8]
 80082ac:	8698      	strh	r0, [r3, #52]	; 0x34
 80082ae:	8719      	strh	r1, [r3, #56]	; 0x38
 80082b0:	879a      	strh	r2, [r3, #60]	; 0x3c
 80082b2:	899a      	ldrh	r2, [r3, #12]
 80082b4:	f022 0201 	bic.w	r2, r2, #1
 80082b8:	0412      	lsls	r2, r2, #16
 80082ba:	0c12      	lsrs	r2, r2, #16
 80082bc:	819a      	strh	r2, [r3, #12]
 80082be:	b662      	cpsie	i
 80082c0:	f85d 4b04 	ldr.w	r4, [sp], #4
 80082c4:	4770      	bx	lr
 80082c6:	bf00      	nop
 80082c8:	40013400 	.word	0x40013400
 80082cc:	20004ff8 	.word	0x20004ff8
 80082d0:	20005010 	.word	0x20005010
 80082d4:	20005004 	.word	0x20005004
 80082d8:	20000e84 	.word	0x20000e84

080082dc <PWMOff>:
 80082dc:	b510      	push	{r4, lr}
 80082de:	2041      	movs	r0, #65	; 0x41
 80082e0:	f000 f966 	bl	80085b0 <DEBUG_PutChar>
 80082e4:	b672      	cpsid	i
 80082e6:	4a0b      	ldr	r2, [pc, #44]	; (8008314 <PWMOff+0x38>)
 80082e8:	2300      	movs	r3, #0
 80082ea:	6013      	str	r3, [r2, #0]
 80082ec:	6053      	str	r3, [r2, #4]
 80082ee:	6093      	str	r3, [r2, #8]
 80082f0:	b662      	cpsie	i
 80082f2:	b672      	cpsid	i
 80082f4:	4a08      	ldr	r2, [pc, #32]	; (8008318 <PWMOff+0x3c>)
 80082f6:	6013      	str	r3, [r2, #0]
 80082f8:	6053      	str	r3, [r2, #4]
 80082fa:	6093      	str	r3, [r2, #8]
 80082fc:	b662      	cpsie	i
 80082fe:	4c07      	ldr	r4, [pc, #28]	; (800831c <PWMOff+0x40>)
 8008300:	4807      	ldr	r0, [pc, #28]	; (8008320 <PWMOff+0x44>)
 8008302:	4908      	ldr	r1, [pc, #32]	; (8008324 <PWMOff+0x48>)
 8008304:	4a08      	ldr	r2, [pc, #32]	; (8008328 <PWMOff+0x4c>)
 8008306:	2301      	movs	r3, #1
 8008308:	6023      	str	r3, [r4, #0]
 800830a:	8183      	strh	r3, [r0, #12]
 800830c:	818b      	strh	r3, [r1, #12]
 800830e:	8193      	strh	r3, [r2, #12]
 8008310:	bd10      	pop	{r4, pc}
 8008312:	bf00      	nop
 8008314:	20000e84 	.word	0x20000e84
 8008318:	20000e90 	.word	0x20000e90
 800831c:	20000040 	.word	0x20000040
 8008320:	40000c00 	.word	0x40000c00
 8008324:	40012c00 	.word	0x40012c00
 8008328:	40013400 	.word	0x40013400

0800832c <PWMConfig>:
 800832c:	e92d 43f0 	stmdb	sp!, {r4, r5, r6, r7, r8, r9, lr}
 8008330:	f8df 8108 	ldr.w	r8, [pc, #264]	; 800843c <PWMConfig+0x110>
 8008334:	4b37      	ldr	r3, [pc, #220]	; (8008414 <PWMConfig+0xe8>)
 8008336:	4938      	ldr	r1, [pc, #224]	; (8008418 <PWMConfig+0xec>)
 8008338:	4d38      	ldr	r5, [pc, #224]	; (800841c <PWMConfig+0xf0>)
 800833a:	4e39      	ldr	r6, [pc, #228]	; (8008420 <PWMConfig+0xf4>)
 800833c:	b083      	sub	sp, #12
 800833e:	2400      	movs	r4, #0
 8008340:	f240 32e9 	movw	r2, #1001	; 0x3e9
 8008344:	4640      	mov	r0, r8
 8008346:	f8df 90f8 	ldr.w	r9, [pc, #248]	; 8008440 <PWMConfig+0x114>
 800834a:	609a      	str	r2, [r3, #8]
 800834c:	605a      	str	r2, [r3, #4]
 800834e:	601a      	str	r2, [r3, #0]
 8008350:	608c      	str	r4, [r1, #8]
 8008352:	604c      	str	r4, [r1, #4]
 8008354:	600c      	str	r4, [r1, #0]
 8008356:	60ac      	str	r4, [r5, #8]
 8008358:	606c      	str	r4, [r5, #4]
 800835a:	602c      	str	r4, [r5, #0]
 800835c:	4f31      	ldr	r7, [pc, #196]	; (8008424 <PWMConfig+0xf8>)
 800835e:	f7ff fda5 	bl	8007eac <Timer_PWM_Advanced_Config>
 8008362:	4630      	mov	r0, r6
 8008364:	f7ff fda2 	bl	8007eac <Timer_PWM_Advanced_Config>
 8008368:	4621      	mov	r1, r4
 800836a:	4648      	mov	r0, r9
 800836c:	f7ff fd78 	bl	8007e60 <Timer_PWM_General_Config>
 8008370:	4638      	mov	r0, r7
 8008372:	2102      	movs	r1, #2
 8008374:	f7ff fd74 	bl	8007e60 <Timer_PWM_General_Config>
 8008378:	4b2b      	ldr	r3, [pc, #172]	; (8008428 <PWMConfig+0xfc>)
 800837a:	2501      	movs	r5, #1
 800837c:	881b      	ldrh	r3, [r3, #0]
 800837e:	a801      	add	r0, sp, #4
 8008380:	f503 71a8 	add.w	r1, r3, #336	; 0x150
 8008384:	f203 229f 	addw	r2, r3, #671	; 0x29f
 8008388:	b289      	uxth	r1, r1
 800838a:	b292      	uxth	r2, r2
 800838c:	84bb      	strh	r3, [r7, #36]	; 0x24
 800838e:	f8a8 1024 	strh.w	r1, [r8, #36]	; 0x24
 8008392:	2332      	movs	r3, #50	; 0x32
 8008394:	84b2      	strh	r2, [r6, #36]	; 0x24
 8008396:	f88d 3004 	strb.w	r3, [sp, #4]
 800839a:	f88d 4005 	strb.w	r4, [sp, #5]
 800839e:	f88d 4006 	strb.w	r4, [sp, #6]
 80083a2:	f88d 5007 	strb.w	r5, [sp, #7]
 80083a6:	f7fd fbf5 	bl	8005b94 <NVIC_Init>
 80083aa:	a801      	add	r0, sp, #4
 80083ac:	2319      	movs	r3, #25
 80083ae:	f88d 3004 	strb.w	r3, [sp, #4]
 80083b2:	f88d 4005 	strb.w	r4, [sp, #5]
 80083b6:	f88d 4006 	strb.w	r4, [sp, #6]
 80083ba:	f88d 5007 	strb.w	r5, [sp, #7]
 80083be:	f7fd fbe9 	bl	8005b94 <NVIC_Init>
 80083c2:	232c      	movs	r3, #44	; 0x2c
 80083c4:	a801      	add	r0, sp, #4
 80083c6:	f88d 4005 	strb.w	r4, [sp, #5]
 80083ca:	f88d 4006 	strb.w	r4, [sp, #6]
 80083ce:	f88d 5007 	strb.w	r5, [sp, #7]
 80083d2:	f88d 3004 	strb.w	r3, [sp, #4]
 80083d6:	f7fd fbdd 	bl	8005b94 <NVIC_Init>
 80083da:	b672      	cpsid	i
 80083dc:	4a13      	ldr	r2, [pc, #76]	; (800842c <PWMConfig+0x100>)
 80083de:	4b14      	ldr	r3, [pc, #80]	; (8008430 <PWMConfig+0x104>)
 80083e0:	4914      	ldr	r1, [pc, #80]	; (8008434 <PWMConfig+0x108>)
 80083e2:	4c15      	ldr	r4, [pc, #84]	; (8008438 <PWMConfig+0x10c>)
 80083e4:	600d      	str	r5, [r1, #0]
 80083e6:	4648      	mov	r0, r9
 80083e8:	6025      	str	r5, [r4, #0]
 80083ea:	4629      	mov	r1, r5
 80083ec:	6015      	str	r5, [r2, #0]
 80083ee:	601d      	str	r5, [r3, #0]
 80083f0:	f7fd fd5a 	bl	8005ea8 <TIM_CtrlPWMOutputs>
 80083f4:	4638      	mov	r0, r7
 80083f6:	4629      	mov	r1, r5
 80083f8:	f7fd fd56 	bl	8005ea8 <TIM_CtrlPWMOutputs>
 80083fc:	4640      	mov	r0, r8
 80083fe:	4629      	mov	r1, r5
 8008400:	f7fd fd52 	bl	8005ea8 <TIM_CtrlPWMOutputs>
 8008404:	4630      	mov	r0, r6
 8008406:	4629      	mov	r1, r5
 8008408:	f7fd fd4e 	bl	8005ea8 <TIM_CtrlPWMOutputs>
 800840c:	b662      	cpsie	i
 800840e:	b003      	add	sp, #12
 8008410:	e8bd 83f0 	ldmia.w	sp!, {r4, r5, r6, r7, r8, r9, pc}
 8008414:	20005004 	.word	0x20005004
 8008418:	20004ff8 	.word	0x20004ff8
 800841c:	20005010 	.word	0x20005010
 8008420:	40013400 	.word	0x40013400
 8008424:	40000800 	.word	0x40000800
 8008428:	2000003c 	.word	0x2000003c
 800842c:	42258000 	.word	0x42258000
 8008430:	42268000 	.word	0x42268000
 8008434:	42018000 	.word	0x42018000
 8008438:	42010000 	.word	0x42010000
 800843c:	40012c00 	.word	0x40012c00
 8008440:	40000c00 	.word	0x40000c00

08008444 <NMI_Handler>:
 8008444:	4770      	bx	lr
 8008446:	bf00      	nop

08008448 <HardFault_Handler>:
 8008448:	e7fe      	b.n	8008448 <HardFault_Handler>
 800844a:	bf00      	nop

0800844c <MemManage_Handler>:
 800844c:	e7fe      	b.n	800844c <MemManage_Handler>
 800844e:	bf00      	nop

08008450 <BusFault_Handler>:
 8008450:	e7fe      	b.n	8008450 <BusFault_Handler>
 8008452:	bf00      	nop

08008454 <UsageFault_Handler>:
 8008454:	e7fe      	b.n	8008454 <UsageFault_Handler>
 8008456:	bf00      	nop

08008458 <SVC_Handler>:
 8008458:	4770      	bx	lr
 800845a:	bf00      	nop

0800845c <DebugMon_Handler>:
 800845c:	4770      	bx	lr
 800845e:	bf00      	nop

08008460 <PendSV_Handler>:
 8008460:	4770      	bx	lr
 8008462:	bf00      	nop

08008464 <USB_LP_CAN1_RX0_IRQHandler>:
 8008464:	f001 bc26 	b.w	8009cb4 <USB_Istr>

08008468 <USBWakeUp_IRQHandler>:
 8008468:	f44f 2080 	mov.w	r0, #262144	; 0x40000
 800846c:	f7fd bb0a 	b.w	8005a84 <EXTI_ClearITPendingBit>

08008470 <ReadFromEEPROM>:
 8008470:	b538      	push	{r3, r4, r5, lr}
 8008472:	4605      	mov	r5, r0
 8008474:	4c17      	ldr	r4, [pc, #92]	; (80084d4 <ReadFromEEPROM+0x64>)
 8008476:	2001      	movs	r0, #1
 8008478:	f7ff fc24 	bl	8007cc4 <Delay_ms>
 800847c:	2300      	movs	r3, #0
 800847e:	6023      	str	r3, [r4, #0]
 8008480:	f7fd ff1c 	bl	80062bc <I2C1_Start>
 8008484:	20ae      	movs	r0, #174	; 0xae
 8008486:	f7fd ffbf 	bl	8006408 <I2C1_SendByte>
 800848a:	f7fe f82d 	bl	80064e8 <I2C1_WaitAck>
 800848e:	4628      	mov	r0, r5
 8008490:	f7fd ffba 	bl	8006408 <I2C1_SendByte>
 8008494:	f7fe f828 	bl	80064e8 <I2C1_WaitAck>
 8008498:	f7fd ff38 	bl	800630c <I2C1_Stop>
 800849c:	2001      	movs	r0, #1
 800849e:	f7ff fc11 	bl	8007cc4 <Delay_ms>
 80084a2:	f7fd ff0b 	bl	80062bc <I2C1_Start>
 80084a6:	20af      	movs	r0, #175	; 0xaf
 80084a8:	f7fd ffae 	bl	8006408 <I2C1_SendByte>
 80084ac:	f7fe f81c 	bl	80064e8 <I2C1_WaitAck>
 80084b0:	f7fd ffe0 	bl	8006474 <I2C1_ReceiveByte>
 80084b4:	4605      	mov	r5, r0
 80084b6:	f7fd ff7d 	bl	80063b4 <I2C1_NoAck>
 80084ba:	f7fd ff27 	bl	800630c <I2C1_Stop>
 80084be:	2001      	movs	r0, #1
 80084c0:	f7ff fc00 	bl	8007cc4 <Delay_ms>
 80084c4:	6823      	ldr	r3, [r4, #0]
 80084c6:	2b00      	cmp	r3, #0
 80084c8:	bf0c      	ite	eq
 80084ca:	4628      	moveq	r0, r5
 80084cc:	f04f 30ff 	movne.w	r0, #4294967295
 80084d0:	bd38      	pop	{r3, r4, r5, pc}
 80084d2:	bf00      	nop
 80084d4:	20000f1c 	.word	0x20000f1c

080084d8 <ComInit>:
 80084d8:	b508      	push	{r3, lr}
 80084da:	f7fe f8ed 	bl	80066b8 <Usart4Init>
 80084de:	4807      	ldr	r0, [pc, #28]	; (80084fc <ComInit+0x24>)
 80084e0:	f7fe f872 	bl	80065c8 <USART_PutString>
 80084e4:	f7fe f866 	bl	80065b4 <USART_Flush>
 80084e8:	f7fe f982 	bl	80067f0 <setupUSB>
 80084ec:	4804      	ldr	r0, [pc, #16]	; (8008500 <ComInit+0x28>)
 80084ee:	f7fe f86b 	bl	80065c8 <USART_PutString>
 80084f2:	e8bd 4008 	ldmia.w	sp!, {r3, lr}
 80084f6:	f7fe b85d 	b.w	80065b4 <USART_Flush>
 80084fa:	bf00      	nop
 80084fc:	0800f260 	.word	0x0800f260
 8008500:	0800f270 	.word	0x0800f270

08008504 <print>:
 8008504:	b40f      	push	{r0, r1, r2, r3}
 8008506:	b510      	push	{r4, lr}
 8008508:	b0c2      	sub	sp, #264	; 0x108
 800850a:	ac44      	add	r4, sp, #272	; 0x110
 800850c:	f854 2b04 	ldr.w	r2, [r4], #4
 8008510:	21ff      	movs	r1, #255	; 0xff
 8008512:	4623      	mov	r3, r4
 8008514:	a802      	add	r0, sp, #8
 8008516:	9401      	str	r4, [sp, #4]
 8008518:	f003 f88a 	bl	800b630 <vsnprintf>
 800851c:	a802      	add	r0, sp, #8
 800851e:	f7fe f853 	bl	80065c8 <USART_PutString>
 8008522:	a802      	add	r0, sp, #8
 8008524:	f003 f82a 	bl	800b57c <strlen>
 8008528:	4601      	mov	r1, r0
 800852a:	a802      	add	r0, sp, #8
 800852c:	f7fe f974 	bl	8006818 <usbSendBytes>
 8008530:	b042      	add	sp, #264	; 0x108
 8008532:	e8bd 4010 	ldmia.w	sp!, {r4, lr}
 8008536:	b004      	add	sp, #16
 8008538:	4770      	bx	lr
 800853a:	bf00      	nop

0800853c <UnGetChar>:
 800853c:	4b01      	ldr	r3, [pc, #4]	; (8008544 <UnGetChar+0x8>)
 800853e:	6018      	str	r0, [r3, #0]
 8008540:	4770      	bx	lr
 8008542:	bf00      	nop
 8008544:	20000048 	.word	0x20000048

08008548 <GetChar>:
 8008548:	b500      	push	{lr}
 800854a:	4b0c      	ldr	r3, [pc, #48]	; (800857c <GetChar+0x34>)
 800854c:	b083      	sub	sp, #12
 800854e:	6818      	ldr	r0, [r3, #0]
 8008550:	2800      	cmp	r0, #0
 8008552:	db05      	blt.n	8008560 <GetChar+0x18>
 8008554:	f04f 32ff 	mov.w	r2, #4294967295
 8008558:	601a      	str	r2, [r3, #0]
 800855a:	b003      	add	sp, #12
 800855c:	f85d fb04 	ldr.w	pc, [sp], #4
 8008560:	f7fe f96a 	bl	8006838 <usbBytesAvailable>
 8008564:	b138      	cbz	r0, 8008576 <GetChar+0x2e>
 8008566:	f10d 0007 	add.w	r0, sp, #7
 800856a:	2101      	movs	r1, #1
 800856c:	f7fe f96a 	bl	8006844 <usbReceiveBytes>
 8008570:	f89d 0007 	ldrb.w	r0, [sp, #7]
 8008574:	e7f1      	b.n	800855a <GetChar+0x12>
 8008576:	f7fe f811 	bl	800659c <USART_GetChar>
 800857a:	e7ee      	b.n	800855a <GetChar+0x12>
 800857c:	20000048 	.word	0x20000048

08008580 <ComFlushInput>:
 8008580:	b510      	push	{r4, lr}
 8008582:	2400      	movs	r4, #0
 8008584:	e002      	b.n	800858c <ComFlushInput+0xc>
 8008586:	2c64      	cmp	r4, #100	; 0x64
 8008588:	d004      	beq.n	8008594 <ComFlushInput+0x14>
 800858a:	3401      	adds	r4, #1
 800858c:	f7ff ffdc 	bl	8008548 <GetChar>
 8008590:	2800      	cmp	r0, #0
 8008592:	daf8      	bge.n	8008586 <ComFlushInput+0x6>
 8008594:	4620      	mov	r0, r4
 8008596:	bd10      	pop	{r4, pc}

08008598 <CharAvailable>:
 8008598:	b508      	push	{r3, lr}
 800859a:	f7fe f94d 	bl	8006838 <usbBytesAvailable>
 800859e:	b918      	cbnz	r0, 80085a8 <CharAvailable+0x10>
 80085a0:	e8bd 4008 	ldmia.w	sp!, {r3, lr}
 80085a4:	f7fe b800 	b.w	80065a8 <USART_Available>
 80085a8:	e8bd 4008 	ldmia.w	sp!, {r3, lr}
 80085ac:	f7fe b944 	b.w	8006838 <usbBytesAvailable>

080085b0 <DEBUG_PutChar>:
 80085b0:	4770      	bx	lr
 80085b2:	bf00      	nop

080085b4 <WatchDog>:
 80085b4:	b510      	push	{r4, lr}
 80085b6:	4c08      	ldr	r4, [pc, #32]	; (80085d8 <WatchDog+0x24>)
 80085b8:	6823      	ldr	r3, [r4, #0]
 80085ba:	1c5a      	adds	r2, r3, #1
 80085bc:	f5b3 7f7a 	cmp.w	r3, #1000	; 0x3e8
 80085c0:	6022      	str	r2, [r4, #0]
 80085c2:	dd08      	ble.n	80085d6 <WatchDog+0x22>
 80085c4:	f7ff fb38 	bl	8007c38 <LEDtoggle>
 80085c8:	f7ff fe88 	bl	80082dc <PWMOff>
 80085cc:	2057      	movs	r0, #87	; 0x57
 80085ce:	f7ff ffef 	bl	80085b0 <DEBUG_PutChar>
 80085d2:	2300      	movs	r3, #0
 80085d4:	6023      	str	r3, [r4, #0]
 80085d6:	bd10      	pop	{r4, pc}
 80085d8:	20000eac 	.word	0x20000eac

080085dc <Periph_clock_enable>:
 80085dc:	b508      	push	{r3, lr}
 80085de:	f642 207d 	movw	r0, #10877	; 0x2a7d
 80085e2:	2101      	movs	r1, #1
 80085e4:	f7fd fd92 	bl	800610c <RCC_APB2PeriphClockCmd>
 80085e8:	4804      	ldr	r0, [pc, #16]	; (80085fc <Periph_clock_enable+0x20>)
 80085ea:	2101      	movs	r1, #1
 80085ec:	f7fd fd9a 	bl	8006124 <RCC_APB1PeriphClockCmd>
 80085f0:	e8bd 4008 	ldmia.w	sp!, {r3, lr}
 80085f4:	2001      	movs	r0, #1
 80085f6:	4601      	mov	r1, r0
 80085f8:	f7fd bd7c 	b.w	80060f4 <RCC_AHBPeriphClockCmd>
 80085fc:	0008000f 	.word	0x0008000f

08008600 <GetIdlePerf>:
 8008600:	4b01      	ldr	r3, [pc, #4]	; (8008608 <GetIdlePerf+0x8>)
 8008602:	6818      	ldr	r0, [r3, #0]
 8008604:	4770      	bx	lr
 8008606:	bf00      	nop
 8008608:	20000ea8 	.word	0x20000ea8

0800860c <setup>:
 800860c:	b538      	push	{r3, r4, r5, lr}
 800860e:	f7fd fe2b 	bl	8006268 <InitSysTick>
 8008612:	f7ff ffe3 	bl	80085dc <Periph_clock_enable>
 8008616:	f000 fb35 	bl	8008c84 <GPIO_Config>
 800861a:	b662      	cpsie	i
 800861c:	f7ff ff5c 	bl	80084d8 <ComInit>
 8008620:	484f      	ldr	r0, [pc, #316]	; (8008760 <setup+0x154>)
 8008622:	f7ff ff6f 	bl	8008504 <print>
 8008626:	484f      	ldr	r0, [pc, #316]	; (8008764 <setup+0x158>)
 8008628:	f7ff ff6c 	bl	8008504 <print>
 800862c:	f7ff fe7e 	bl	800832c <PWMConfig>
 8008630:	2414      	movs	r4, #20
 8008632:	f7ff fb01 	bl	8007c38 <LEDtoggle>
 8008636:	f7ff fb17 	bl	8007c68 <DEBUG_LEDtoggle>
 800863a:	2064      	movs	r0, #100	; 0x64
 800863c:	f7ff fb42 	bl	8007cc4 <Delay_ms>
 8008640:	3c01      	subs	r4, #1
 8008642:	d1f6      	bne.n	8008632 <setup+0x26>
 8008644:	f7ff faf0 	bl	8007c28 <LEDoff>
 8008648:	f001 fcaa 	bl	8009fa0 <GetVCPConnectMode>
 800864c:	2800      	cmp	r0, #0
 800864e:	d059      	beq.n	8008704 <setup+0xf8>
 8008650:	4845      	ldr	r0, [pc, #276]	; (8008768 <setup+0x15c>)
 8008652:	f7ff ff57 	bl	8008504 <print>
 8008656:	f640 30b8 	movw	r0, #3000	; 0xbb8
 800865a:	f7ff fb33 	bl	8007cc4 <Delay_ms>
 800865e:	f001 fc9f 	bl	8009fa0 <GetVCPConnectMode>
 8008662:	2801      	cmp	r0, #1
 8008664:	d077      	beq.n	8008756 <setup+0x14a>
 8008666:	4841      	ldr	r0, [pc, #260]	; (800876c <setup+0x160>)
 8008668:	f7ff ff4c 	bl	8008504 <print>
 800866c:	4840      	ldr	r0, [pc, #256]	; (8008770 <setup+0x164>)
 800866e:	4941      	ldr	r1, [pc, #260]	; (8008774 <setup+0x168>)
 8008670:	f7ff ff48 	bl	8008504 <print>
 8008674:	4b40      	ldr	r3, [pc, #256]	; (8008778 <setup+0x16c>)
 8008676:	4a41      	ldr	r2, [pc, #260]	; (800877c <setup+0x170>)
 8008678:	681b      	ldr	r3, [r3, #0]
 800867a:	6811      	ldr	r1, [r2, #0]
 800867c:	f413 3f00 	tst.w	r3, #131072	; 0x20000
 8008680:	4b3f      	ldr	r3, [pc, #252]	; (8008780 <setup+0x174>)
 8008682:	bf18      	it	ne
 8008684:	483f      	ldrne	r0, [pc, #252]	; (8008784 <setup+0x178>)
 8008686:	fba3 2101 	umull	r2, r1, r3, r1
 800868a:	bf08      	it	eq
 800868c:	483e      	ldreq	r0, [pc, #248]	; (8008788 <setup+0x17c>)
 800868e:	0c89      	lsrs	r1, r1, #18
 8008690:	f7ff ff38 	bl	8008504 <print>
 8008694:	483d      	ldr	r0, [pc, #244]	; (800878c <setup+0x180>)
 8008696:	f7ff ff35 	bl	8008504 <print>
 800869a:	f7fd fd5b 	bl	8006154 <ADC_Config>
 800869e:	483c      	ldr	r0, [pc, #240]	; (8008790 <setup+0x184>)
 80086a0:	f7ff ff30 	bl	8008504 <print>
 80086a4:	240a      	movs	r4, #10
 80086a6:	f7ff f8a3 	bl	80077f0 <MPU6050_Init>
 80086aa:	3c01      	subs	r4, #1
 80086ac:	4621      	mov	r1, r4
 80086ae:	2800      	cmp	r0, #0
 80086b0:	d033      	beq.n	800871a <setup+0x10e>
 80086b2:	4838      	ldr	r0, [pc, #224]	; (8008794 <setup+0x188>)
 80086b4:	f7ff ff26 	bl	8008504 <print>
 80086b8:	f7ff fae0 	bl	8007c7c <Blink>
 80086bc:	2c00      	cmp	r4, #0
 80086be:	d1f2      	bne.n	80086a6 <setup+0x9a>
 80086c0:	4d35      	ldr	r5, [pc, #212]	; (8008798 <setup+0x18c>)
 80086c2:	4836      	ldr	r0, [pc, #216]	; (800879c <setup+0x190>)
 80086c4:	602c      	str	r4, [r5, #0]
 80086c6:	f7ff ff1d 	bl	8008504 <print>
 80086ca:	4835      	ldr	r0, [pc, #212]	; (80087a0 <setup+0x194>)
 80086cc:	f7ff ff1a 	bl	8008504 <print>
 80086d0:	f000 fb84 	bl	8008ddc <configLoad>
 80086d4:	682b      	ldr	r3, [r5, #0]
 80086d6:	bb23      	cbnz	r3, 8008722 <setup+0x116>
 80086d8:	4832      	ldr	r0, [pc, #200]	; (80087a4 <setup+0x198>)
 80086da:	f7ff ff13 	bl	8008504 <print>
 80086de:	f000 f8ff 	bl	80088e0 <RC_Config>
 80086e2:	f000 fb55 	bl	8008d90 <InitSinArray>
 80086e6:	f7ff ff4b 	bl	8008580 <ComFlushInput>
 80086ea:	2800      	cmp	r0, #0
 80086ec:	dd02      	ble.n	80086f4 <setup+0xe8>
 80086ee:	482e      	ldr	r0, [pc, #184]	; (80087a8 <setup+0x19c>)
 80086f0:	f7ff ff08 	bl	8008504 <print>
 80086f4:	482d      	ldr	r0, [pc, #180]	; (80087ac <setup+0x1a0>)
 80086f6:	f7ff ff05 	bl	8008504 <print>
 80086fa:	e8bd 4038 	ldmia.w	sp!, {r3, r4, r5, lr}
 80086fe:	482c      	ldr	r0, [pc, #176]	; (80087b0 <setup+0x1a4>)
 8008700:	f7fd bdac 	b.w	800625c <SysTickAttachCallback>
 8008704:	482b      	ldr	r0, [pc, #172]	; (80087b4 <setup+0x1a8>)
 8008706:	f7ff fefd 	bl	8008504 <print>
 800870a:	f640 30b8 	movw	r0, #3000	; 0xbb8
 800870e:	f7ff fad9 	bl	8007cc4 <Delay_ms>
 8008712:	4829      	ldr	r0, [pc, #164]	; (80087b8 <setup+0x1ac>)
 8008714:	f7ff fef6 	bl	8008504 <print>
 8008718:	e7a5      	b.n	8008666 <setup+0x5a>
 800871a:	4d1f      	ldr	r5, [pc, #124]	; (8008798 <setup+0x18c>)
 800871c:	2301      	movs	r3, #1
 800871e:	602b      	str	r3, [r5, #0]
 8008720:	e7d3      	b.n	80086ca <setup+0xbe>
 8008722:	4826      	ldr	r0, [pc, #152]	; (80087bc <setup+0x1b0>)
 8008724:	f7ff feee 	bl	8008504 <print>
 8008728:	240d      	movs	r4, #13
 800872a:	f7ff fa85 	bl	8007c38 <LEDtoggle>
 800872e:	f44f 707a 	mov.w	r0, #1000	; 0x3e8
 8008732:	f7ff fac7 	bl	8007cc4 <Delay_ms>
 8008736:	3c01      	subs	r4, #1
 8008738:	d1f7      	bne.n	800872a <setup+0x11e>
 800873a:	f7fd fd75 	bl	8006228 <millis>
 800873e:	4601      	mov	r1, r0
 8008740:	481f      	ldr	r0, [pc, #124]	; (80087c0 <setup+0x1b4>)
 8008742:	f7ff fedf 	bl	8008504 <print>
 8008746:	f7ff fa0f 	bl	8007b68 <MPU6050_Gyro_calibration>
 800874a:	481e      	ldr	r0, [pc, #120]	; (80087c4 <setup+0x1b8>)
 800874c:	f7ff feda 	bl	8008504 <print>
 8008750:	f7fe f95a 	bl	8006a08 <Init_Orientation>
 8008754:	e7c0      	b.n	80086d8 <setup+0xcc>
 8008756:	481c      	ldr	r0, [pc, #112]	; (80087c8 <setup+0x1bc>)
 8008758:	f7ff fed4 	bl	8008504 <print>
 800875c:	e783      	b.n	8008666 <setup+0x5a>
 800875e:	bf00      	nop
 8008760:	0800f284 	.word	0x0800f284
 8008764:	0800f2bc 	.word	0x0800f2bc
 8008768:	0800f2d0 	.word	0x0800f2d0
 800876c:	0800f384 	.word	0x0800f384
 8008770:	0800f3d8 	.word	0x0800f3d8
 8008774:	0800f410 	.word	0x0800f410
 8008778:	40021000 	.word	0x40021000
 800877c:	20000034 	.word	0x20000034
 8008780:	431bde83 	.word	0x431bde83
 8008784:	0800f418 	.word	0x0800f418
 8008788:	0800f450 	.word	0x0800f450
 800878c:	0800f48c 	.word	0x0800f48c
 8008790:	0800f49c 	.word	0x0800f49c
 8008794:	0800f4b0 	.word	0x0800f4b0
 8008798:	20000eb0 	.word	0x20000eb0
 800879c:	0800f5b4 	.word	0x0800f5b4
 80087a0:	0800f4dc 	.word	0x0800f4dc
 80087a4:	0800f550 	.word	0x0800f550
 80087a8:	0800f560 	.word	0x0800f560
 80087ac:	0800f59c 	.word	0x0800f59c
 80087b0:	080085b5 	.word	0x080085b5
 80087b4:	0800f320 	.word	0x0800f320
 80087b8:	0800f350 	.word	0x0800f350
 80087bc:	0800f4f0 	.word	0x0800f4f0
 80087c0:	0800f518 	.word	0x0800f518
 80087c4:	0800f53c 	.word	0x0800f53c
 80087c8:	0800f2ec 	.word	0x0800f2ec

080087cc <main>:
 80087cc:	e92d 4ff8 	stmdb	sp!, {r3, r4, r5, r6, r7, r8, r9, sl, fp, lr}
 80087d0:	f7ff ff1c 	bl	800860c <setup>
 80087d4:	f7fd fd28 	bl	8006228 <millis>
 80087d8:	4604      	mov	r4, r0
 80087da:	f7fd fd25 	bl	8006228 <millis>
 80087de:	4284      	cmp	r4, r0
 80087e0:	d0fb      	beq.n	80087da <main+0xe>
 80087e2:	f7fd fcf9 	bl	80061d8 <micros>
 80087e6:	4604      	mov	r4, r0
 80087e8:	b672      	cpsid	i
 80087ea:	2700      	movs	r7, #0
 80087ec:	f7fd fcf4 	bl	80061d8 <micros>
 80087f0:	1b00      	subs	r0, r0, r4
 80087f2:	f5b0 7ffa 	cmp.w	r0, #500	; 0x1f4
 80087f6:	f107 0701 	add.w	r7, r7, #1
 80087fa:	d3f7      	bcc.n	80087ec <main+0x20>
 80087fc:	b662      	cpsie	i
 80087fe:	f7fd fceb 	bl	80061d8 <micros>
 8008802:	f8df a094 	ldr.w	sl, [pc, #148]	; 8008898 <main+0xcc>
 8008806:	f8df 9094 	ldr.w	r9, [pc, #148]	; 800889c <main+0xd0>
 800880a:	f8df b094 	ldr.w	fp, [pc, #148]	; 80088a0 <main+0xd4>
 800880e:	f8df 8094 	ldr.w	r8, [pc, #148]	; 80088a4 <main+0xd8>
 8008812:	007f      	lsls	r7, r7, #1
 8008814:	4606      	mov	r6, r0
 8008816:	2400      	movs	r4, #0
 8008818:	f7fd fcde 	bl	80061d8 <micros>
 800881c:	4605      	mov	r5, r0
 800881e:	1b80      	subs	r0, r0, r6
 8008820:	f5b0 6ffa 	cmp.w	r0, #2000	; 0x7d0
 8008824:	f104 0401 	add.w	r4, r4, #1
 8008828:	d3f6      	bcc.n	8008818 <main+0x4c>
 800882a:	f7fc fa5d 	bl	8004ce8 <__aeabi_ui2f>
 800882e:	4606      	mov	r6, r0
 8008830:	4620      	mov	r0, r4
 8008832:	f7fc fa5d 	bl	8004cf0 <__aeabi_i2f>
 8008836:	4915      	ldr	r1, [pc, #84]	; (800888c <main+0xc0>)
 8008838:	f7fc faae 	bl	8004d98 <__aeabi_fmul>
 800883c:	4914      	ldr	r1, [pc, #80]	; (8008890 <main+0xc4>)
 800883e:	f7fc faab 	bl	8004d98 <__aeabi_fmul>
 8008842:	4631      	mov	r1, r6
 8008844:	f7fc fb5c 	bl	8004f00 <__aeabi_fdiv>
 8008848:	4604      	mov	r4, r0
 800884a:	4638      	mov	r0, r7
 800884c:	f7fc fa50 	bl	8004cf0 <__aeabi_i2f>
 8008850:	4601      	mov	r1, r0
 8008852:	4620      	mov	r0, r4
 8008854:	f7fc fb54 	bl	8004f00 <__aeabi_fdiv>
 8008858:	f8d9 3000 	ldr.w	r3, [r9]
 800885c:	f8ca 0000 	str.w	r0, [sl]
 8008860:	b913      	cbnz	r3, 8008868 <main+0x9c>
 8008862:	f8db 3000 	ldr.w	r3, [fp]
 8008866:	b953      	cbnz	r3, 800887e <main+0xb2>
 8008868:	f7ff fd38 	bl	80082dc <PWMOff>
 800886c:	f7ff fa06 	bl	8007c7c <Blink>
 8008870:	2300      	movs	r3, #0
 8008872:	462e      	mov	r6, r5
 8008874:	f8c8 3000 	str.w	r3, [r8]
 8008878:	f7fe fd64 	bl	8007344 <CommHandler>
 800887c:	e7cb      	b.n	8008816 <main+0x4a>
 800887e:	4905      	ldr	r1, [pc, #20]	; (8008894 <main+0xc8>)
 8008880:	4630      	mov	r0, r6
 8008882:	f7fc fb3d 	bl	8004f00 <__aeabi_fdiv>
 8008886:	f7fe fa1d 	bl	8006cc4 <engineProcess>
 800888a:	e7f1      	b.n	8008870 <main+0xa4>
 800888c:	42c80000 	.word	0x42c80000
 8008890:	447a0000 	.word	0x447a0000
 8008894:	49742400 	.word	0x49742400
 8008898:	20000ea8 	.word	0x20000ea8
 800889c:	20004ff4 	.word	0x20004ff4
 80088a0:	20000eb0 	.word	0x20000eb0
 80088a4:	20000eac 	.word	0x20000eac

080088a8 <Timer3_Config>:
 80088a8:	b530      	push	{r4, r5, lr}
 80088aa:	4c0c      	ldr	r4, [pc, #48]	; (80088dc <Timer3_Config+0x34>)
 80088ac:	b085      	sub	sp, #20
 80088ae:	2300      	movs	r3, #0
 80088b0:	f64f 72ff 	movw	r2, #65535	; 0xffff
 80088b4:	4620      	mov	r0, r4
 80088b6:	a901      	add	r1, sp, #4
 80088b8:	2547      	movs	r5, #71	; 0x47
 80088ba:	f8ad 3006 	strh.w	r3, [sp, #6]
 80088be:	f8ad 300a 	strh.w	r3, [sp, #10]
 80088c2:	f8ad 2008 	strh.w	r2, [sp, #8]
 80088c6:	f8ad 5004 	strh.w	r5, [sp, #4]
 80088ca:	f7fd f99b 	bl	8005c04 <TIM_TimeBaseInit>
 80088ce:	4620      	mov	r0, r4
 80088d0:	2101      	movs	r1, #1
 80088d2:	f7fd fadb 	bl	8005e8c <TIM_Cmd>
 80088d6:	b005      	add	sp, #20
 80088d8:	bd30      	pop	{r4, r5, pc}
 80088da:	bf00      	nop
 80088dc:	40000400 	.word	0x40000400

080088e0 <RC_Config>:
 80088e0:	b530      	push	{r4, r5, lr}
 80088e2:	b085      	sub	sp, #20
 80088e4:	b672      	cpsid	i
 80088e6:	2404      	movs	r4, #4
 80088e8:	482a      	ldr	r0, [pc, #168]	; (8008994 <RC_Config+0xb4>)
 80088ea:	2101      	movs	r1, #1
 80088ec:	f7fd f836 	bl	800595c <GPIO_PinRemapConfig>
 80088f0:	2503      	movs	r5, #3
 80088f2:	eb0d 0104 	add.w	r1, sp, r4
 80088f6:	f44f 4300 	mov.w	r3, #32768	; 0x8000
 80088fa:	4827      	ldr	r0, [pc, #156]	; (8008998 <RC_Config+0xb8>)
 80088fc:	f8ad 3004 	strh.w	r3, [sp, #4]
 8008900:	f88d 4007 	strb.w	r4, [sp, #7]
 8008904:	f88d 5006 	strb.w	r5, [sp, #6]
 8008908:	f7fc ffb2 	bl	8005870 <GPIO_Init>
 800890c:	2218      	movs	r2, #24
 800890e:	2328      	movs	r3, #40	; 0x28
 8008910:	eb0d 0104 	add.w	r1, sp, r4
 8008914:	4821      	ldr	r0, [pc, #132]	; (800899c <RC_Config+0xbc>)
 8008916:	f8ad 2004 	strh.w	r2, [sp, #4]
 800891a:	f88d 3007 	strb.w	r3, [sp, #7]
 800891e:	f88d 5006 	strb.w	r5, [sp, #6]
 8008922:	f7fc ffa5 	bl	8005870 <GPIO_Init>
 8008926:	eb0d 0104 	add.w	r1, sp, r4
 800892a:	481d      	ldr	r0, [pc, #116]	; (80089a0 <RC_Config+0xc0>)
 800892c:	f8ad 4004 	strh.w	r4, [sp, #4]
 8008930:	f7fc ff9e 	bl	8005870 <GPIO_Init>
 8008934:	4629      	mov	r1, r5
 8008936:	2001      	movs	r0, #1
 8008938:	f7fd f846 	bl	80059c8 <GPIO_EXTILineConfig>
 800893c:	4621      	mov	r1, r4
 800893e:	2001      	movs	r0, #1
 8008940:	f7fd f842 	bl	80059c8 <GPIO_EXTILineConfig>
 8008944:	2002      	movs	r0, #2
 8008946:	4601      	mov	r1, r0
 8008948:	f7fd f83e 	bl	80059c8 <GPIO_EXTILineConfig>
 800894c:	241c      	movs	r4, #28
 800894e:	2100      	movs	r1, #0
 8008950:	2210      	movs	r2, #16
 8008952:	2301      	movs	r3, #1
 8008954:	a802      	add	r0, sp, #8
 8008956:	f88d 100c 	strb.w	r1, [sp, #12]
 800895a:	f88d 200d 	strb.w	r2, [sp, #13]
 800895e:	f88d 300e 	strb.w	r3, [sp, #14]
 8008962:	9402      	str	r4, [sp, #8]
 8008964:	f7fd f846 	bl	80059f4 <EXTI_Init>
 8008968:	4620      	mov	r0, r4
 800896a:	f7fd f883 	bl	8005a74 <EXTI_GenerateSWInterrupt>
 800896e:	4620      	mov	r0, r4
 8008970:	f7fd f888 	bl	8005a84 <EXTI_ClearITPendingBit>
 8008974:	4b0b      	ldr	r3, [pc, #44]	; (80089a4 <RC_Config+0xc4>)
 8008976:	f44f 7000 	mov.w	r0, #512	; 0x200
 800897a:	f44f 6180 	mov.w	r1, #1024	; 0x400
 800897e:	f44f 7280 	mov.w	r2, #256	; 0x100
 8008982:	6018      	str	r0, [r3, #0]
 8008984:	6019      	str	r1, [r3, #0]
 8008986:	601a      	str	r2, [r3, #0]
 8008988:	f7ff ff8e 	bl	80088a8 <Timer3_Config>
 800898c:	b662      	cpsie	i
 800898e:	b005      	add	sp, #20
 8008990:	bd30      	pop	{r4, r5, pc}
 8008992:	bf00      	nop
 8008994:	00300200 	.word	0x00300200
 8008998:	40010800 	.word	0x40010800
 800899c:	40010c00 	.word	0x40010c00
 80089a0:	40011000 	.word	0x40011000
 80089a4:	e000e100 	.word	0xe000e100

080089a8 <EXTI3_IRQHandler>:
 80089a8:	4b1b      	ldr	r3, [pc, #108]	; (8008a18 <EXTI3_IRQHandler+0x70>)
 80089aa:	b510      	push	{r4, lr}
 80089ac:	695b      	ldr	r3, [r3, #20]
 80089ae:	0718      	lsls	r0, r3, #28
 80089b0:	d400      	bmi.n	80089b4 <EXTI3_IRQHandler+0xc>
 80089b2:	bd10      	pop	{r4, pc}
 80089b4:	2033      	movs	r0, #51	; 0x33
 80089b6:	f7ff fdfb 	bl	80085b0 <DEBUG_PutChar>
 80089ba:	4818      	ldr	r0, [pc, #96]	; (8008a1c <EXTI3_IRQHandler+0x74>)
 80089bc:	2108      	movs	r1, #8
 80089be:	f7fc ffb9 	bl	8005934 <GPIO_ReadInputDataBit>
 80089c2:	2801      	cmp	r0, #1
 80089c4:	d022      	beq.n	8008a0c <EXTI3_IRQHandler+0x64>
 80089c6:	4c16      	ldr	r4, [pc, #88]	; (8008a20 <EXTI3_IRQHandler+0x78>)
 80089c8:	4814      	ldr	r0, [pc, #80]	; (8008a1c <EXTI3_IRQHandler+0x74>)
 80089ca:	2108      	movs	r1, #8
 80089cc:	f7fc ffb2 	bl	8005934 <GPIO_ReadInputDataBit>
 80089d0:	b1b0      	cbz	r0, 8008a00 <EXTI3_IRQHandler+0x58>
 80089d2:	4b14      	ldr	r3, [pc, #80]	; (8008a24 <EXTI3_IRQHandler+0x7c>)
 80089d4:	881b      	ldrh	r3, [r3, #0]
 80089d6:	8821      	ldrh	r1, [r4, #0]
 80089d8:	f240 32e6 	movw	r2, #998	; 0x3e6
 80089dc:	1a5b      	subs	r3, r3, r1
 80089de:	b29b      	uxth	r3, r3
 80089e0:	f46f 717a 	mvn.w	r1, #1000	; 0x3e8
 80089e4:	1859      	adds	r1, r3, r1
 80089e6:	b289      	uxth	r1, r1
 80089e8:	4291      	cmp	r1, r2
 80089ea:	d803      	bhi.n	80089f4 <EXTI3_IRQHandler+0x4c>
 80089ec:	4a0e      	ldr	r2, [pc, #56]	; (8008a28 <EXTI3_IRQHandler+0x80>)
 80089ee:	f5a3 737a 	sub.w	r3, r3, #1000	; 0x3e8
 80089f2:	6013      	str	r3, [r2, #0]
 80089f4:	4b08      	ldr	r3, [pc, #32]	; (8008a18 <EXTI3_IRQHandler+0x70>)
 80089f6:	695a      	ldr	r2, [r3, #20]
 80089f8:	f042 0208 	orr.w	r2, r2, #8
 80089fc:	615a      	str	r2, [r3, #20]
 80089fe:	bd10      	pop	{r4, pc}
 8008a00:	4b0a      	ldr	r3, [pc, #40]	; (8008a2c <EXTI3_IRQHandler+0x84>)
 8008a02:	4a08      	ldr	r2, [pc, #32]	; (8008a24 <EXTI3_IRQHandler+0x7c>)
 8008a04:	8c9b      	ldrh	r3, [r3, #36]	; 0x24
 8008a06:	b29b      	uxth	r3, r3
 8008a08:	8013      	strh	r3, [r2, #0]
 8008a0a:	e7e4      	b.n	80089d6 <EXTI3_IRQHandler+0x2e>
 8008a0c:	4b07      	ldr	r3, [pc, #28]	; (8008a2c <EXTI3_IRQHandler+0x84>)
 8008a0e:	4c04      	ldr	r4, [pc, #16]	; (8008a20 <EXTI3_IRQHandler+0x78>)
 8008a10:	8c9b      	ldrh	r3, [r3, #36]	; 0x24
 8008a12:	8023      	strh	r3, [r4, #0]
 8008a14:	e7d8      	b.n	80089c8 <EXTI3_IRQHandler+0x20>
 8008a16:	bf00      	nop
 8008a18:	40010400 	.word	0x40010400
 8008a1c:	40010c00 	.word	0x40010c00
 8008a20:	20000eca 	.word	0x20000eca
 8008a24:	20000ec8 	.word	0x20000ec8
 8008a28:	20000ebc 	.word	0x20000ebc
 8008a2c:	40000400 	.word	0x40000400

08008a30 <EXTI2_IRQHandler>:
 8008a30:	4b1b      	ldr	r3, [pc, #108]	; (8008aa0 <EXTI2_IRQHandler+0x70>)
 8008a32:	b510      	push	{r4, lr}
 8008a34:	695b      	ldr	r3, [r3, #20]
 8008a36:	0758      	lsls	r0, r3, #29
 8008a38:	d400      	bmi.n	8008a3c <EXTI2_IRQHandler+0xc>
 8008a3a:	bd10      	pop	{r4, pc}
 8008a3c:	2032      	movs	r0, #50	; 0x32
 8008a3e:	f7ff fdb7 	bl	80085b0 <DEBUG_PutChar>
 8008a42:	4818      	ldr	r0, [pc, #96]	; (8008aa4 <EXTI2_IRQHandler+0x74>)
 8008a44:	2104      	movs	r1, #4
 8008a46:	f7fc ff75 	bl	8005934 <GPIO_ReadInputDataBit>
 8008a4a:	2801      	cmp	r0, #1
 8008a4c:	d022      	beq.n	8008a94 <EXTI2_IRQHandler+0x64>
 8008a4e:	4c16      	ldr	r4, [pc, #88]	; (8008aa8 <EXTI2_IRQHandler+0x78>)
 8008a50:	4814      	ldr	r0, [pc, #80]	; (8008aa4 <EXTI2_IRQHandler+0x74>)
 8008a52:	2104      	movs	r1, #4
 8008a54:	f7fc ff6e 	bl	8005934 <GPIO_ReadInputDataBit>
 8008a58:	b1b0      	cbz	r0, 8008a88 <EXTI2_IRQHandler+0x58>
 8008a5a:	4b14      	ldr	r3, [pc, #80]	; (8008aac <EXTI2_IRQHandler+0x7c>)
 8008a5c:	881b      	ldrh	r3, [r3, #0]
 8008a5e:	8821      	ldrh	r1, [r4, #0]
 8008a60:	f240 32e6 	movw	r2, #998	; 0x3e6
 8008a64:	1a5b      	subs	r3, r3, r1
 8008a66:	b29b      	uxth	r3, r3
 8008a68:	f46f 717a 	mvn.w	r1, #1000	; 0x3e8
 8008a6c:	1859      	adds	r1, r3, r1
 8008a6e:	b289      	uxth	r1, r1
 8008a70:	4291      	cmp	r1, r2
 8008a72:	d803      	bhi.n	8008a7c <EXTI2_IRQHandler+0x4c>
 8008a74:	4a0e      	ldr	r2, [pc, #56]	; (8008ab0 <EXTI2_IRQHandler+0x80>)
 8008a76:	f5a3 737a 	sub.w	r3, r3, #1000	; 0x3e8
 8008a7a:	6013      	str	r3, [r2, #0]
 8008a7c:	4b08      	ldr	r3, [pc, #32]	; (8008aa0 <EXTI2_IRQHandler+0x70>)
 8008a7e:	695a      	ldr	r2, [r3, #20]
 8008a80:	f042 0204 	orr.w	r2, r2, #4
 8008a84:	615a      	str	r2, [r3, #20]
 8008a86:	bd10      	pop	{r4, pc}
 8008a88:	4b0a      	ldr	r3, [pc, #40]	; (8008ab4 <EXTI2_IRQHandler+0x84>)
 8008a8a:	4a08      	ldr	r2, [pc, #32]	; (8008aac <EXTI2_IRQHandler+0x7c>)
 8008a8c:	8c9b      	ldrh	r3, [r3, #36]	; 0x24
 8008a8e:	b29b      	uxth	r3, r3
 8008a90:	8013      	strh	r3, [r2, #0]
 8008a92:	e7e4      	b.n	8008a5e <EXTI2_IRQHandler+0x2e>
 8008a94:	4b07      	ldr	r3, [pc, #28]	; (8008ab4 <EXTI2_IRQHandler+0x84>)
 8008a96:	4c04      	ldr	r4, [pc, #16]	; (8008aa8 <EXTI2_IRQHandler+0x78>)
 8008a98:	8c9b      	ldrh	r3, [r3, #36]	; 0x24
 8008a9a:	8023      	strh	r3, [r4, #0]
 8008a9c:	e7d8      	b.n	8008a50 <EXTI2_IRQHandler+0x20>
 8008a9e:	bf00      	nop
 8008aa0:	40010400 	.word	0x40010400
 8008aa4:	40011000 	.word	0x40011000
 8008aa8:	20000ec4 	.word	0x20000ec4
 8008aac:	20000ec6 	.word	0x20000ec6
 8008ab0:	20000eb8 	.word	0x20000eb8
 8008ab4:	40000400 	.word	0x40000400

08008ab8 <EXTI4_IRQHandler>:
 8008ab8:	4b1b      	ldr	r3, [pc, #108]	; (8008b28 <EXTI4_IRQHandler+0x70>)
 8008aba:	b510      	push	{r4, lr}
 8008abc:	695b      	ldr	r3, [r3, #20]
 8008abe:	06d8      	lsls	r0, r3, #27
 8008ac0:	d400      	bmi.n	8008ac4 <EXTI4_IRQHandler+0xc>
 8008ac2:	bd10      	pop	{r4, pc}
 8008ac4:	2034      	movs	r0, #52	; 0x34
 8008ac6:	f7ff fd73 	bl	80085b0 <DEBUG_PutChar>
 8008aca:	4818      	ldr	r0, [pc, #96]	; (8008b2c <EXTI4_IRQHandler+0x74>)
 8008acc:	2110      	movs	r1, #16
 8008ace:	f7fc ff31 	bl	8005934 <GPIO_ReadInputDataBit>
 8008ad2:	2801      	cmp	r0, #1
 8008ad4:	d022      	beq.n	8008b1c <EXTI4_IRQHandler+0x64>
 8008ad6:	4c16      	ldr	r4, [pc, #88]	; (8008b30 <EXTI4_IRQHandler+0x78>)
 8008ad8:	4814      	ldr	r0, [pc, #80]	; (8008b2c <EXTI4_IRQHandler+0x74>)
 8008ada:	2110      	movs	r1, #16
 8008adc:	f7fc ff2a 	bl	8005934 <GPIO_ReadInputDataBit>
 8008ae0:	b1b0      	cbz	r0, 8008b10 <EXTI4_IRQHandler+0x58>
 8008ae2:	4b14      	ldr	r3, [pc, #80]	; (8008b34 <EXTI4_IRQHandler+0x7c>)
 8008ae4:	881b      	ldrh	r3, [r3, #0]
 8008ae6:	8821      	ldrh	r1, [r4, #0]
 8008ae8:	f240 32e6 	movw	r2, #998	; 0x3e6
 8008aec:	1a5b      	subs	r3, r3, r1
 8008aee:	b29b      	uxth	r3, r3
 8008af0:	f46f 717a 	mvn.w	r1, #1000	; 0x3e8
 8008af4:	1859      	adds	r1, r3, r1
 8008af6:	b289      	uxth	r1, r1
 8008af8:	4291      	cmp	r1, r2
 8008afa:	d803      	bhi.n	8008b04 <EXTI4_IRQHandler+0x4c>
 8008afc:	4a0e      	ldr	r2, [pc, #56]	; (8008b38 <EXTI4_IRQHandler+0x80>)
 8008afe:	f5a3 737a 	sub.w	r3, r3, #1000	; 0x3e8
 8008b02:	6013      	str	r3, [r2, #0]
 8008b04:	4b08      	ldr	r3, [pc, #32]	; (8008b28 <EXTI4_IRQHandler+0x70>)
 8008b06:	695a      	ldr	r2, [r3, #20]
 8008b08:	f042 0210 	orr.w	r2, r2, #16
 8008b0c:	615a      	str	r2, [r3, #20]
 8008b0e:	bd10      	pop	{r4, pc}
 8008b10:	4b0a      	ldr	r3, [pc, #40]	; (8008b3c <EXTI4_IRQHandler+0x84>)
 8008b12:	4a08      	ldr	r2, [pc, #32]	; (8008b34 <EXTI4_IRQHandler+0x7c>)
 8008b14:	8c9b      	ldrh	r3, [r3, #36]	; 0x24
 8008b16:	b29b      	uxth	r3, r3
 8008b18:	8013      	strh	r3, [r2, #0]
 8008b1a:	e7e4      	b.n	8008ae6 <EXTI4_IRQHandler+0x2e>
 8008b1c:	4b07      	ldr	r3, [pc, #28]	; (8008b3c <EXTI4_IRQHandler+0x84>)
 8008b1e:	4c04      	ldr	r4, [pc, #16]	; (8008b30 <EXTI4_IRQHandler+0x78>)
 8008b20:	8c9b      	ldrh	r3, [r3, #36]	; 0x24
 8008b22:	8023      	strh	r3, [r4, #0]
 8008b24:	e7d8      	b.n	8008ad8 <EXTI4_IRQHandler+0x20>
 8008b26:	bf00      	nop
 8008b28:	40010400 	.word	0x40010400
 8008b2c:	40010c00 	.word	0x40010c00
 8008b30:	20000eb4 	.word	0x20000eb4
 8008b34:	20000eb6 	.word	0x20000eb6
 8008b38:	20000ec0 	.word	0x20000ec0
 8008b3c:	40000400 	.word	0x40000400

08008b40 <Get_RC_Step>:
 8008b40:	e92d 43f8 	stmdb	sp!, {r3, r4, r5, r6, r7, r8, r9, lr}
 8008b44:	4b46      	ldr	r3, [pc, #280]	; (8008c60 <Get_RC_Step+0x120>)
 8008b46:	4a47      	ldr	r2, [pc, #284]	; (8008c64 <Get_RC_Step+0x124>)
 8008b48:	f8d3 8000 	ldr.w	r8, [r3]
 8008b4c:	4b46      	ldr	r3, [pc, #280]	; (8008c68 <Get_RC_Step+0x128>)
 8008b4e:	4605      	mov	r5, r0
 8008b50:	460c      	mov	r4, r1
 8008b52:	6817      	ldr	r7, [r2, #0]
 8008b54:	681e      	ldr	r6, [r3, #0]
 8008b56:	f1b8 0f00 	cmp.w	r8, #0
 8008b5a:	d069      	beq.n	8008c30 <Get_RC_Step+0xf0>
 8008b5c:	6848      	ldr	r0, [r1, #4]
 8008b5e:	4943      	ldr	r1, [pc, #268]	; (8008c6c <Get_RC_Step+0x12c>)
 8008b60:	f7fc f91a 	bl	8004d98 <__aeabi_fmul>
 8008b64:	4681      	mov	r9, r0
 8008b66:	4640      	mov	r0, r8
 8008b68:	f7fc f8c2 	bl	8004cf0 <__aeabi_i2f>
 8008b6c:	4940      	ldr	r1, [pc, #256]	; (8008c70 <Get_RC_Step+0x130>)
 8008b6e:	f7fc f809 	bl	8004b84 <__aeabi_fsub>
 8008b72:	4601      	mov	r1, r0
 8008b74:	4648      	mov	r0, r9
 8008b76:	f7fc f807 	bl	8004b88 <__addsf3>
 8008b7a:	493e      	ldr	r1, [pc, #248]	; (8008c74 <Get_RC_Step+0x134>)
 8008b7c:	f7fc f9c0 	bl	8004f00 <__aeabi_fdiv>
 8008b80:	493d      	ldr	r1, [pc, #244]	; (8008c78 <Get_RC_Step+0x138>)
 8008b82:	6060      	str	r0, [r4, #4]
 8008b84:	4680      	mov	r8, r0
 8008b86:	f7fc fac3 	bl	8005110 <__aeabi_fcmpgt>
 8008b8a:	2800      	cmp	r0, #0
 8008b8c:	d04a      	beq.n	8008c24 <Get_RC_Step+0xe4>
 8008b8e:	4640      	mov	r0, r8
 8008b90:	493a      	ldr	r1, [pc, #232]	; (8008c7c <Get_RC_Step+0x13c>)
 8008b92:	f7fc f901 	bl	8004d98 <__aeabi_fmul>
 8008b96:	6068      	str	r0, [r5, #4]
 8008b98:	2f00      	cmp	r7, #0
 8008b9a:	d04d      	beq.n	8008c38 <Get_RC_Step+0xf8>
 8008b9c:	4933      	ldr	r1, [pc, #204]	; (8008c6c <Get_RC_Step+0x12c>)
 8008b9e:	6820      	ldr	r0, [r4, #0]
 8008ba0:	f7fc f8fa 	bl	8004d98 <__aeabi_fmul>
 8008ba4:	4680      	mov	r8, r0
 8008ba6:	4638      	mov	r0, r7
 8008ba8:	f7fc f8a2 	bl	8004cf0 <__aeabi_i2f>
 8008bac:	4930      	ldr	r1, [pc, #192]	; (8008c70 <Get_RC_Step+0x130>)
 8008bae:	f7fb ffe9 	bl	8004b84 <__aeabi_fsub>
 8008bb2:	4601      	mov	r1, r0
 8008bb4:	4640      	mov	r0, r8
 8008bb6:	f7fb ffe7 	bl	8004b88 <__addsf3>
 8008bba:	492e      	ldr	r1, [pc, #184]	; (8008c74 <Get_RC_Step+0x134>)
 8008bbc:	f7fc f9a0 	bl	8004f00 <__aeabi_fdiv>
 8008bc0:	492d      	ldr	r1, [pc, #180]	; (8008c78 <Get_RC_Step+0x138>)
 8008bc2:	6020      	str	r0, [r4, #0]
 8008bc4:	4607      	mov	r7, r0
 8008bc6:	f7fc faa3 	bl	8005110 <__aeabi_fcmpgt>
 8008bca:	2800      	cmp	r0, #0
 8008bcc:	d03c      	beq.n	8008c48 <Get_RC_Step+0x108>
 8008bce:	4638      	mov	r0, r7
 8008bd0:	492a      	ldr	r1, [pc, #168]	; (8008c7c <Get_RC_Step+0x13c>)
 8008bd2:	f7fc f8e1 	bl	8004d98 <__aeabi_fmul>
 8008bd6:	6028      	str	r0, [r5, #0]
 8008bd8:	2e00      	cmp	r6, #0
 8008bda:	d031      	beq.n	8008c40 <Get_RC_Step+0x100>
 8008bdc:	4923      	ldr	r1, [pc, #140]	; (8008c6c <Get_RC_Step+0x12c>)
 8008bde:	68a0      	ldr	r0, [r4, #8]
 8008be0:	f7fc f8da 	bl	8004d98 <__aeabi_fmul>
 8008be4:	4607      	mov	r7, r0
 8008be6:	4630      	mov	r0, r6
 8008be8:	f7fc f882 	bl	8004cf0 <__aeabi_i2f>
 8008bec:	4920      	ldr	r1, [pc, #128]	; (8008c70 <Get_RC_Step+0x130>)
 8008bee:	f7fb ffc9 	bl	8004b84 <__aeabi_fsub>
 8008bf2:	4601      	mov	r1, r0
 8008bf4:	4638      	mov	r0, r7
 8008bf6:	f7fb ffc7 	bl	8004b88 <__addsf3>
 8008bfa:	491e      	ldr	r1, [pc, #120]	; (8008c74 <Get_RC_Step+0x134>)
 8008bfc:	f7fc f980 	bl	8004f00 <__aeabi_fdiv>
 8008c00:	491d      	ldr	r1, [pc, #116]	; (8008c78 <Get_RC_Step+0x138>)
 8008c02:	60a0      	str	r0, [r4, #8]
 8008c04:	4606      	mov	r6, r0
 8008c06:	f7fc fa83 	bl	8005110 <__aeabi_fcmpgt>
 8008c0a:	b920      	cbnz	r0, 8008c16 <Get_RC_Step+0xd6>
 8008c0c:	4630      	mov	r0, r6
 8008c0e:	491c      	ldr	r1, [pc, #112]	; (8008c80 <Get_RC_Step+0x140>)
 8008c10:	f7fc fa60 	bl	80050d4 <__aeabi_fcmplt>
 8008c14:	b1a0      	cbz	r0, 8008c40 <Get_RC_Step+0x100>
 8008c16:	4630      	mov	r0, r6
 8008c18:	4918      	ldr	r1, [pc, #96]	; (8008c7c <Get_RC_Step+0x13c>)
 8008c1a:	f7fc f8bd 	bl	8004d98 <__aeabi_fmul>
 8008c1e:	60a8      	str	r0, [r5, #8]
 8008c20:	e8bd 83f8 	ldmia.w	sp!, {r3, r4, r5, r6, r7, r8, r9, pc}
 8008c24:	4640      	mov	r0, r8
 8008c26:	4916      	ldr	r1, [pc, #88]	; (8008c80 <Get_RC_Step+0x140>)
 8008c28:	f7fc fa54 	bl	80050d4 <__aeabi_fcmplt>
 8008c2c:	2800      	cmp	r0, #0
 8008c2e:	d1ae      	bne.n	8008b8e <Get_RC_Step+0x4e>
 8008c30:	2300      	movs	r3, #0
 8008c32:	606b      	str	r3, [r5, #4]
 8008c34:	2f00      	cmp	r7, #0
 8008c36:	d1b1      	bne.n	8008b9c <Get_RC_Step+0x5c>
 8008c38:	2300      	movs	r3, #0
 8008c3a:	602b      	str	r3, [r5, #0]
 8008c3c:	2e00      	cmp	r6, #0
 8008c3e:	d1cd      	bne.n	8008bdc <Get_RC_Step+0x9c>
 8008c40:	2300      	movs	r3, #0
 8008c42:	60ab      	str	r3, [r5, #8]
 8008c44:	e8bd 83f8 	ldmia.w	sp!, {r3, r4, r5, r6, r7, r8, r9, pc}
 8008c48:	4638      	mov	r0, r7
 8008c4a:	490d      	ldr	r1, [pc, #52]	; (8008c80 <Get_RC_Step+0x140>)
 8008c4c:	f7fc fa42 	bl	80050d4 <__aeabi_fcmplt>
 8008c50:	2800      	cmp	r0, #0
 8008c52:	d0f1      	beq.n	8008c38 <Get_RC_Step+0xf8>
 8008c54:	4638      	mov	r0, r7
 8008c56:	4909      	ldr	r1, [pc, #36]	; (8008c7c <Get_RC_Step+0x13c>)
 8008c58:	f7fc f89e 	bl	8004d98 <__aeabi_fmul>
 8008c5c:	6028      	str	r0, [r5, #0]
 8008c5e:	e7bb      	b.n	8008bd8 <Get_RC_Step+0x98>
 8008c60:	20000ebc 	.word	0x20000ebc
 8008c64:	20000eb8 	.word	0x20000eb8
 8008c68:	20000ec0 	.word	0x20000ec0
 8008c6c:	43470000 	.word	0x43470000
 8008c70:	43fa0000 	.word	0x43fa0000
 8008c74:	43480000 	.word	0x43480000
 8008c78:	41a00000 	.word	0x41a00000
 8008c7c:	3b03126f 	.word	0x3b03126f
 8008c80:	c1a00000 	.word	0xc1a00000

08008c84 <GPIO_Config>:
 8008c84:	e92d 43f0 	stmdb	sp!, {r4, r5, r6, r7, r8, r9, lr}
 8008c88:	f8df 8100 	ldr.w	r8, [pc, #256]	; 8008d8c <GPIO_Config+0x108>
 8008c8c:	b083      	sub	sp, #12
 8008c8e:	4e3d      	ldr	r6, [pc, #244]	; (8008d84 <GPIO_Config+0x100>)
 8008c90:	2518      	movs	r5, #24
 8008c92:	2402      	movs	r4, #2
 8008c94:	4640      	mov	r0, r8
 8008c96:	a901      	add	r1, sp, #4
 8008c98:	f44f 63e0 	mov.w	r3, #1792	; 0x700
 8008c9c:	f8ad 3004 	strh.w	r3, [sp, #4]
 8008ca0:	f88d 4006 	strb.w	r4, [sp, #6]
 8008ca4:	f88d 5007 	strb.w	r5, [sp, #7]
 8008ca8:	f7fc fde2 	bl	8005870 <GPIO_Init>
 8008cac:	f44f 4360 	mov.w	r3, #57344	; 0xe000
 8008cb0:	a901      	add	r1, sp, #4
 8008cb2:	4630      	mov	r0, r6
 8008cb4:	f8ad 3004 	strh.w	r3, [sp, #4]
 8008cb8:	f88d 4006 	strb.w	r4, [sp, #6]
 8008cbc:	f44f 79e0 	mov.w	r9, #448	; 0x1c0
 8008cc0:	f88d 5007 	strb.w	r5, [sp, #7]
 8008cc4:	f7fc fdd4 	bl	8005870 <GPIO_Init>
 8008cc8:	a901      	add	r1, sp, #4
 8008cca:	482f      	ldr	r0, [pc, #188]	; (8008d88 <GPIO_Config+0x104>)
 8008ccc:	f88d 4006 	strb.w	r4, [sp, #6]
 8008cd0:	f88d 5007 	strb.w	r5, [sp, #7]
 8008cd4:	f8ad 9004 	strh.w	r9, [sp, #4]
 8008cd8:	f7fc fdca 	bl	8005870 <GPIO_Init>
 8008cdc:	2380      	movs	r3, #128	; 0x80
 8008cde:	4640      	mov	r0, r8
 8008ce0:	a901      	add	r1, sp, #4
 8008ce2:	2703      	movs	r7, #3
 8008ce4:	f8ad 3004 	strh.w	r3, [sp, #4]
 8008ce8:	f88d 4006 	strb.w	r4, [sp, #6]
 8008cec:	f88d 5007 	strb.w	r5, [sp, #7]
 8008cf0:	f7fc fdbe 	bl	8005870 <GPIO_Init>
 8008cf4:	4630      	mov	r0, r6
 8008cf6:	a901      	add	r1, sp, #4
 8008cf8:	f88d 4006 	strb.w	r4, [sp, #6]
 8008cfc:	f88d 5007 	strb.w	r5, [sp, #7]
 8008d00:	f8ad 7004 	strh.w	r7, [sp, #4]
 8008d04:	f7fc fdb4 	bl	8005870 <GPIO_Init>
 8008d08:	2307      	movs	r3, #7
 8008d0a:	4640      	mov	r0, r8
 8008d0c:	a901      	add	r1, sp, #4
 8008d0e:	f8ad 3004 	strh.w	r3, [sp, #4]
 8008d12:	f88d 4006 	strb.w	r4, [sp, #6]
 8008d16:	f88d 5007 	strb.w	r5, [sp, #7]
 8008d1a:	f7fc fda9 	bl	8005870 <GPIO_Init>
 8008d1e:	4630      	mov	r0, r6
 8008d20:	a901      	add	r1, sp, #4
 8008d22:	f88d 4006 	strb.w	r4, [sp, #6]
 8008d26:	f8ad 9004 	strh.w	r9, [sp, #4]
 8008d2a:	2410      	movs	r4, #16
 8008d2c:	f88d 5007 	strb.w	r5, [sp, #7]
 8008d30:	f7fc fd9e 	bl	8005870 <GPIO_Init>
 8008d34:	4630      	mov	r0, r6
 8008d36:	a901      	add	r1, sp, #4
 8008d38:	f44f 5380 	mov.w	r3, #4096	; 0x1000
 8008d3c:	f8ad 3004 	strh.w	r3, [sp, #4]
 8008d40:	f88d 7006 	strb.w	r7, [sp, #6]
 8008d44:	f88d 4007 	strb.w	r4, [sp, #7]
 8008d48:	f7fc fd92 	bl	8005870 <GPIO_Init>
 8008d4c:	4640      	mov	r0, r8
 8008d4e:	a901      	add	r1, sp, #4
 8008d50:	2308      	movs	r3, #8
 8008d52:	f8ad 3004 	strh.w	r3, [sp, #4]
 8008d56:	f88d 4007 	strb.w	r4, [sp, #7]
 8008d5a:	f88d 7006 	strb.w	r7, [sp, #6]
 8008d5e:	f7fc fd87 	bl	8005870 <GPIO_Init>
 8008d62:	f44f 6240 	mov.w	r2, #3072	; 0xc00
 8008d66:	2314      	movs	r3, #20
 8008d68:	4630      	mov	r0, r6
 8008d6a:	a901      	add	r1, sp, #4
 8008d6c:	f88d 7006 	strb.w	r7, [sp, #6]
 8008d70:	f8ad 2004 	strh.w	r2, [sp, #4]
 8008d74:	f88d 3007 	strb.w	r3, [sp, #7]
 8008d78:	f7fc fd7a 	bl	8005870 <GPIO_Init>
 8008d7c:	b003      	add	sp, #12
 8008d7e:	e8bd 83f0 	ldmia.w	sp!, {r4, r5, r6, r7, r8, r9, pc}
 8008d82:	bf00      	nop
 8008d84:	40010c00 	.word	0x40010c00
 8008d88:	40011000 	.word	0x40011000
 8008d8c:	40010800 	.word	0x40010800

08008d90 <InitSinArray>:
 8008d90:	b538      	push	{r3, r4, r5, lr}
 8008d92:	2000      	movs	r0, #0
 8008d94:	4d0e      	ldr	r5, [pc, #56]	; (8008dd0 <InitSinArray+0x40>)
 8008d96:	2400      	movs	r4, #0
 8008d98:	e00b      	b.n	8008db2 <InitSinArray+0x22>
 8008d9a:	4620      	mov	r0, r4
 8008d9c:	f7fb ffa8 	bl	8004cf0 <__aeabi_i2f>
 8008da0:	490c      	ldr	r1, [pc, #48]	; (8008dd4 <InitSinArray+0x44>)
 8008da2:	f7fb fff9 	bl	8004d98 <__aeabi_fmul>
 8008da6:	f04f 516a 	mov.w	r1, #981467136	; 0x3a800000
 8008daa:	f7fb fff5 	bl	8004d98 <__aeabi_fmul>
 8008dae:	f001 fa83 	bl	800a2b8 <sinf>
 8008db2:	4909      	ldr	r1, [pc, #36]	; (8008dd8 <InitSinArray+0x48>)
 8008db4:	f7fb fff0 	bl	8004d98 <__aeabi_fmul>
 8008db8:	f7fe ff9c 	bl	8007cf4 <Round>
 8008dbc:	f7fc f9b2 	bl	8005124 <__aeabi_f2iz>
 8008dc0:	3401      	adds	r4, #1
 8008dc2:	f5b4 6f80 	cmp.w	r4, #1024	; 0x400
 8008dc6:	f825 0f02 	strh.w	r0, [r5, #2]!
 8008dca:	d1e6      	bne.n	8008d9a <InitSinArray+0xa>
 8008dcc:	bd38      	pop	{r3, r4, r5, pc}
 8008dce:	bf00      	nop
 8008dd0:	2000501a 	.word	0x2000501a
 8008dd4:	40c90fdb 	.word	0x40c90fdb
 8008dd8:	46fffe00 	.word	0x46fffe00

08008ddc <configLoad>:
 8008ddc:	b538      	push	{r3, r4, r5, lr}
 8008dde:	4d08      	ldr	r5, [pc, #32]	; (8008e00 <configLoad+0x24>)
 8008de0:	2400      	movs	r4, #0
 8008de2:	b2e0      	uxtb	r0, r4
 8008de4:	f7ff fb44 	bl	8008470 <ReadFromEEPROM>
 8008de8:	4603      	mov	r3, r0
 8008dea:	2bfe      	cmp	r3, #254	; 0xfe
 8008dec:	bf98      	it	ls
 8008dee:	5563      	strbls	r3, [r4, r5]
 8008df0:	2005      	movs	r0, #5
 8008df2:	3401      	adds	r4, #1
 8008df4:	f7fe ff66 	bl	8007cc4 <Delay_ms>
 8008df8:	2c0c      	cmp	r4, #12
 8008dfa:	d1f2      	bne.n	8008de2 <configLoad+0x6>
 8008dfc:	bd38      	pop	{r3, r4, r5, pc}
 8008dfe:	bf00      	nop
 8008e00:	2000004c 	.word	0x2000004c

08008e04 <CTR_LP>:
 8008e04:	e92d 47f0 	stmdb	sp!, {r4, r5, r6, r7, r8, r9, sl, lr}
 8008e08:	2300      	movs	r3, #0
 8008e0a:	b082      	sub	sp, #8
 8008e0c:	f8df 9164 	ldr.w	r9, [pc, #356]	; 8008f74 <CTR_LP+0x170>
 8008e10:	f8df 8170 	ldr.w	r8, [pc, #368]	; 8008f84 <CTR_LP+0x180>
 8008e14:	4e54      	ldr	r6, [pc, #336]	; (8008f68 <CTR_LP+0x164>)
 8008e16:	f8ad 3006 	strh.w	r3, [sp, #6]
 8008e1a:	f8d8 3000 	ldr.w	r3, [r8]
 8008e1e:	4c53      	ldr	r4, [pc, #332]	; (8008f6c <CTR_LP+0x168>)
 8008e20:	b29a      	uxth	r2, r3
 8008e22:	f413 4f00 	tst.w	r3, #32768	; 0x8000
 8008e26:	4f52      	ldr	r7, [pc, #328]	; (8008f70 <CTR_LP+0x16c>)
 8008e28:	f64b 70bf 	movw	r0, #49087	; 0xbfbf
 8008e2c:	4951      	ldr	r1, [pc, #324]	; (8008f74 <CTR_LP+0x170>)
 8008e2e:	f8a9 2000 	strh.w	r2, [r9]
 8008e32:	f8df a134 	ldr.w	sl, [pc, #308]	; 8008f68 <CTR_LP+0x164>
 8008e36:	f000 808b 	beq.w	8008f50 <CTR_LP+0x14c>
 8008e3a:	880b      	ldrh	r3, [r1, #0]
 8008e3c:	4d4e      	ldr	r5, [pc, #312]	; (8008f78 <CTR_LP+0x174>)
 8008e3e:	f003 030f 	and.w	r3, r3, #15
 8008e42:	009a      	lsls	r2, r3, #2
 8008e44:	f102 4280 	add.w	r2, r2, #1073741824	; 0x40000000
 8008e48:	f502 42b8 	add.w	r2, r2, #23552	; 0x5c00
 8008e4c:	702b      	strb	r3, [r5, #0]
 8008e4e:	bb6b      	cbnz	r3, 8008eac <CTR_LP+0xa8>
 8008e50:	6823      	ldr	r3, [r4, #0]
 8008e52:	b29b      	uxth	r3, r3
 8008e54:	8033      	strh	r3, [r6, #0]
 8008e56:	8833      	ldrh	r3, [r6, #0]
 8008e58:	f003 0330 	and.w	r3, r3, #48	; 0x30
 8008e5c:	803b      	strh	r3, [r7, #0]
 8008e5e:	8833      	ldrh	r3, [r6, #0]
 8008e60:	f403 5340 	and.w	r3, r3, #12288	; 0x3000
 8008e64:	8033      	strh	r3, [r6, #0]
 8008e66:	6823      	ldr	r3, [r4, #0]
 8008e68:	4018      	ands	r0, r3
 8008e6a:	f480 5000 	eor.w	r0, r0, #8192	; 0x2000
 8008e6e:	f080 0020 	eor.w	r0, r0, #32
 8008e72:	f440 4000 	orr.w	r0, r0, #32768	; 0x8000
 8008e76:	f040 0080 	orr.w	r0, r0, #128	; 0x80
 8008e7a:	6020      	str	r0, [r4, #0]
 8008e7c:	880b      	ldrh	r3, [r1, #0]
 8008e7e:	06db      	lsls	r3, r3, #27
 8008e80:	d53d      	bpl.n	8008efe <CTR_LP+0xfa>
 8008e82:	6823      	ldr	r3, [r4, #0]
 8008e84:	b29b      	uxth	r3, r3
 8008e86:	f8ad 3006 	strh.w	r3, [sp, #6]
 8008e8a:	f8bd 3006 	ldrh.w	r3, [sp, #6]
 8008e8e:	051d      	lsls	r5, r3, #20
 8008e90:	d461      	bmi.n	8008f56 <CTR_LP+0x152>
 8008e92:	f8bd 3006 	ldrh.w	r3, [sp, #6]
 8008e96:	b21b      	sxth	r3, r3
 8008e98:	2b00      	cmp	r3, #0
 8008e9a:	dabe      	bge.n	8008e1a <CTR_LP+0x16>
 8008e9c:	6822      	ldr	r2, [r4, #0]
 8008e9e:	f640 738f 	movw	r3, #3983	; 0xf8f
 8008ea2:	4013      	ands	r3, r2
 8008ea4:	6023      	str	r3, [r4, #0]
 8008ea6:	f000 fd59 	bl	800995c <Out0_Process>
 8008eaa:	e02f      	b.n	8008f0c <CTR_LP+0x108>
 8008eac:	6811      	ldr	r1, [r2, #0]
 8008eae:	b289      	uxth	r1, r1
 8008eb0:	f8ad 1006 	strh.w	r1, [sp, #6]
 8008eb4:	f8bd 1006 	ldrh.w	r1, [sp, #6]
 8008eb8:	b209      	sxth	r1, r1
 8008eba:	2900      	cmp	r1, #0
 8008ebc:	db14      	blt.n	8008ee8 <CTR_LP+0xe4>
 8008ebe:	f8bd 3006 	ldrh.w	r3, [sp, #6]
 8008ec2:	061b      	lsls	r3, r3, #24
 8008ec4:	d5a9      	bpl.n	8008e1a <CTR_LP+0x16>
 8008ec6:	7829      	ldrb	r1, [r5, #0]
 8008ec8:	482c      	ldr	r0, [pc, #176]	; (8008f7c <CTR_LP+0x178>)
 8008eca:	008b      	lsls	r3, r1, #2
 8008ecc:	f103 4380 	add.w	r3, r3, #1073741824	; 0x40000000
 8008ed0:	f503 43b8 	add.w	r3, r3, #23552	; 0x5c00
 8008ed4:	681c      	ldr	r4, [r3, #0]
 8008ed6:	f648 720f 	movw	r2, #36623	; 0x8f0f
 8008eda:	3901      	subs	r1, #1
 8008edc:	4022      	ands	r2, r4
 8008ede:	601a      	str	r2, [r3, #0]
 8008ee0:	f850 3021 	ldr.w	r3, [r0, r1, lsl #2]
 8008ee4:	4798      	blx	r3
 8008ee6:	e798      	b.n	8008e1a <CTR_LP+0x16>
 8008ee8:	6814      	ldr	r4, [r2, #0]
 8008eea:	4825      	ldr	r0, [pc, #148]	; (8008f80 <CTR_LP+0x17c>)
 8008eec:	f640 718f 	movw	r1, #3983	; 0xf8f
 8008ef0:	4021      	ands	r1, r4
 8008ef2:	3b01      	subs	r3, #1
 8008ef4:	f850 3023 	ldr.w	r3, [r0, r3, lsl #2]
 8008ef8:	6011      	str	r1, [r2, #0]
 8008efa:	4798      	blx	r3
 8008efc:	e7df      	b.n	8008ebe <CTR_LP+0xba>
 8008efe:	6822      	ldr	r2, [r4, #0]
 8008f00:	f648 730f 	movw	r3, #36623	; 0x8f0f
 8008f04:	4013      	ands	r3, r2
 8008f06:	6023      	str	r3, [r4, #0]
 8008f08:	f000 fdb8 	bl	8009a7c <In0_Process>
 8008f0c:	6821      	ldr	r1, [r4, #0]
 8008f0e:	f8ba 2000 	ldrh.w	r2, [sl]
 8008f12:	f64b 73bf 	movw	r3, #49087	; 0xbfbf
 8008f16:	04d4      	lsls	r4, r2, #19
 8008f18:	f8ba 2000 	ldrh.w	r2, [sl]
 8008f1c:	ea01 0303 	and.w	r3, r1, r3
 8008f20:	bf48      	it	mi
 8008f22:	f483 5380 	eormi.w	r3, r3, #4096	; 0x1000
 8008f26:	0490      	lsls	r0, r2, #18
 8008f28:	883a      	ldrh	r2, [r7, #0]
 8008f2a:	bf48      	it	mi
 8008f2c:	f483 5300 	eormi.w	r3, r3, #8192	; 0x2000
 8008f30:	06d1      	lsls	r1, r2, #27
 8008f32:	883a      	ldrh	r2, [r7, #0]
 8008f34:	bf48      	it	mi
 8008f36:	f083 0310 	eormi.w	r3, r3, #16
 8008f3a:	0692      	lsls	r2, r2, #26
 8008f3c:	bf48      	it	mi
 8008f3e:	f083 0320 	eormi.w	r3, r3, #32
 8008f42:	f443 4300 	orr.w	r3, r3, #32768	; 0x8000
 8008f46:	f043 0380 	orr.w	r3, r3, #128	; 0x80
 8008f4a:	4a08      	ldr	r2, [pc, #32]	; (8008f6c <CTR_LP+0x168>)
 8008f4c:	b29b      	uxth	r3, r3
 8008f4e:	6013      	str	r3, [r2, #0]
 8008f50:	b002      	add	sp, #8
 8008f52:	e8bd 87f0 	ldmia.w	sp!, {r4, r5, r6, r7, r8, r9, sl, pc}
 8008f56:	6822      	ldr	r2, [r4, #0]
 8008f58:	f640 738f 	movw	r3, #3983	; 0xf8f
 8008f5c:	4013      	ands	r3, r2
 8008f5e:	6023      	str	r3, [r4, #0]
 8008f60:	f000 fb3c 	bl	80095dc <Setup0_Process>
 8008f64:	e7d2      	b.n	8008f0c <CTR_LP+0x108>
 8008f66:	bf00      	nop
 8008f68:	2000581c 	.word	0x2000581c
 8008f6c:	40005c00 	.word	0x40005c00
 8008f70:	2000581e 	.word	0x2000581e
 8008f74:	2000587c 	.word	0x2000587c
 8008f78:	2000582c 	.word	0x2000582c
 8008f7c:	20000058 	.word	0x20000058
 8008f80:	20000074 	.word	0x20000074
 8008f84:	40005c44 	.word	0x40005c44

08008f88 <SetBTABLE>:
 8008f88:	f64f 73f8 	movw	r3, #65528	; 0xfff8
 8008f8c:	4a01      	ldr	r2, [pc, #4]	; (8008f94 <SetBTABLE+0xc>)
 8008f8e:	4003      	ands	r3, r0
 8008f90:	6013      	str	r3, [r2, #0]
 8008f92:	4770      	bx	lr
 8008f94:	40005c50 	.word	0x40005c50

08008f98 <SetEPType>:
 8008f98:	0080      	lsls	r0, r0, #2
 8008f9a:	f100 4080 	add.w	r0, r0, #1073741824	; 0x40000000
 8008f9e:	f500 40b8 	add.w	r0, r0, #23552	; 0x5c00
 8008fa2:	6803      	ldr	r3, [r0, #0]
 8008fa4:	f423 43ec 	bic.w	r3, r3, #30208	; 0x7600
 8008fa8:	f023 0370 	bic.w	r3, r3, #112	; 0x70
 8008fac:	4319      	orrs	r1, r3
 8008fae:	b28b      	uxth	r3, r1
 8008fb0:	6003      	str	r3, [r0, #0]
 8008fb2:	4770      	bx	lr

08008fb4 <SetEPTxStatus>:
 8008fb4:	0080      	lsls	r0, r0, #2
 8008fb6:	f100 4080 	add.w	r0, r0, #1073741824	; 0x40000000
 8008fba:	f500 40b8 	add.w	r0, r0, #23552	; 0x5c00
 8008fbe:	6803      	ldr	r3, [r0, #0]
 8008fc0:	06ca      	lsls	r2, r1, #27
 8008fc2:	f423 43e0 	bic.w	r3, r3, #28672	; 0x7000
 8008fc6:	f023 0340 	bic.w	r3, r3, #64	; 0x40
 8008fca:	b29b      	uxth	r3, r3
 8008fcc:	bf48      	it	mi
 8008fce:	f083 0310 	eormi.w	r3, r3, #16
 8008fd2:	068a      	lsls	r2, r1, #26
 8008fd4:	bf48      	it	mi
 8008fd6:	f083 0320 	eormi.w	r3, r3, #32
 8008fda:	f443 4300 	orr.w	r3, r3, #32768	; 0x8000
 8008fde:	f043 0380 	orr.w	r3, r3, #128	; 0x80
 8008fe2:	6003      	str	r3, [r0, #0]
 8008fe4:	4770      	bx	lr
 8008fe6:	bf00      	nop

08008fe8 <SetEPRxStatus>:
 8008fe8:	0080      	lsls	r0, r0, #2
 8008fea:	f100 4080 	add.w	r0, r0, #1073741824	; 0x40000000
 8008fee:	f500 40b8 	add.w	r0, r0, #23552	; 0x5c00
 8008ff2:	6803      	ldr	r3, [r0, #0]
 8008ff4:	04ca      	lsls	r2, r1, #19
 8008ff6:	f423 4380 	bic.w	r3, r3, #16384	; 0x4000
 8008ffa:	f023 0370 	bic.w	r3, r3, #112	; 0x70
 8008ffe:	b29b      	uxth	r3, r3
 8009000:	bf48      	it	mi
 8009002:	f483 5380 	eormi.w	r3, r3, #4096	; 0x1000
 8009006:	048a      	lsls	r2, r1, #18
 8009008:	bf48      	it	mi
 800900a:	f483 5300 	eormi.w	r3, r3, #8192	; 0x2000
 800900e:	f443 4300 	orr.w	r3, r3, #32768	; 0x8000
 8009012:	f043 0380 	orr.w	r3, r3, #128	; 0x80
 8009016:	6003      	str	r3, [r0, #0]
 8009018:	4770      	bx	lr
 800901a:	bf00      	nop

0800901c <SetEPTxValid>:
 800901c:	0080      	lsls	r0, r0, #2
 800901e:	f100 4080 	add.w	r0, r0, #1073741824	; 0x40000000
 8009022:	f500 40b8 	add.w	r0, r0, #23552	; 0x5c00
 8009026:	6803      	ldr	r3, [r0, #0]
 8009028:	f423 43e0 	bic.w	r3, r3, #28672	; 0x7000
 800902c:	f023 0340 	bic.w	r3, r3, #64	; 0x40
 8009030:	b29b      	uxth	r3, r3
 8009032:	f083 0330 	eor.w	r3, r3, #48	; 0x30
 8009036:	f443 4300 	orr.w	r3, r3, #32768	; 0x8000
 800903a:	f043 0380 	orr.w	r3, r3, #128	; 0x80
 800903e:	6003      	str	r3, [r0, #0]
 8009040:	4770      	bx	lr
 8009042:	bf00      	nop

08009044 <SetEPRxValid>:
 8009044:	0080      	lsls	r0, r0, #2
 8009046:	f100 4080 	add.w	r0, r0, #1073741824	; 0x40000000
 800904a:	f500 40b8 	add.w	r0, r0, #23552	; 0x5c00
 800904e:	6803      	ldr	r3, [r0, #0]
 8009050:	f423 4380 	bic.w	r3, r3, #16384	; 0x4000
 8009054:	f023 0370 	bic.w	r3, r3, #112	; 0x70
 8009058:	b29b      	uxth	r3, r3
 800905a:	f483 5340 	eor.w	r3, r3, #12288	; 0x3000
 800905e:	f443 4300 	orr.w	r3, r3, #32768	; 0x8000
 8009062:	f043 0380 	orr.w	r3, r3, #128	; 0x80
 8009066:	6003      	str	r3, [r0, #0]
 8009068:	4770      	bx	lr
 800906a:	bf00      	nop

0800906c <Clear_Status_Out>:
 800906c:	0080      	lsls	r0, r0, #2
 800906e:	f100 4080 	add.w	r0, r0, #1073741824	; 0x40000000
 8009072:	f500 40b8 	add.w	r0, r0, #23552	; 0x5c00
 8009076:	6803      	ldr	r3, [r0, #0]
 8009078:	f640 620f 	movw	r2, #3599	; 0xe0f
 800907c:	4013      	ands	r3, r2
 800907e:	f443 4300 	orr.w	r3, r3, #32768	; 0x8000
 8009082:	f043 0380 	orr.w	r3, r3, #128	; 0x80
 8009086:	6003      	str	r3, [r0, #0]
 8009088:	4770      	bx	lr
 800908a:	bf00      	nop

0800908c <ClearDTOG_RX>:
 800908c:	0080      	lsls	r0, r0, #2
 800908e:	f100 4080 	add.w	r0, r0, #1073741824	; 0x40000000
 8009092:	f500 40b8 	add.w	r0, r0, #23552	; 0x5c00
 8009096:	6803      	ldr	r3, [r0, #0]
 8009098:	045b      	lsls	r3, r3, #17
 800909a:	d508      	bpl.n	80090ae <ClearDTOG_RX+0x22>
 800909c:	6802      	ldr	r2, [r0, #0]
 800909e:	f640 730f 	movw	r3, #3855	; 0xf0f
 80090a2:	4013      	ands	r3, r2
 80090a4:	f443 4340 	orr.w	r3, r3, #49152	; 0xc000
 80090a8:	f043 0380 	orr.w	r3, r3, #128	; 0x80
 80090ac:	6003      	str	r3, [r0, #0]
 80090ae:	4770      	bx	lr

080090b0 <ClearDTOG_TX>:
 80090b0:	0080      	lsls	r0, r0, #2
 80090b2:	f100 4080 	add.w	r0, r0, #1073741824	; 0x40000000
 80090b6:	f500 40b8 	add.w	r0, r0, #23552	; 0x5c00
 80090ba:	6803      	ldr	r3, [r0, #0]
 80090bc:	065b      	lsls	r3, r3, #25
 80090be:	d508      	bpl.n	80090d2 <ClearDTOG_TX+0x22>
 80090c0:	6802      	ldr	r2, [r0, #0]
 80090c2:	f640 730f 	movw	r3, #3855	; 0xf0f
 80090c6:	4013      	ands	r3, r2
 80090c8:	f443 4300 	orr.w	r3, r3, #32768	; 0x8000
 80090cc:	f043 03c0 	orr.w	r3, r3, #192	; 0xc0
 80090d0:	6003      	str	r3, [r0, #0]
 80090d2:	4770      	bx	lr

080090d4 <SetEPTxAddr>:
 80090d4:	4b06      	ldr	r3, [pc, #24]	; (80090f0 <SetEPTxAddr+0x1c>)
 80090d6:	0849      	lsrs	r1, r1, #1
 80090d8:	681b      	ldr	r3, [r3, #0]
 80090da:	0049      	lsls	r1, r1, #1
 80090dc:	b29b      	uxth	r3, r3
 80090de:	eb03 00c0 	add.w	r0, r3, r0, lsl #3
 80090e2:	f100 5000 	add.w	r0, r0, #536870912	; 0x20000000
 80090e6:	f500 5040 	add.w	r0, r0, #12288	; 0x3000
 80090ea:	0040      	lsls	r0, r0, #1
 80090ec:	6001      	str	r1, [r0, #0]
 80090ee:	4770      	bx	lr
 80090f0:	40005c50 	.word	0x40005c50

080090f4 <SetEPRxAddr>:
 80090f4:	4a05      	ldr	r2, [pc, #20]	; (800910c <SetEPRxAddr+0x18>)
 80090f6:	4b06      	ldr	r3, [pc, #24]	; (8009110 <SetEPRxAddr+0x1c>)
 80090f8:	6812      	ldr	r2, [r2, #0]
 80090fa:	0849      	lsrs	r1, r1, #1
 80090fc:	b292      	uxth	r2, r2
 80090fe:	eb02 00c0 	add.w	r0, r2, r0, lsl #3
 8009102:	4403      	add	r3, r0
 8009104:	0049      	lsls	r1, r1, #1
 8009106:	005b      	lsls	r3, r3, #1
 8009108:	6019      	str	r1, [r3, #0]
 800910a:	4770      	bx	lr
 800910c:	40005c50 	.word	0x40005c50
 8009110:	20003004 	.word	0x20003004

08009114 <GetEPTxAddr>:
 8009114:	4b05      	ldr	r3, [pc, #20]	; (800912c <GetEPTxAddr+0x18>)
 8009116:	681b      	ldr	r3, [r3, #0]
 8009118:	b29b      	uxth	r3, r3
 800911a:	eb03 00c0 	add.w	r0, r3, r0, lsl #3
 800911e:	f100 5000 	add.w	r0, r0, #536870912	; 0x20000000
 8009122:	f500 5040 	add.w	r0, r0, #12288	; 0x3000
 8009126:	0040      	lsls	r0, r0, #1
 8009128:	8800      	ldrh	r0, [r0, #0]
 800912a:	4770      	bx	lr
 800912c:	40005c50 	.word	0x40005c50

08009130 <GetEPRxAddr>:
 8009130:	4a04      	ldr	r2, [pc, #16]	; (8009144 <GetEPRxAddr+0x14>)
 8009132:	4b05      	ldr	r3, [pc, #20]	; (8009148 <GetEPRxAddr+0x18>)
 8009134:	6812      	ldr	r2, [r2, #0]
 8009136:	b292      	uxth	r2, r2
 8009138:	eb02 00c0 	add.w	r0, r2, r0, lsl #3
 800913c:	4403      	add	r3, r0
 800913e:	005b      	lsls	r3, r3, #1
 8009140:	8818      	ldrh	r0, [r3, #0]
 8009142:	4770      	bx	lr
 8009144:	40005c50 	.word	0x40005c50
 8009148:	20003004 	.word	0x20003004

0800914c <SetEPTxCount>:
 800914c:	4a04      	ldr	r2, [pc, #16]	; (8009160 <SetEPTxCount+0x14>)
 800914e:	4b05      	ldr	r3, [pc, #20]	; (8009164 <SetEPTxCount+0x18>)
 8009150:	6812      	ldr	r2, [r2, #0]
 8009152:	b292      	uxth	r2, r2
 8009154:	eb02 00c0 	add.w	r0, r2, r0, lsl #3
 8009158:	4403      	add	r3, r0
 800915a:	005b      	lsls	r3, r3, #1
 800915c:	6019      	str	r1, [r3, #0]
 800915e:	4770      	bx	lr
 8009160:	40005c50 	.word	0x40005c50
 8009164:	20003002 	.word	0x20003002

08009168 <SetEPRxCount>:
 8009168:	4a0e      	ldr	r2, [pc, #56]	; (80091a4 <SetEPRxCount+0x3c>)
 800916a:	4b0f      	ldr	r3, [pc, #60]	; (80091a8 <SetEPRxCount+0x40>)
 800916c:	6812      	ldr	r2, [r2, #0]
 800916e:	293e      	cmp	r1, #62	; 0x3e
 8009170:	b292      	uxth	r2, r2
 8009172:	eb02 00c0 	add.w	r0, r2, r0, lsl #3
 8009176:	4403      	add	r3, r0
 8009178:	ea4f 0343 	mov.w	r3, r3, lsl #1
 800917c:	d90a      	bls.n	8009194 <SetEPRxCount+0x2c>
 800917e:	094a      	lsrs	r2, r1, #5
 8009180:	06c8      	lsls	r0, r1, #27
 8009182:	bf04      	itt	eq
 8009184:	f102 32ff 	addeq.w	r2, r2, #4294967295
 8009188:	b292      	uxtheq	r2, r2
 800918a:	0292      	lsls	r2, r2, #10
 800918c:	f442 4200 	orr.w	r2, r2, #32768	; 0x8000
 8009190:	601a      	str	r2, [r3, #0]
 8009192:	4770      	bx	lr
 8009194:	084a      	lsrs	r2, r1, #1
 8009196:	07c9      	lsls	r1, r1, #31
 8009198:	bf48      	it	mi
 800919a:	3201      	addmi	r2, #1
 800919c:	0292      	lsls	r2, r2, #10
 800919e:	601a      	str	r2, [r3, #0]
 80091a0:	4770      	bx	lr
 80091a2:	bf00      	nop
 80091a4:	40005c50 	.word	0x40005c50
 80091a8:	20003006 	.word	0x20003006

080091ac <GetEPRxCount>:
 80091ac:	4a05      	ldr	r2, [pc, #20]	; (80091c4 <GetEPRxCount+0x18>)
 80091ae:	4b06      	ldr	r3, [pc, #24]	; (80091c8 <GetEPRxCount+0x1c>)
 80091b0:	6812      	ldr	r2, [r2, #0]
 80091b2:	b292      	uxth	r2, r2
 80091b4:	eb02 00c0 	add.w	r0, r2, r0, lsl #3
 80091b8:	4403      	add	r3, r0
 80091ba:	005b      	lsls	r3, r3, #1
 80091bc:	6818      	ldr	r0, [r3, #0]
 80091be:	f3c0 0009 	ubfx	r0, r0, #0, #10
 80091c2:	4770      	bx	lr
 80091c4:	40005c50 	.word	0x40005c50
 80091c8:	20003006 	.word	0x20003006

080091cc <ByteSwap>:
 80091cc:	b2c3      	uxtb	r3, r0
 80091ce:	0a00      	lsrs	r0, r0, #8
 80091d0:	ea40 2003 	orr.w	r0, r0, r3, lsl #8
 80091d4:	4770      	bx	lr
 80091d6:	bf00      	nop

080091d8 <Standard_GetConfiguration>:
 80091d8:	b508      	push	{r3, lr}
 80091da:	b138      	cbz	r0, 80091ec <Standard_GetConfiguration+0x14>
 80091dc:	4b06      	ldr	r3, [pc, #24]	; (80091f8 <Standard_GetConfiguration+0x20>)
 80091de:	681b      	ldr	r3, [r3, #0]
 80091e0:	681b      	ldr	r3, [r3, #0]
 80091e2:	4798      	blx	r3
 80091e4:	4b05      	ldr	r3, [pc, #20]	; (80091fc <Standard_GetConfiguration+0x24>)
 80091e6:	6818      	ldr	r0, [r3, #0]
 80091e8:	300a      	adds	r0, #10
 80091ea:	bd08      	pop	{r3, pc}
 80091ec:	4b03      	ldr	r3, [pc, #12]	; (80091fc <Standard_GetConfiguration+0x24>)
 80091ee:	2201      	movs	r2, #1
 80091f0:	681b      	ldr	r3, [r3, #0]
 80091f2:	821a      	strh	r2, [r3, #16]
 80091f4:	bd08      	pop	{r3, pc}
 80091f6:	bf00      	nop
 80091f8:	2000584c 	.word	0x2000584c
 80091fc:	20005850 	.word	0x20005850

08009200 <Standard_GetInterface>:
 8009200:	b508      	push	{r3, lr}
 8009202:	b138      	cbz	r0, 8009214 <Standard_GetInterface+0x14>
 8009204:	4b06      	ldr	r3, [pc, #24]	; (8009220 <Standard_GetInterface+0x20>)
 8009206:	681b      	ldr	r3, [r3, #0]
 8009208:	689b      	ldr	r3, [r3, #8]
 800920a:	4798      	blx	r3
 800920c:	4b05      	ldr	r3, [pc, #20]	; (8009224 <Standard_GetInterface+0x24>)
 800920e:	6818      	ldr	r0, [r3, #0]
 8009210:	300c      	adds	r0, #12
 8009212:	bd08      	pop	{r3, pc}
 8009214:	4b03      	ldr	r3, [pc, #12]	; (8009224 <Standard_GetInterface+0x24>)
 8009216:	2201      	movs	r2, #1
 8009218:	681b      	ldr	r3, [r3, #0]
 800921a:	821a      	strh	r2, [r3, #16]
 800921c:	bd08      	pop	{r3, pc}
 800921e:	bf00      	nop
 8009220:	2000584c 	.word	0x2000584c
 8009224:	20005850 	.word	0x20005850

08009228 <Standard_GetStatus>:
 8009228:	b508      	push	{r3, lr}
 800922a:	4b22      	ldr	r3, [pc, #136]	; (80092b4 <Standard_GetStatus+0x8c>)
 800922c:	2800      	cmp	r0, #0
 800922e:	d032      	beq.n	8009296 <Standard_GetStatus+0x6e>
 8009230:	4821      	ldr	r0, [pc, #132]	; (80092b8 <Standard_GetStatus+0x90>)
 8009232:	681a      	ldr	r2, [r3, #0]
 8009234:	2100      	movs	r1, #0
 8009236:	8001      	strh	r1, [r0, #0]
 8009238:	7813      	ldrb	r3, [r2, #0]
 800923a:	f013 037f 	ands.w	r3, r3, #127	; 0x7f
 800923e:	d016      	beq.n	800926e <Standard_GetStatus+0x46>
 8009240:	2b01      	cmp	r3, #1
 8009242:	d027      	beq.n	8009294 <Standard_GetStatus+0x6c>
 8009244:	2b02      	cmp	r3, #2
 8009246:	d124      	bne.n	8009292 <Standard_GetStatus+0x6a>
 8009248:	7953      	ldrb	r3, [r2, #5]
 800924a:	f003 020f 	and.w	r2, r3, #15
 800924e:	061b      	lsls	r3, r3, #24
 8009250:	d425      	bmi.n	800929e <Standard_GetStatus+0x76>
 8009252:	0093      	lsls	r3, r2, #2
 8009254:	f103 4380 	add.w	r3, r3, #1073741824	; 0x40000000
 8009258:	f503 43b8 	add.w	r3, r3, #23552	; 0x5c00
 800925c:	681b      	ldr	r3, [r3, #0]
 800925e:	f403 5340 	and.w	r3, r3, #12288	; 0x3000
 8009262:	f5b3 5f80 	cmp.w	r3, #4096	; 0x1000
 8009266:	d10e      	bne.n	8009286 <Standard_GetStatus+0x5e>
 8009268:	2301      	movs	r3, #1
 800926a:	7003      	strb	r3, [r0, #0]
 800926c:	e00b      	b.n	8009286 <Standard_GetStatus+0x5e>
 800926e:	7a53      	ldrb	r3, [r2, #9]
 8009270:	069a      	lsls	r2, r3, #26
 8009272:	bf54      	ite	pl
 8009274:	7802      	ldrbpl	r2, [r0, #0]
 8009276:	2202      	movmi	r2, #2
 8009278:	0659      	lsls	r1, r3, #25
 800927a:	bf4c      	ite	mi
 800927c:	f042 0201 	orrmi.w	r2, r2, #1
 8009280:	f022 0201 	bicpl.w	r2, r2, #1
 8009284:	7002      	strb	r2, [r0, #0]
 8009286:	4b0d      	ldr	r3, [pc, #52]	; (80092bc <Standard_GetStatus+0x94>)
 8009288:	681b      	ldr	r3, [r3, #0]
 800928a:	691b      	ldr	r3, [r3, #16]
 800928c:	4798      	blx	r3
 800928e:	480a      	ldr	r0, [pc, #40]	; (80092b8 <Standard_GetStatus+0x90>)
 8009290:	bd08      	pop	{r3, pc}
 8009292:	4608      	mov	r0, r1
 8009294:	bd08      	pop	{r3, pc}
 8009296:	681b      	ldr	r3, [r3, #0]
 8009298:	2202      	movs	r2, #2
 800929a:	821a      	strh	r2, [r3, #16]
 800929c:	bd08      	pop	{r3, pc}
 800929e:	0092      	lsls	r2, r2, #2
 80092a0:	f102 4280 	add.w	r2, r2, #1073741824	; 0x40000000
 80092a4:	f502 42b8 	add.w	r2, r2, #23552	; 0x5c00
 80092a8:	6813      	ldr	r3, [r2, #0]
 80092aa:	f003 0330 	and.w	r3, r3, #48	; 0x30
 80092ae:	2b10      	cmp	r3, #16
 80092b0:	d1e9      	bne.n	8009286 <Standard_GetStatus+0x5e>
 80092b2:	e7d9      	b.n	8009268 <Standard_GetStatus+0x40>
 80092b4:	20005850 	.word	0x20005850
 80092b8:	20005820 	.word	0x20005820
 80092bc:	2000584c 	.word	0x2000584c

080092c0 <DataStageIn>:
 80092c0:	e92d 41f0 	stmdb	sp!, {r4, r5, r6, r7, r8, lr}
 80092c4:	4f26      	ldr	r7, [pc, #152]	; (8009360 <DataStageIn+0xa0>)
 80092c6:	683c      	ldr	r4, [r7, #0]
 80092c8:	8a23      	ldrh	r3, [r4, #16]
 80092ca:	7a26      	ldrb	r6, [r4, #8]
 80092cc:	b923      	cbnz	r3, 80092d8 <DataStageIn+0x18>
 80092ce:	2e04      	cmp	r6, #4
 80092d0:	d02d      	beq.n	800932e <DataStageIn+0x6e>
 80092d2:	8aa5      	ldrh	r5, [r4, #20]
 80092d4:	2604      	movs	r6, #4
 80092d6:	e003      	b.n	80092e0 <DataStageIn+0x20>
 80092d8:	8aa5      	ldrh	r5, [r4, #20]
 80092da:	42ab      	cmp	r3, r5
 80092dc:	d9fa      	bls.n	80092d4 <DataStageIn+0x14>
 80092de:	2602      	movs	r6, #2
 80092e0:	429d      	cmp	r5, r3
 80092e2:	bf28      	it	cs
 80092e4:	461d      	movcs	r5, r3
 80092e6:	4628      	mov	r0, r5
 80092e8:	69a3      	ldr	r3, [r4, #24]
 80092ea:	4798      	blx	r3
 80092ec:	4680      	mov	r8, r0
 80092ee:	2000      	movs	r0, #0
 80092f0:	f7ff ff10 	bl	8009114 <GetEPTxAddr>
 80092f4:	462a      	mov	r2, r5
 80092f6:	4601      	mov	r1, r0
 80092f8:	4640      	mov	r0, r8
 80092fa:	f000 fc29 	bl	8009b50 <UserToPMABufferCopy>
 80092fe:	4629      	mov	r1, r5
 8009300:	2000      	movs	r0, #0
 8009302:	f7ff ff23 	bl	800914c <SetEPTxCount>
 8009306:	8a61      	ldrh	r1, [r4, #18]
 8009308:	f8b4 c010 	ldrh.w	ip, [r4, #16]
 800930c:	4815      	ldr	r0, [pc, #84]	; (8009364 <DataStageIn+0xa4>)
 800930e:	4b16      	ldr	r3, [pc, #88]	; (8009368 <DataStageIn+0xa8>)
 8009310:	ebc5 0c0c 	rsb	ip, r5, ip
 8009314:	683a      	ldr	r2, [r7, #0]
 8009316:	440d      	add	r5, r1
 8009318:	2730      	movs	r7, #48	; 0x30
 800931a:	f44f 5140 	mov.w	r1, #12288	; 0x3000
 800931e:	8007      	strh	r7, [r0, #0]
 8009320:	f8a4 c010 	strh.w	ip, [r4, #16]
 8009324:	8265      	strh	r5, [r4, #18]
 8009326:	8019      	strh	r1, [r3, #0]
 8009328:	7216      	strb	r6, [r2, #8]
 800932a:	e8bd 81f0 	ldmia.w	sp!, {r4, r5, r6, r7, r8, pc}
 800932e:	490f      	ldr	r1, [pc, #60]	; (800936c <DataStageIn+0xac>)
 8009330:	780a      	ldrb	r2, [r1, #0]
 8009332:	2a01      	cmp	r2, #1
 8009334:	d007      	beq.n	8009346 <DataStageIn+0x86>
 8009336:	4b0b      	ldr	r3, [pc, #44]	; (8009364 <DataStageIn+0xa4>)
 8009338:	4622      	mov	r2, r4
 800933a:	2607      	movs	r6, #7
 800933c:	2110      	movs	r1, #16
 800933e:	7216      	strb	r6, [r2, #8]
 8009340:	8019      	strh	r1, [r3, #0]
 8009342:	e8bd 81f0 	ldmia.w	sp!, {r4, r5, r6, r7, r8, pc}
 8009346:	480a      	ldr	r0, [pc, #40]	; (8009370 <DataStageIn+0xb0>)
 8009348:	4a0a      	ldr	r2, [pc, #40]	; (8009374 <DataStageIn+0xb4>)
 800934a:	6805      	ldr	r5, [r0, #0]
 800934c:	4805      	ldr	r0, [pc, #20]	; (8009364 <DataStageIn+0xa4>)
 800934e:	b2ad      	uxth	r5, r5
 8009350:	442a      	add	r2, r5
 8009352:	0057      	lsls	r7, r2, #1
 8009354:	2530      	movs	r5, #48	; 0x30
 8009356:	603b      	str	r3, [r7, #0]
 8009358:	4622      	mov	r2, r4
 800935a:	700b      	strb	r3, [r1, #0]
 800935c:	8005      	strh	r5, [r0, #0]
 800935e:	e7e3      	b.n	8009328 <DataStageIn+0x68>
 8009360:	20005850 	.word	0x20005850
 8009364:	2000581e 	.word	0x2000581e
 8009368:	2000581c 	.word	0x2000581c
 800936c:	20000ecc 	.word	0x20000ecc
 8009370:	40005c50 	.word	0x40005c50
 8009374:	20003002 	.word	0x20003002

08009378 <Standard_SetConfiguration>:
 8009378:	b510      	push	{r4, lr}
 800937a:	4b0b      	ldr	r3, [pc, #44]	; (80093a8 <Standard_SetConfiguration+0x30>)
 800937c:	4a0b      	ldr	r2, [pc, #44]	; (80093ac <Standard_SetConfiguration+0x34>)
 800937e:	681b      	ldr	r3, [r3, #0]
 8009380:	7851      	ldrb	r1, [r2, #1]
 8009382:	78da      	ldrb	r2, [r3, #3]
 8009384:	4291      	cmp	r1, r2
 8009386:	d201      	bcs.n	800938c <Standard_SetConfiguration+0x14>
 8009388:	2002      	movs	r0, #2
 800938a:	bd10      	pop	{r4, pc}
 800938c:	7899      	ldrb	r1, [r3, #2]
 800938e:	2900      	cmp	r1, #0
 8009390:	d1fa      	bne.n	8009388 <Standard_SetConfiguration+0x10>
 8009392:	889c      	ldrh	r4, [r3, #4]
 8009394:	2c00      	cmp	r4, #0
 8009396:	d1f7      	bne.n	8009388 <Standard_SetConfiguration+0x10>
 8009398:	4905      	ldr	r1, [pc, #20]	; (80093b0 <Standard_SetConfiguration+0x38>)
 800939a:	729a      	strb	r2, [r3, #10]
 800939c:	680b      	ldr	r3, [r1, #0]
 800939e:	685b      	ldr	r3, [r3, #4]
 80093a0:	4798      	blx	r3
 80093a2:	4620      	mov	r0, r4
 80093a4:	bd10      	pop	{r4, pc}
 80093a6:	bf00      	nop
 80093a8:	20005850 	.word	0x20005850
 80093ac:	2000011c 	.word	0x2000011c
 80093b0:	2000584c 	.word	0x2000584c

080093b4 <Standard_SetInterface>:
 80093b4:	b538      	push	{r3, r4, r5, lr}
 80093b6:	4a10      	ldr	r2, [pc, #64]	; (80093f8 <Standard_SetInterface+0x44>)
 80093b8:	4c10      	ldr	r4, [pc, #64]	; (80093fc <Standard_SetInterface+0x48>)
 80093ba:	6812      	ldr	r2, [r2, #0]
 80093bc:	6823      	ldr	r3, [r4, #0]
 80093be:	7958      	ldrb	r0, [r3, #5]
 80093c0:	78d9      	ldrb	r1, [r3, #3]
 80093c2:	6993      	ldr	r3, [r2, #24]
 80093c4:	4798      	blx	r3
 80093c6:	6823      	ldr	r3, [r4, #0]
 80093c8:	7a9a      	ldrb	r2, [r3, #10]
 80093ca:	b90a      	cbnz	r2, 80093d0 <Standard_SetInterface+0x1c>
 80093cc:	2002      	movs	r0, #2
 80093ce:	bd38      	pop	{r3, r4, r5, pc}
 80093d0:	2800      	cmp	r0, #0
 80093d2:	d1fb      	bne.n	80093cc <Standard_SetInterface+0x18>
 80093d4:	791a      	ldrb	r2, [r3, #4]
 80093d6:	2a00      	cmp	r2, #0
 80093d8:	d1f8      	bne.n	80093cc <Standard_SetInterface+0x18>
 80093da:	789d      	ldrb	r5, [r3, #2]
 80093dc:	2d00      	cmp	r5, #0
 80093de:	d1f5      	bne.n	80093cc <Standard_SetInterface+0x18>
 80093e0:	4b07      	ldr	r3, [pc, #28]	; (8009400 <Standard_SetInterface+0x4c>)
 80093e2:	681b      	ldr	r3, [r3, #0]
 80093e4:	68db      	ldr	r3, [r3, #12]
 80093e6:	4798      	blx	r3
 80093e8:	6823      	ldr	r3, [r4, #0]
 80093ea:	4628      	mov	r0, r5
 80093ec:	7959      	ldrb	r1, [r3, #5]
 80093ee:	78da      	ldrb	r2, [r3, #3]
 80093f0:	72d9      	strb	r1, [r3, #11]
 80093f2:	731a      	strb	r2, [r3, #12]
 80093f4:	bd38      	pop	{r3, r4, r5, pc}
 80093f6:	bf00      	nop
 80093f8:	20005828 	.word	0x20005828
 80093fc:	20005850 	.word	0x20005850
 8009400:	2000584c 	.word	0x2000584c

08009404 <Standard_ClearFeature>:
 8009404:	b538      	push	{r3, r4, r5, lr}
 8009406:	4b32      	ldr	r3, [pc, #200]	; (80094d0 <Standard_ClearFeature+0xcc>)
 8009408:	681b      	ldr	r3, [r3, #0]
 800940a:	7818      	ldrb	r0, [r3, #0]
 800940c:	f010 007f 	ands.w	r0, r0, #127	; 0x7f
 8009410:	d003      	beq.n	800941a <Standard_ClearFeature+0x16>
 8009412:	2802      	cmp	r0, #2
 8009414:	d006      	beq.n	8009424 <Standard_ClearFeature+0x20>
 8009416:	2002      	movs	r0, #2
 8009418:	bd38      	pop	{r3, r4, r5, pc}
 800941a:	7a5a      	ldrb	r2, [r3, #9]
 800941c:	f022 0220 	bic.w	r2, r2, #32
 8009420:	725a      	strb	r2, [r3, #9]
 8009422:	bd38      	pop	{r3, r4, r5, pc}
 8009424:	885a      	ldrh	r2, [r3, #2]
 8009426:	2a00      	cmp	r2, #0
 8009428:	d1f6      	bne.n	8009418 <Standard_ClearFeature+0x14>
 800942a:	791a      	ldrb	r2, [r3, #4]
 800942c:	2a00      	cmp	r2, #0
 800942e:	d1f3      	bne.n	8009418 <Standard_ClearFeature+0x14>
 8009430:	795a      	ldrb	r2, [r3, #5]
 8009432:	f022 0080 	bic.w	r0, r2, #128	; 0x80
 8009436:	0084      	lsls	r4, r0, #2
 8009438:	f104 4180 	add.w	r1, r4, #1073741824	; 0x40000000
 800943c:	0615      	lsls	r5, r2, #24
 800943e:	f501 41b8 	add.w	r1, r1, #23552	; 0x5c00
 8009442:	bf56      	itet	pl
 8009444:	6809      	ldrpl	r1, [r1, #0]
 8009446:	680d      	ldrmi	r5, [r1, #0]
 8009448:	f401 5540 	andpl.w	r5, r1, #12288	; 0x3000
 800944c:	4921      	ldr	r1, [pc, #132]	; (80094d4 <Standard_ClearFeature+0xd0>)
 800944e:	bf48      	it	mi
 8009450:	f005 0530 	andmi.w	r5, r5, #48	; 0x30
 8009454:	7809      	ldrb	r1, [r1, #0]
 8009456:	4288      	cmp	r0, r1
 8009458:	d2dd      	bcs.n	8009416 <Standard_ClearFeature+0x12>
 800945a:	2d00      	cmp	r5, #0
 800945c:	d0db      	beq.n	8009416 <Standard_ClearFeature+0x12>
 800945e:	7a9b      	ldrb	r3, [r3, #10]
 8009460:	2b00      	cmp	r3, #0
 8009462:	d0d8      	beq.n	8009416 <Standard_ClearFeature+0x12>
 8009464:	f104 4480 	add.w	r4, r4, #1073741824	; 0x40000000
 8009468:	f504 44b8 	add.w	r4, r4, #23552	; 0x5c00
 800946c:	0612      	lsls	r2, r2, #24
 800946e:	6823      	ldr	r3, [r4, #0]
 8009470:	d509      	bpl.n	8009486 <Standard_ClearFeature+0x82>
 8009472:	f003 0330 	and.w	r3, r3, #48	; 0x30
 8009476:	2b10      	cmp	r3, #16
 8009478:	d01e      	beq.n	80094b8 <Standard_ClearFeature+0xb4>
 800947a:	4b17      	ldr	r3, [pc, #92]	; (80094d8 <Standard_ClearFeature+0xd4>)
 800947c:	681b      	ldr	r3, [r3, #0]
 800947e:	695b      	ldr	r3, [r3, #20]
 8009480:	4798      	blx	r3
 8009482:	2000      	movs	r0, #0
 8009484:	bd38      	pop	{r3, r4, r5, pc}
 8009486:	f403 5340 	and.w	r3, r3, #12288	; 0x3000
 800948a:	f5b3 5f80 	cmp.w	r3, #4096	; 0x1000
 800948e:	d1f4      	bne.n	800947a <Standard_ClearFeature+0x76>
 8009490:	b9d8      	cbnz	r0, 80094ca <Standard_ClearFeature+0xc6>
 8009492:	4b12      	ldr	r3, [pc, #72]	; (80094dc <Standard_ClearFeature+0xd8>)
 8009494:	f893 102c 	ldrb.w	r1, [r3, #44]	; 0x2c
 8009498:	f7ff fe66 	bl	8009168 <SetEPRxCount>
 800949c:	6823      	ldr	r3, [r4, #0]
 800949e:	f423 4380 	bic.w	r3, r3, #16384	; 0x4000
 80094a2:	f023 0370 	bic.w	r3, r3, #112	; 0x70
 80094a6:	b29b      	uxth	r3, r3
 80094a8:	f483 5340 	eor.w	r3, r3, #12288	; 0x3000
 80094ac:	f443 4300 	orr.w	r3, r3, #32768	; 0x8000
 80094b0:	f043 0380 	orr.w	r3, r3, #128	; 0x80
 80094b4:	6023      	str	r3, [r4, #0]
 80094b6:	e7e0      	b.n	800947a <Standard_ClearFeature+0x76>
 80094b8:	b2c4      	uxtb	r4, r0
 80094ba:	4620      	mov	r0, r4
 80094bc:	f7ff fdf8 	bl	80090b0 <ClearDTOG_TX>
 80094c0:	4620      	mov	r0, r4
 80094c2:	2130      	movs	r1, #48	; 0x30
 80094c4:	f7ff fd76 	bl	8008fb4 <SetEPTxStatus>
 80094c8:	e7d7      	b.n	800947a <Standard_ClearFeature+0x76>
 80094ca:	f7ff fddf 	bl	800908c <ClearDTOG_RX>
 80094ce:	e7e5      	b.n	800949c <Standard_ClearFeature+0x98>
 80094d0:	20005850 	.word	0x20005850
 80094d4:	2000011c 	.word	0x2000011c
 80094d8:	2000584c 	.word	0x2000584c
 80094dc:	20000098 	.word	0x20000098

080094e0 <Standard_SetEndPointFeature>:
 80094e0:	b538      	push	{r3, r4, r5, lr}
 80094e2:	4b24      	ldr	r3, [pc, #144]	; (8009574 <Standard_SetEndPointFeature+0x94>)
 80094e4:	6818      	ldr	r0, [r3, #0]
 80094e6:	7943      	ldrb	r3, [r0, #5]
 80094e8:	f023 0280 	bic.w	r2, r3, #128	; 0x80
 80094ec:	0094      	lsls	r4, r2, #2
 80094ee:	f104 4180 	add.w	r1, r4, #1073741824	; 0x40000000
 80094f2:	061d      	lsls	r5, r3, #24
 80094f4:	f501 41b8 	add.w	r1, r1, #23552	; 0x5c00
 80094f8:	bf56      	itet	pl
 80094fa:	6809      	ldrpl	r1, [r1, #0]
 80094fc:	680d      	ldrmi	r5, [r1, #0]
 80094fe:	f401 5540 	andpl.w	r5, r1, #12288	; 0x3000
 8009502:	491d      	ldr	r1, [pc, #116]	; (8009578 <Standard_SetEndPointFeature+0x98>)
 8009504:	bf48      	it	mi
 8009506:	f005 0530 	andmi.w	r5, r5, #48	; 0x30
 800950a:	7809      	ldrb	r1, [r1, #0]
 800950c:	428a      	cmp	r2, r1
 800950e:	d301      	bcc.n	8009514 <Standard_SetEndPointFeature+0x34>
 8009510:	2002      	movs	r0, #2
 8009512:	bd38      	pop	{r3, r4, r5, pc}
 8009514:	8842      	ldrh	r2, [r0, #2]
 8009516:	2a00      	cmp	r2, #0
 8009518:	d1fa      	bne.n	8009510 <Standard_SetEndPointFeature+0x30>
 800951a:	2d00      	cmp	r5, #0
 800951c:	d0f8      	beq.n	8009510 <Standard_SetEndPointFeature+0x30>
 800951e:	7a82      	ldrb	r2, [r0, #10]
 8009520:	2a00      	cmp	r2, #0
 8009522:	d0f5      	beq.n	8009510 <Standard_SetEndPointFeature+0x30>
 8009524:	f104 4480 	add.w	r4, r4, #1073741824	; 0x40000000
 8009528:	f504 44b8 	add.w	r4, r4, #23552	; 0x5c00
 800952c:	f013 0f80 	tst.w	r3, #128	; 0x80
 8009530:	6823      	ldr	r3, [r4, #0]
 8009532:	d011      	beq.n	8009558 <Standard_SetEndPointFeature+0x78>
 8009534:	f423 43e0 	bic.w	r3, r3, #28672	; 0x7000
 8009538:	f023 0340 	bic.w	r3, r3, #64	; 0x40
 800953c:	b29b      	uxth	r3, r3
 800953e:	f083 0310 	eor.w	r3, r3, #16
 8009542:	f443 4300 	orr.w	r3, r3, #32768	; 0x8000
 8009546:	f043 0380 	orr.w	r3, r3, #128	; 0x80
 800954a:	6023      	str	r3, [r4, #0]
 800954c:	4b0b      	ldr	r3, [pc, #44]	; (800957c <Standard_SetEndPointFeature+0x9c>)
 800954e:	681b      	ldr	r3, [r3, #0]
 8009550:	699b      	ldr	r3, [r3, #24]
 8009552:	4798      	blx	r3
 8009554:	2000      	movs	r0, #0
 8009556:	bd38      	pop	{r3, r4, r5, pc}
 8009558:	f423 4380 	bic.w	r3, r3, #16384	; 0x4000
 800955c:	f023 0370 	bic.w	r3, r3, #112	; 0x70
 8009560:	b29b      	uxth	r3, r3
 8009562:	f483 5380 	eor.w	r3, r3, #4096	; 0x1000
 8009566:	f443 4300 	orr.w	r3, r3, #32768	; 0x8000
 800956a:	f043 0380 	orr.w	r3, r3, #128	; 0x80
 800956e:	6023      	str	r3, [r4, #0]
 8009570:	e7ec      	b.n	800954c <Standard_SetEndPointFeature+0x6c>
 8009572:	bf00      	nop
 8009574:	20005850 	.word	0x20005850
 8009578:	2000011c 	.word	0x2000011c
 800957c:	2000584c 	.word	0x2000584c

08009580 <Standard_GetDescriptorData>:
 8009580:	4b05      	ldr	r3, [pc, #20]	; (8009598 <Standard_GetDescriptorData+0x18>)
 8009582:	681b      	ldr	r3, [r3, #0]
 8009584:	8a5a      	ldrh	r2, [r3, #18]
 8009586:	b110      	cbz	r0, 800958e <Standard_GetDescriptorData+0xe>
 8009588:	6808      	ldr	r0, [r1, #0]
 800958a:	4410      	add	r0, r2
 800958c:	4770      	bx	lr
 800958e:	8889      	ldrh	r1, [r1, #4]
 8009590:	1a8a      	subs	r2, r1, r2
 8009592:	821a      	strh	r2, [r3, #16]
 8009594:	4770      	bx	lr
 8009596:	bf00      	nop
 8009598:	20005850 	.word	0x20005850

0800959c <Post0_Process>:
 800959c:	b510      	push	{r4, lr}
 800959e:	4b0b      	ldr	r3, [pc, #44]	; (80095cc <Post0_Process+0x30>)
 80095a0:	2000      	movs	r0, #0
 80095a2:	f893 102c 	ldrb.w	r1, [r3, #44]	; 0x2c
 80095a6:	f7ff fddf 	bl	8009168 <SetEPRxCount>
 80095aa:	4b09      	ldr	r3, [pc, #36]	; (80095d0 <Post0_Process+0x34>)
 80095ac:	681b      	ldr	r3, [r3, #0]
 80095ae:	7a18      	ldrb	r0, [r3, #8]
 80095b0:	2808      	cmp	r0, #8
 80095b2:	d106      	bne.n	80095c2 <Post0_Process+0x26>
 80095b4:	4907      	ldr	r1, [pc, #28]	; (80095d4 <Post0_Process+0x38>)
 80095b6:	4b08      	ldr	r3, [pc, #32]	; (80095d8 <Post0_Process+0x3c>)
 80095b8:	f44f 5480 	mov.w	r4, #4096	; 0x1000
 80095bc:	2210      	movs	r2, #16
 80095be:	800c      	strh	r4, [r1, #0]
 80095c0:	801a      	strh	r2, [r3, #0]
 80095c2:	f1b0 0309 	subs.w	r3, r0, #9
 80095c6:	4258      	negs	r0, r3
 80095c8:	4158      	adcs	r0, r3
 80095ca:	bd10      	pop	{r4, pc}
 80095cc:	20000098 	.word	0x20000098
 80095d0:	20005850 	.word	0x20005850
 80095d4:	2000581c 	.word	0x2000581c
 80095d8:	2000581e 	.word	0x2000581e

080095dc <Setup0_Process>:
 80095dc:	b570      	push	{r4, r5, r6, lr}
 80095de:	4ba9      	ldr	r3, [pc, #676]	; (8009884 <Setup0_Process+0x2a8>)
 80095e0:	4da9      	ldr	r5, [pc, #676]	; (8009888 <Setup0_Process+0x2ac>)
 80095e2:	681a      	ldr	r2, [r3, #0]
 80095e4:	682c      	ldr	r4, [r5, #0]
 80095e6:	4ba9      	ldr	r3, [pc, #676]	; (800988c <Setup0_Process+0x2b0>)
 80095e8:	b292      	uxth	r2, r2
 80095ea:	4413      	add	r3, r2
 80095ec:	7a22      	ldrb	r2, [r4, #8]
 80095ee:	005b      	lsls	r3, r3, #1
 80095f0:	2a09      	cmp	r2, #9
 80095f2:	b082      	sub	sp, #8
 80095f4:	681e      	ldr	r6, [r3, #0]
 80095f6:	d047      	beq.n	8009688 <Setup0_Process+0xac>
 80095f8:	b2b6      	uxth	r6, r6
 80095fa:	0076      	lsls	r6, r6, #1
 80095fc:	f106 4680 	add.w	r6, r6, #1073741824	; 0x40000000
 8009600:	f506 46c0 	add.w	r6, r6, #24576	; 0x6000
 8009604:	7833      	ldrb	r3, [r6, #0]
 8009606:	7023      	strb	r3, [r4, #0]
 8009608:	7873      	ldrb	r3, [r6, #1]
 800960a:	7063      	strb	r3, [r4, #1]
 800960c:	88b0      	ldrh	r0, [r6, #4]
 800960e:	f7ff fddd 	bl	80091cc <ByteSwap>
 8009612:	8060      	strh	r0, [r4, #2]
 8009614:	8930      	ldrh	r0, [r6, #8]
 8009616:	682c      	ldr	r4, [r5, #0]
 8009618:	f7ff fdd8 	bl	80091cc <ByteSwap>
 800961c:	80a0      	strh	r0, [r4, #4]
 800961e:	89b2      	ldrh	r2, [r6, #12]
 8009620:	682b      	ldr	r3, [r5, #0]
 8009622:	2101      	movs	r1, #1
 8009624:	80da      	strh	r2, [r3, #6]
 8009626:	7219      	strb	r1, [r3, #8]
 8009628:	2a00      	cmp	r2, #0
 800962a:	d033      	beq.n	8009694 <Setup0_Process+0xb8>
 800962c:	7858      	ldrb	r0, [r3, #1]
 800962e:	2806      	cmp	r0, #6
 8009630:	f000 8086 	beq.w	8009740 <Setup0_Process+0x164>
 8009634:	2800      	cmp	r0, #0
 8009636:	d146      	bne.n	80096c6 <Setup0_Process+0xea>
 8009638:	8859      	ldrh	r1, [r3, #2]
 800963a:	2900      	cmp	r1, #0
 800963c:	f000 8093 	beq.w	8009766 <Setup0_Process+0x18a>
 8009640:	4c93      	ldr	r4, [pc, #588]	; (8009890 <Setup0_Process+0x2b4>)
 8009642:	6823      	ldr	r3, [r4, #0]
 8009644:	691b      	ldr	r3, [r3, #16]
 8009646:	4798      	blx	r3
 8009648:	2803      	cmp	r0, #3
 800964a:	682b      	ldr	r3, [r5, #0]
 800964c:	d04b      	beq.n	80096e6 <Setup0_Process+0x10a>
 800964e:	8a1a      	ldrh	r2, [r3, #16]
 8009650:	f64f 71ff 	movw	r1, #65535	; 0xffff
 8009654:	428a      	cmp	r2, r1
 8009656:	d046      	beq.n	80096e6 <Setup0_Process+0x10a>
 8009658:	2802      	cmp	r0, #2
 800965a:	d00f      	beq.n	800967c <Setup0_Process+0xa0>
 800965c:	b172      	cbz	r2, 800967c <Setup0_Process+0xa0>
 800965e:	f993 1000 	ldrsb.w	r1, [r3]
 8009662:	2900      	cmp	r1, #0
 8009664:	f2c0 80b4 	blt.w	80097d0 <Setup0_Process+0x1f4>
 8009668:	498a      	ldr	r1, [pc, #552]	; (8009894 <Setup0_Process+0x2b8>)
 800966a:	f44f 5040 	mov.w	r0, #12288	; 0x3000
 800966e:	2203      	movs	r2, #3
 8009670:	8008      	strh	r0, [r1, #0]
 8009672:	721a      	strb	r2, [r3, #8]
 8009674:	f7ff ff92 	bl	800959c <Post0_Process>
 8009678:	b002      	add	sp, #8
 800967a:	bd70      	pop	{r4, r5, r6, pc}
 800967c:	2208      	movs	r2, #8
 800967e:	721a      	strb	r2, [r3, #8]
 8009680:	f7ff ff8c 	bl	800959c <Post0_Process>
 8009684:	b002      	add	sp, #8
 8009686:	bd70      	pop	{r4, r5, r6, pc}
 8009688:	88e2      	ldrh	r2, [r4, #6]
 800968a:	4623      	mov	r3, r4
 800968c:	2101      	movs	r1, #1
 800968e:	7219      	strb	r1, [r3, #8]
 8009690:	2a00      	cmp	r2, #0
 8009692:	d1cb      	bne.n	800962c <Setup0_Process+0x50>
 8009694:	781a      	ldrb	r2, [r3, #0]
 8009696:	785c      	ldrb	r4, [r3, #1]
 8009698:	f012 027f 	ands.w	r2, r2, #127	; 0x7f
 800969c:	d029      	beq.n	80096f2 <Setup0_Process+0x116>
 800969e:	2a01      	cmp	r2, #1
 80096a0:	f000 80ac 	beq.w	80097fc <Setup0_Process+0x220>
 80096a4:	2a02      	cmp	r2, #2
 80096a6:	f000 80ce 	beq.w	8009846 <Setup0_Process+0x26a>
 80096aa:	4b79      	ldr	r3, [pc, #484]	; (8009890 <Setup0_Process+0x2b4>)
 80096ac:	4620      	mov	r0, r4
 80096ae:	681b      	ldr	r3, [r3, #0]
 80096b0:	695b      	ldr	r3, [r3, #20]
 80096b2:	4798      	blx	r3
 80096b4:	2803      	cmp	r0, #3
 80096b6:	f000 8101 	beq.w	80098bc <Setup0_Process+0x2e0>
 80096ba:	682b      	ldr	r3, [r5, #0]
 80096bc:	2800      	cmp	r0, #0
 80096be:	d031      	beq.n	8009724 <Setup0_Process+0x148>
 80096c0:	2208      	movs	r2, #8
 80096c2:	721a      	strb	r2, [r3, #8]
 80096c4:	e7d6      	b.n	8009674 <Setup0_Process+0x98>
 80096c6:	2808      	cmp	r0, #8
 80096c8:	d15f      	bne.n	800978a <Setup0_Process+0x1ae>
 80096ca:	781a      	ldrb	r2, [r3, #0]
 80096cc:	0652      	lsls	r2, r2, #25
 80096ce:	d1b7      	bne.n	8009640 <Setup0_Process+0x64>
 80096d0:	4a71      	ldr	r2, [pc, #452]	; (8009898 <Setup0_Process+0x2bc>)
 80096d2:	2000      	movs	r0, #0
 80096d4:	619a      	str	r2, [r3, #24]
 80096d6:	8258      	strh	r0, [r3, #18]
 80096d8:	4790      	blx	r2
 80096da:	682b      	ldr	r3, [r5, #0]
 80096dc:	f64f 71ff 	movw	r1, #65535	; 0xffff
 80096e0:	8a1a      	ldrh	r2, [r3, #16]
 80096e2:	428a      	cmp	r2, r1
 80096e4:	d1ba      	bne.n	800965c <Setup0_Process+0x80>
 80096e6:	2209      	movs	r2, #9
 80096e8:	721a      	strb	r2, [r3, #8]
 80096ea:	f7ff ff57 	bl	800959c <Post0_Process>
 80096ee:	b002      	add	sp, #8
 80096f0:	bd70      	pop	{r4, r5, r6, pc}
 80096f2:	2c09      	cmp	r4, #9
 80096f4:	f000 80c2 	beq.w	800987c <Setup0_Process+0x2a0>
 80096f8:	2c05      	cmp	r4, #5
 80096fa:	f000 8092 	beq.w	8009822 <Setup0_Process+0x246>
 80096fe:	2c03      	cmp	r4, #3
 8009700:	f000 80aa 	beq.w	8009858 <Setup0_Process+0x27c>
 8009704:	2c01      	cmp	r4, #1
 8009706:	d1d0      	bne.n	80096aa <Setup0_Process+0xce>
 8009708:	78da      	ldrb	r2, [r3, #3]
 800970a:	2a01      	cmp	r2, #1
 800970c:	d1cd      	bne.n	80096aa <Setup0_Process+0xce>
 800970e:	889a      	ldrh	r2, [r3, #4]
 8009710:	2a00      	cmp	r2, #0
 8009712:	d1ca      	bne.n	80096aa <Setup0_Process+0xce>
 8009714:	7a5b      	ldrb	r3, [r3, #9]
 8009716:	0699      	lsls	r1, r3, #26
 8009718:	d5c7      	bpl.n	80096aa <Setup0_Process+0xce>
 800971a:	f7ff fe73 	bl	8009404 <Standard_ClearFeature>
 800971e:	2800      	cmp	r0, #0
 8009720:	d1c3      	bne.n	80096aa <Setup0_Process+0xce>
 8009722:	682b      	ldr	r3, [r5, #0]
 8009724:	4957      	ldr	r1, [pc, #348]	; (8009884 <Setup0_Process+0x2a8>)
 8009726:	4a5d      	ldr	r2, [pc, #372]	; (800989c <Setup0_Process+0x2c0>)
 8009728:	6808      	ldr	r0, [r1, #0]
 800972a:	2400      	movs	r4, #0
 800972c:	b280      	uxth	r0, r0
 800972e:	4402      	add	r2, r0
 8009730:	0052      	lsls	r2, r2, #1
 8009732:	495b      	ldr	r1, [pc, #364]	; (80098a0 <Setup0_Process+0x2c4>)
 8009734:	6014      	str	r4, [r2, #0]
 8009736:	2030      	movs	r0, #48	; 0x30
 8009738:	2206      	movs	r2, #6
 800973a:	8008      	strh	r0, [r1, #0]
 800973c:	721a      	strb	r2, [r3, #8]
 800973e:	e799      	b.n	8009674 <Setup0_Process+0x98>
 8009740:	781a      	ldrb	r2, [r3, #0]
 8009742:	0652      	lsls	r2, r2, #25
 8009744:	f47f af7c 	bne.w	8009640 <Setup0_Process+0x64>
 8009748:	789a      	ldrb	r2, [r3, #2]
 800974a:	4c51      	ldr	r4, [pc, #324]	; (8009890 <Setup0_Process+0x2b4>)
 800974c:	2a01      	cmp	r2, #1
 800974e:	f000 80af 	beq.w	80098b0 <Setup0_Process+0x2d4>
 8009752:	2a02      	cmp	r2, #2
 8009754:	d05f      	beq.n	8009816 <Setup0_Process+0x23a>
 8009756:	2a03      	cmp	r2, #3
 8009758:	f47f af73 	bne.w	8009642 <Setup0_Process+0x66>
 800975c:	6822      	ldr	r2, [r4, #0]
 800975e:	6a52      	ldr	r2, [r2, #36]	; 0x24
 8009760:	2a00      	cmp	r2, #0
 8009762:	d1b6      	bne.n	80096d2 <Setup0_Process+0xf6>
 8009764:	e76d      	b.n	8009642 <Setup0_Process+0x66>
 8009766:	685a      	ldr	r2, [r3, #4]
 8009768:	f422 427f 	bic.w	r2, r2, #65280	; 0xff00
 800976c:	f5b2 3f00 	cmp.w	r2, #131072	; 0x20000
 8009770:	f47f af66 	bne.w	8009640 <Setup0_Process+0x64>
 8009774:	781a      	ldrb	r2, [r3, #0]
 8009776:	f012 027f 	ands.w	r2, r2, #127	; 0x7f
 800977a:	f040 80a3 	bne.w	80098c4 <Setup0_Process+0x2e8>
 800977e:	889a      	ldrh	r2, [r3, #4]
 8009780:	2a00      	cmp	r2, #0
 8009782:	f47f af5d 	bne.w	8009640 <Setup0_Process+0x64>
 8009786:	4a47      	ldr	r2, [pc, #284]	; (80098a4 <Setup0_Process+0x2c8>)
 8009788:	e7a3      	b.n	80096d2 <Setup0_Process+0xf6>
 800978a:	280a      	cmp	r0, #10
 800978c:	f47f af58 	bne.w	8009640 <Setup0_Process+0x64>
 8009790:	781a      	ldrb	r2, [r3, #0]
 8009792:	f002 027f 	and.w	r2, r2, #127	; 0x7f
 8009796:	2a01      	cmp	r2, #1
 8009798:	f47f af52 	bne.w	8009640 <Setup0_Process+0x64>
 800979c:	7a9a      	ldrb	r2, [r3, #10]
 800979e:	2a00      	cmp	r2, #0
 80097a0:	f43f af4e 	beq.w	8009640 <Setup0_Process+0x64>
 80097a4:	8859      	ldrh	r1, [r3, #2]
 80097a6:	2900      	cmp	r1, #0
 80097a8:	f47f af4a 	bne.w	8009640 <Setup0_Process+0x64>
 80097ac:	685a      	ldr	r2, [r3, #4]
 80097ae:	4c38      	ldr	r4, [pc, #224]	; (8009890 <Setup0_Process+0x2b4>)
 80097b0:	f422 427f 	bic.w	r2, r2, #65280	; 0xff00
 80097b4:	f5b2 3f80 	cmp.w	r2, #65536	; 0x10000
 80097b8:	f47f af43 	bne.w	8009642 <Setup0_Process+0x66>
 80097bc:	7958      	ldrb	r0, [r3, #5]
 80097be:	6823      	ldr	r3, [r4, #0]
 80097c0:	699b      	ldr	r3, [r3, #24]
 80097c2:	4798      	blx	r3
 80097c4:	682b      	ldr	r3, [r5, #0]
 80097c6:	2800      	cmp	r0, #0
 80097c8:	f000 80bd 	beq.w	8009946 <Setup0_Process+0x36a>
 80097cc:	7858      	ldrb	r0, [r3, #1]
 80097ce:	e738      	b.n	8009642 <Setup0_Process+0x66>
 80097d0:	88d9      	ldrh	r1, [r3, #6]
 80097d2:	9101      	str	r1, [sp, #4]
 80097d4:	9801      	ldr	r0, [sp, #4]
 80097d6:	4282      	cmp	r2, r0
 80097d8:	d816      	bhi.n	8009808 <Setup0_Process+0x22c>
 80097da:	428a      	cmp	r2, r1
 80097dc:	f080 8095 	bcs.w	800990a <Setup0_Process+0x32e>
 80097e0:	492b      	ldr	r1, [pc, #172]	; (8009890 <Setup0_Process+0x2b4>)
 80097e2:	6809      	ldr	r1, [r1, #0]
 80097e4:	f891 102c 	ldrb.w	r1, [r1, #44]	; 0x2c
 80097e8:	428a      	cmp	r2, r1
 80097ea:	f080 8093 	bcs.w	8009914 <Setup0_Process+0x338>
 80097ee:	4a2e      	ldr	r2, [pc, #184]	; (80098a8 <Setup0_Process+0x2cc>)
 80097f0:	2000      	movs	r0, #0
 80097f2:	7010      	strb	r0, [r2, #0]
 80097f4:	8299      	strh	r1, [r3, #20]
 80097f6:	f7ff fd63 	bl	80092c0 <DataStageIn>
 80097fa:	e741      	b.n	8009680 <Setup0_Process+0xa4>
 80097fc:	2c0b      	cmp	r4, #11
 80097fe:	f47f af54 	bne.w	80096aa <Setup0_Process+0xce>
 8009802:	f7ff fdd7 	bl	80093b4 <Standard_SetInterface>
 8009806:	e78a      	b.n	800971e <Setup0_Process+0x142>
 8009808:	4a21      	ldr	r2, [pc, #132]	; (8009890 <Setup0_Process+0x2b4>)
 800980a:	9901      	ldr	r1, [sp, #4]
 800980c:	6812      	ldr	r2, [r2, #0]
 800980e:	8219      	strh	r1, [r3, #16]
 8009810:	f892 102c 	ldrb.w	r1, [r2, #44]	; 0x2c
 8009814:	e7ee      	b.n	80097f4 <Setup0_Process+0x218>
 8009816:	6822      	ldr	r2, [r4, #0]
 8009818:	6a12      	ldr	r2, [r2, #32]
 800981a:	2a00      	cmp	r2, #0
 800981c:	f47f af59 	bne.w	80096d2 <Setup0_Process+0xf6>
 8009820:	e70f      	b.n	8009642 <Setup0_Process+0x66>
 8009822:	f993 2003 	ldrsb.w	r2, [r3, #3]
 8009826:	2a00      	cmp	r2, #0
 8009828:	f6ff af4a 	blt.w	80096c0 <Setup0_Process+0xe4>
 800982c:	789a      	ldrb	r2, [r3, #2]
 800982e:	2a00      	cmp	r2, #0
 8009830:	f47f af46 	bne.w	80096c0 <Setup0_Process+0xe4>
 8009834:	889a      	ldrh	r2, [r3, #4]
 8009836:	2a00      	cmp	r2, #0
 8009838:	f47f af42 	bne.w	80096c0 <Setup0_Process+0xe4>
 800983c:	7a9a      	ldrb	r2, [r3, #10]
 800983e:	2a00      	cmp	r2, #0
 8009840:	f43f af70 	beq.w	8009724 <Setup0_Process+0x148>
 8009844:	e73c      	b.n	80096c0 <Setup0_Process+0xe4>
 8009846:	2c01      	cmp	r4, #1
 8009848:	f43f af67 	beq.w	800971a <Setup0_Process+0x13e>
 800984c:	2c03      	cmp	r4, #3
 800984e:	f47f af2c 	bne.w	80096aa <Setup0_Process+0xce>
 8009852:	f7ff fe45 	bl	80094e0 <Standard_SetEndPointFeature>
 8009856:	e762      	b.n	800971e <Setup0_Process+0x142>
 8009858:	78da      	ldrb	r2, [r3, #3]
 800985a:	2a01      	cmp	r2, #1
 800985c:	f47f af25 	bne.w	80096aa <Setup0_Process+0xce>
 8009860:	889a      	ldrh	r2, [r3, #4]
 8009862:	2a00      	cmp	r2, #0
 8009864:	f47f af21 	bne.w	80096aa <Setup0_Process+0xce>
 8009868:	7a59      	ldrb	r1, [r3, #9]
 800986a:	4a10      	ldr	r2, [pc, #64]	; (80098ac <Setup0_Process+0x2d0>)
 800986c:	f041 0120 	orr.w	r1, r1, #32
 8009870:	6812      	ldr	r2, [r2, #0]
 8009872:	7259      	strb	r1, [r3, #9]
 8009874:	69d3      	ldr	r3, [r2, #28]
 8009876:	4798      	blx	r3
 8009878:	682b      	ldr	r3, [r5, #0]
 800987a:	e753      	b.n	8009724 <Setup0_Process+0x148>
 800987c:	f7ff fd7c 	bl	8009378 <Standard_SetConfiguration>
 8009880:	e74d      	b.n	800971e <Setup0_Process+0x142>
 8009882:	bf00      	nop
 8009884:	40005c50 	.word	0x40005c50
 8009888:	20005850 	.word	0x20005850
 800988c:	20003004 	.word	0x20003004
 8009890:	20005828 	.word	0x20005828
 8009894:	2000581c 	.word	0x2000581c
 8009898:	080091d9 	.word	0x080091d9
 800989c:	20003002 	.word	0x20003002
 80098a0:	2000581e 	.word	0x2000581e
 80098a4:	08009229 	.word	0x08009229
 80098a8:	20000ecc 	.word	0x20000ecc
 80098ac:	2000584c 	.word	0x2000584c
 80098b0:	6822      	ldr	r2, [r4, #0]
 80098b2:	69d2      	ldr	r2, [r2, #28]
 80098b4:	2a00      	cmp	r2, #0
 80098b6:	f47f af0c 	bne.w	80096d2 <Setup0_Process+0xf6>
 80098ba:	e6c2      	b.n	8009642 <Setup0_Process+0x66>
 80098bc:	682b      	ldr	r3, [r5, #0]
 80098be:	2209      	movs	r2, #9
 80098c0:	721a      	strb	r2, [r3, #8]
 80098c2:	e6d7      	b.n	8009674 <Setup0_Process+0x98>
 80098c4:	2a01      	cmp	r2, #1
 80098c6:	d030      	beq.n	800992a <Setup0_Process+0x34e>
 80098c8:	2a02      	cmp	r2, #2
 80098ca:	f47f aeb9 	bne.w	8009640 <Setup0_Process+0x64>
 80098ce:	795a      	ldrb	r2, [r3, #5]
 80098d0:	f002 040f 	and.w	r4, r2, #15
 80098d4:	00a1      	lsls	r1, r4, #2
 80098d6:	f101 4180 	add.w	r1, r1, #1073741824	; 0x40000000
 80098da:	0616      	lsls	r6, r2, #24
 80098dc:	f501 41b8 	add.w	r1, r1, #23552	; 0x5c00
 80098e0:	bf56      	itet	pl
 80098e2:	6809      	ldrpl	r1, [r1, #0]
 80098e4:	680e      	ldrmi	r6, [r1, #0]
 80098e6:	f401 5640 	andpl.w	r6, r1, #12288	; 0x3000
 80098ea:	4918      	ldr	r1, [pc, #96]	; (800994c <Setup0_Process+0x370>)
 80098ec:	bf48      	it	mi
 80098ee:	f006 0630 	andmi.w	r6, r6, #48	; 0x30
 80098f2:	7809      	ldrb	r1, [r1, #0]
 80098f4:	428c      	cmp	r4, r1
 80098f6:	f4bf aea3 	bcs.w	8009640 <Setup0_Process+0x64>
 80098fa:	f012 0f70 	tst.w	r2, #112	; 0x70
 80098fe:	f47f ae9f 	bne.w	8009640 <Setup0_Process+0x64>
 8009902:	2e00      	cmp	r6, #0
 8009904:	f47f af3f 	bne.w	8009786 <Setup0_Process+0x1aa>
 8009908:	e69a      	b.n	8009640 <Setup0_Process+0x64>
 800990a:	4a11      	ldr	r2, [pc, #68]	; (8009950 <Setup0_Process+0x374>)
 800990c:	6812      	ldr	r2, [r2, #0]
 800990e:	f892 102c 	ldrb.w	r1, [r2, #44]	; 0x2c
 8009912:	e76f      	b.n	80097f4 <Setup0_Process+0x218>
 8009914:	fb92 f0f1 	sdiv	r0, r2, r1
 8009918:	fb01 2210 	mls	r2, r1, r0, r2
 800991c:	2a00      	cmp	r2, #0
 800991e:	f47f af69 	bne.w	80097f4 <Setup0_Process+0x218>
 8009922:	4a0c      	ldr	r2, [pc, #48]	; (8009954 <Setup0_Process+0x378>)
 8009924:	2001      	movs	r0, #1
 8009926:	7010      	strb	r0, [r2, #0]
 8009928:	e764      	b.n	80097f4 <Setup0_Process+0x218>
 800992a:	4c09      	ldr	r4, [pc, #36]	; (8009950 <Setup0_Process+0x374>)
 800992c:	7958      	ldrb	r0, [r3, #5]
 800992e:	6823      	ldr	r3, [r4, #0]
 8009930:	699b      	ldr	r3, [r3, #24]
 8009932:	4798      	blx	r3
 8009934:	b920      	cbnz	r0, 8009940 <Setup0_Process+0x364>
 8009936:	682b      	ldr	r3, [r5, #0]
 8009938:	7a9a      	ldrb	r2, [r3, #10]
 800993a:	2a00      	cmp	r2, #0
 800993c:	f47f af23 	bne.w	8009786 <Setup0_Process+0x1aa>
 8009940:	682b      	ldr	r3, [r5, #0]
 8009942:	7858      	ldrb	r0, [r3, #1]
 8009944:	e67d      	b.n	8009642 <Setup0_Process+0x66>
 8009946:	4a04      	ldr	r2, [pc, #16]	; (8009958 <Setup0_Process+0x37c>)
 8009948:	e6c3      	b.n	80096d2 <Setup0_Process+0xf6>
 800994a:	bf00      	nop
 800994c:	2000011c 	.word	0x2000011c
 8009950:	20005828 	.word	0x20005828
 8009954:	20000ecc 	.word	0x20000ecc
 8009958:	08009201 	.word	0x08009201

0800995c <Out0_Process>:
 800995c:	b5f8      	push	{r3, r4, r5, r6, r7, lr}
 800995e:	4d31      	ldr	r5, [pc, #196]	; (8009a24 <Out0_Process+0xc8>)
 8009960:	682c      	ldr	r4, [r5, #0]
 8009962:	7a23      	ldrb	r3, [r4, #8]
 8009964:	2b02      	cmp	r3, #2
 8009966:	d007      	beq.n	8009978 <Out0_Process+0x1c>
 8009968:	2b04      	cmp	r3, #4
 800996a:	d005      	beq.n	8009978 <Out0_Process+0x1c>
 800996c:	2b03      	cmp	r3, #3
 800996e:	d009      	beq.n	8009984 <Out0_Process+0x28>
 8009970:	2b05      	cmp	r3, #5
 8009972:	d007      	beq.n	8009984 <Out0_Process+0x28>
 8009974:	2b07      	cmp	r3, #7
 8009976:	d00e      	beq.n	8009996 <Out0_Process+0x3a>
 8009978:	2308      	movs	r3, #8
 800997a:	7223      	strb	r3, [r4, #8]
 800997c:	e8bd 40f8 	ldmia.w	sp!, {r3, r4, r5, r6, r7, lr}
 8009980:	f7ff be0c 	b.w	800959c <Post0_Process>
 8009984:	69a1      	ldr	r1, [r4, #24]
 8009986:	8a23      	ldrh	r3, [r4, #16]
 8009988:	b311      	cbz	r1, 80099d0 <Out0_Process+0x74>
 800998a:	b95b      	cbnz	r3, 80099a4 <Out0_Process+0x48>
 800998c:	8aa3      	ldrh	r3, [r4, #20]
 800998e:	2b00      	cmp	r3, #0
 8009990:	d03f      	beq.n	8009a12 <Out0_Process+0xb6>
 8009992:	4a25      	ldr	r2, [pc, #148]	; (8009a28 <Out0_Process+0xcc>)
 8009994:	e02e      	b.n	80099f4 <Out0_Process+0x98>
 8009996:	4b25      	ldr	r3, [pc, #148]	; (8009a2c <Out0_Process+0xd0>)
 8009998:	681b      	ldr	r3, [r3, #0]
 800999a:	68db      	ldr	r3, [r3, #12]
 800999c:	4798      	blx	r3
 800999e:	682c      	ldr	r4, [r5, #0]
 80099a0:	2308      	movs	r3, #8
 80099a2:	e7ea      	b.n	800997a <Out0_Process+0x1e>
 80099a4:	8aa6      	ldrh	r6, [r4, #20]
 80099a6:	429e      	cmp	r6, r3
 80099a8:	bf28      	it	cs
 80099aa:	461e      	movcs	r6, r3
 80099ac:	4630      	mov	r0, r6
 80099ae:	4788      	blx	r1
 80099b0:	8a22      	ldrh	r2, [r4, #16]
 80099b2:	8a63      	ldrh	r3, [r4, #18]
 80099b4:	1b92      	subs	r2, r2, r6
 80099b6:	4433      	add	r3, r6
 80099b8:	8263      	strh	r3, [r4, #18]
 80099ba:	4607      	mov	r7, r0
 80099bc:	8222      	strh	r2, [r4, #16]
 80099be:	2000      	movs	r0, #0
 80099c0:	f7ff fbb6 	bl	8009130 <GetEPRxAddr>
 80099c4:	4632      	mov	r2, r6
 80099c6:	4601      	mov	r1, r0
 80099c8:	4638      	mov	r0, r7
 80099ca:	f000 f8df 	bl	8009b8c <PMAToUserBufferCopy>
 80099ce:	8a23      	ldrh	r3, [r4, #16]
 80099d0:	2b00      	cmp	r3, #0
 80099d2:	d0db      	beq.n	800998c <Out0_Process+0x30>
 80099d4:	4b16      	ldr	r3, [pc, #88]	; (8009a30 <Out0_Process+0xd4>)
 80099d6:	2000      	movs	r0, #0
 80099d8:	f44f 5240 	mov.w	r2, #12288	; 0x3000
 80099dc:	4601      	mov	r1, r0
 80099de:	801a      	strh	r2, [r3, #0]
 80099e0:	f7ff fbb4 	bl	800914c <SetEPTxCount>
 80099e4:	8a23      	ldrh	r3, [r4, #16]
 80099e6:	8aa1      	ldrh	r1, [r4, #20]
 80099e8:	4a0f      	ldr	r2, [pc, #60]	; (8009a28 <Out0_Process+0xcc>)
 80099ea:	2030      	movs	r0, #48	; 0x30
 80099ec:	4299      	cmp	r1, r3
 80099ee:	8010      	strh	r0, [r2, #0]
 80099f0:	d90f      	bls.n	8009a12 <Out0_Process+0xb6>
 80099f2:	b993      	cbnz	r3, 8009a1a <Out0_Process+0xbe>
 80099f4:	682c      	ldr	r4, [r5, #0]
 80099f6:	2106      	movs	r1, #6
 80099f8:	4b0e      	ldr	r3, [pc, #56]	; (8009a34 <Out0_Process+0xd8>)
 80099fa:	7221      	strb	r1, [r4, #8]
 80099fc:	6819      	ldr	r1, [r3, #0]
 80099fe:	4b0e      	ldr	r3, [pc, #56]	; (8009a38 <Out0_Process+0xdc>)
 8009a00:	b289      	uxth	r1, r1
 8009a02:	440b      	add	r3, r1
 8009a04:	005b      	lsls	r3, r3, #1
 8009a06:	2100      	movs	r1, #0
 8009a08:	6019      	str	r1, [r3, #0]
 8009a0a:	2130      	movs	r1, #48	; 0x30
 8009a0c:	7a23      	ldrb	r3, [r4, #8]
 8009a0e:	8011      	strh	r1, [r2, #0]
 8009a10:	e7b3      	b.n	800997a <Out0_Process+0x1e>
 8009a12:	682c      	ldr	r4, [r5, #0]
 8009a14:	2303      	movs	r3, #3
 8009a16:	7223      	strb	r3, [r4, #8]
 8009a18:	e7af      	b.n	800997a <Out0_Process+0x1e>
 8009a1a:	682c      	ldr	r4, [r5, #0]
 8009a1c:	2305      	movs	r3, #5
 8009a1e:	7223      	strb	r3, [r4, #8]
 8009a20:	e7ab      	b.n	800997a <Out0_Process+0x1e>
 8009a22:	bf00      	nop
 8009a24:	20005850 	.word	0x20005850
 8009a28:	2000581e 	.word	0x2000581e
 8009a2c:	20005828 	.word	0x20005828
 8009a30:	2000581c 	.word	0x2000581c
 8009a34:	40005c50 	.word	0x40005c50
 8009a38:	20003002 	.word	0x20003002

08009a3c <SetDeviceAddress>:
 8009a3c:	b470      	push	{r4, r5, r6}
 8009a3e:	4b0c      	ldr	r3, [pc, #48]	; (8009a70 <SetDeviceAddress+0x34>)
 8009a40:	781e      	ldrb	r6, [r3, #0]
 8009a42:	b17e      	cbz	r6, 8009a64 <SetDeviceAddress+0x28>
 8009a44:	4c0b      	ldr	r4, [pc, #44]	; (8009a74 <SetDeviceAddress+0x38>)
 8009a46:	2300      	movs	r3, #0
 8009a48:	6825      	ldr	r5, [r4, #0]
 8009a4a:	f443 4100 	orr.w	r1, r3, #32768	; 0x8000
 8009a4e:	f640 720f 	movw	r2, #3855	; 0xf0f
 8009a52:	402a      	ands	r2, r5
 8009a54:	f041 0180 	orr.w	r1, r1, #128	; 0x80
 8009a58:	3301      	adds	r3, #1
 8009a5a:	430a      	orrs	r2, r1
 8009a5c:	429e      	cmp	r6, r3
 8009a5e:	f844 2b04 	str.w	r2, [r4], #4
 8009a62:	d8f1      	bhi.n	8009a48 <SetDeviceAddress+0xc>
 8009a64:	4b04      	ldr	r3, [pc, #16]	; (8009a78 <SetDeviceAddress+0x3c>)
 8009a66:	f040 0080 	orr.w	r0, r0, #128	; 0x80
 8009a6a:	6018      	str	r0, [r3, #0]
 8009a6c:	bc70      	pop	{r4, r5, r6}
 8009a6e:	4770      	bx	lr
 8009a70:	2000011c 	.word	0x2000011c
 8009a74:	40005c00 	.word	0x40005c00
 8009a78:	40005c4c 	.word	0x40005c4c

08009a7c <In0_Process>:
 8009a7c:	b510      	push	{r4, lr}
 8009a7e:	4c18      	ldr	r4, [pc, #96]	; (8009ae0 <In0_Process+0x64>)
 8009a80:	6822      	ldr	r2, [r4, #0]
 8009a82:	7a13      	ldrb	r3, [r2, #8]
 8009a84:	2b02      	cmp	r3, #2
 8009a86:	d017      	beq.n	8009ab8 <In0_Process+0x3c>
 8009a88:	2b04      	cmp	r3, #4
 8009a8a:	d015      	beq.n	8009ab8 <In0_Process+0x3c>
 8009a8c:	2b06      	cmp	r3, #6
 8009a8e:	d005      	beq.n	8009a9c <In0_Process+0x20>
 8009a90:	2308      	movs	r3, #8
 8009a92:	7213      	strb	r3, [r2, #8]
 8009a94:	e8bd 4010 	ldmia.w	sp!, {r4, lr}
 8009a98:	f7ff bd80 	b.w	800959c <Post0_Process>
 8009a9c:	7853      	ldrb	r3, [r2, #1]
 8009a9e:	2b05      	cmp	r3, #5
 8009aa0:	d013      	beq.n	8009aca <In0_Process+0x4e>
 8009aa2:	4b10      	ldr	r3, [pc, #64]	; (8009ae4 <In0_Process+0x68>)
 8009aa4:	681b      	ldr	r3, [r3, #0]
 8009aa6:	689b      	ldr	r3, [r3, #8]
 8009aa8:	4798      	blx	r3
 8009aaa:	6822      	ldr	r2, [r4, #0]
 8009aac:	2308      	movs	r3, #8
 8009aae:	7213      	strb	r3, [r2, #8]
 8009ab0:	e8bd 4010 	ldmia.w	sp!, {r4, lr}
 8009ab4:	f7ff bd72 	b.w	800959c <Post0_Process>
 8009ab8:	f7ff fc02 	bl	80092c0 <DataStageIn>
 8009abc:	6822      	ldr	r2, [r4, #0]
 8009abe:	7a13      	ldrb	r3, [r2, #8]
 8009ac0:	7213      	strb	r3, [r2, #8]
 8009ac2:	e8bd 4010 	ldmia.w	sp!, {r4, lr}
 8009ac6:	f7ff bd69 	b.w	800959c <Post0_Process>
 8009aca:	7813      	ldrb	r3, [r2, #0]
 8009acc:	065b      	lsls	r3, r3, #25
 8009ace:	d1e8      	bne.n	8009aa2 <In0_Process+0x26>
 8009ad0:	78d0      	ldrb	r0, [r2, #3]
 8009ad2:	f7ff ffb3 	bl	8009a3c <SetDeviceAddress>
 8009ad6:	4b04      	ldr	r3, [pc, #16]	; (8009ae8 <In0_Process+0x6c>)
 8009ad8:	681b      	ldr	r3, [r3, #0]
 8009ada:	6a1b      	ldr	r3, [r3, #32]
 8009adc:	4798      	blx	r3
 8009ade:	e7e0      	b.n	8009aa2 <In0_Process+0x26>
 8009ae0:	20005850 	.word	0x20005850
 8009ae4:	20005828 	.word	0x20005828
 8009ae8:	2000584c 	.word	0x2000584c

08009aec <NOP_Process>:
 8009aec:	4770      	bx	lr
 8009aee:	bf00      	nop

08009af0 <USB_SIL_Init>:
 8009af0:	b410      	push	{r4}
 8009af2:	4906      	ldr	r1, [pc, #24]	; (8009b0c <USB_SIL_Init+0x1c>)
 8009af4:	4c06      	ldr	r4, [pc, #24]	; (8009b10 <USB_SIL_Init+0x20>)
 8009af6:	4a07      	ldr	r2, [pc, #28]	; (8009b14 <USB_SIL_Init+0x24>)
 8009af8:	2000      	movs	r0, #0
 8009afa:	f44f 4336 	mov.w	r3, #46592	; 0xb600
 8009afe:	6020      	str	r0, [r4, #0]
 8009b00:	800b      	strh	r3, [r1, #0]
 8009b02:	f85d 4b04 	ldr.w	r4, [sp], #4
 8009b06:	6013      	str	r3, [r2, #0]
 8009b08:	4770      	bx	lr
 8009b0a:	bf00      	nop
 8009b0c:	20005854 	.word	0x20005854
 8009b10:	40005c44 	.word	0x40005c44
 8009b14:	40005c40 	.word	0x40005c40

08009b18 <USB_Init>:
 8009b18:	b570      	push	{r4, r5, r6, lr}
 8009b1a:	4a07      	ldr	r2, [pc, #28]	; (8009b38 <USB_Init+0x20>)
 8009b1c:	4e07      	ldr	r6, [pc, #28]	; (8009b3c <USB_Init+0x24>)
 8009b1e:	4c08      	ldr	r4, [pc, #32]	; (8009b40 <USB_Init+0x28>)
 8009b20:	4b08      	ldr	r3, [pc, #32]	; (8009b44 <USB_Init+0x2c>)
 8009b22:	4909      	ldr	r1, [pc, #36]	; (8009b48 <USB_Init+0x30>)
 8009b24:	4809      	ldr	r0, [pc, #36]	; (8009b4c <USB_Init+0x34>)
 8009b26:	2502      	movs	r5, #2
 8009b28:	6023      	str	r3, [r4, #0]
 8009b2a:	6032      	str	r2, [r6, #0]
 8009b2c:	7215      	strb	r5, [r2, #8]
 8009b2e:	681b      	ldr	r3, [r3, #0]
 8009b30:	6008      	str	r0, [r1, #0]
 8009b32:	4798      	blx	r3
 8009b34:	bd70      	pop	{r4, r5, r6, pc}
 8009b36:	bf00      	nop
 8009b38:	20005830 	.word	0x20005830
 8009b3c:	20005850 	.word	0x20005850
 8009b40:	20005828 	.word	0x20005828
 8009b44:	20000098 	.word	0x20000098
 8009b48:	2000584c 	.word	0x2000584c
 8009b4c:	200000c8 	.word	0x200000c8

08009b50 <UserToPMABufferCopy>:
 8009b50:	f101 5100 	add.w	r1, r1, #536870912	; 0x20000000
 8009b54:	3201      	adds	r2, #1
 8009b56:	f501 5140 	add.w	r1, r1, #12288	; 0x3000
 8009b5a:	1053      	asrs	r3, r2, #1
 8009b5c:	b410      	push	{r4}
 8009b5e:	ea4f 0141 	mov.w	r1, r1, lsl #1
 8009b62:	d00f      	beq.n	8009b84 <UserToPMABufferCopy+0x34>
 8009b64:	1d0a      	adds	r2, r1, #4
 8009b66:	3002      	adds	r0, #2
 8009b68:	f810 4c01 	ldrb.w	r4, [r0, #-1]
 8009b6c:	f810 1c02 	ldrb.w	r1, [r0, #-2]
 8009b70:	3b01      	subs	r3, #1
 8009b72:	ea41 2104 	orr.w	r1, r1, r4, lsl #8
 8009b76:	f822 1c04 	strh.w	r1, [r2, #-4]
 8009b7a:	f100 0002 	add.w	r0, r0, #2
 8009b7e:	f102 0204 	add.w	r2, r2, #4
 8009b82:	d1f1      	bne.n	8009b68 <UserToPMABufferCopy+0x18>
 8009b84:	f85d 4b04 	ldr.w	r4, [sp], #4
 8009b88:	4770      	bx	lr
 8009b8a:	bf00      	nop

08009b8c <PMAToUserBufferCopy>:
 8009b8c:	f101 5100 	add.w	r1, r1, #536870912	; 0x20000000
 8009b90:	3201      	adds	r2, #1
 8009b92:	f501 5140 	add.w	r1, r1, #12288	; 0x3000
 8009b96:	1053      	asrs	r3, r2, #1
 8009b98:	ea4f 0141 	mov.w	r1, r1, lsl #1
 8009b9c:	d005      	beq.n	8009baa <PMAToUserBufferCopy+0x1e>
 8009b9e:	f851 2b04 	ldr.w	r2, [r1], #4
 8009ba2:	3b01      	subs	r3, #1
 8009ba4:	f820 2b02 	strh.w	r2, [r0], #2
 8009ba8:	d1f9      	bne.n	8009b9e <PMAToUserBufferCopy+0x12>
 8009baa:	4770      	bx	lr

08009bac <PowerOn>:
 8009bac:	b538      	push	{r3, r4, r5, lr}
 8009bae:	2001      	movs	r0, #1
 8009bb0:	f000 f95c 	bl	8009e6c <USB_Cable_Config>
 8009bb4:	4d06      	ldr	r5, [pc, #24]	; (8009bd0 <PowerOn+0x24>)
 8009bb6:	4b07      	ldr	r3, [pc, #28]	; (8009bd4 <PowerOn+0x28>)
 8009bb8:	4c07      	ldr	r4, [pc, #28]	; (8009bd8 <PowerOn+0x2c>)
 8009bba:	2200      	movs	r2, #0
 8009bbc:	f44f 51e0 	mov.w	r1, #7168	; 0x1c00
 8009bc0:	2001      	movs	r0, #1
 8009bc2:	6018      	str	r0, [r3, #0]
 8009bc4:	601a      	str	r2, [r3, #0]
 8009bc6:	4610      	mov	r0, r2
 8009bc8:	602a      	str	r2, [r5, #0]
 8009bca:	8021      	strh	r1, [r4, #0]
 8009bcc:	6019      	str	r1, [r3, #0]
 8009bce:	bd38      	pop	{r3, r4, r5, pc}
 8009bd0:	40005c44 	.word	0x40005c44
 8009bd4:	40005c40 	.word	0x40005c40
 8009bd8:	20005854 	.word	0x20005854

08009bdc <Resume>:
 8009bdc:	b538      	push	{r3, r4, r5, lr}
 8009bde:	4c32      	ldr	r4, [pc, #200]	; (8009ca8 <Resume+0xcc>)
 8009be0:	2807      	cmp	r0, #7
 8009be2:	bf18      	it	ne
 8009be4:	7020      	strbne	r0, [r4, #0]
 8009be6:	7823      	ldrb	r3, [r4, #0]
 8009be8:	2b05      	cmp	r3, #5
 8009bea:	d84b      	bhi.n	8009c84 <Resume+0xa8>
 8009bec:	e8df f003 	tbb	[pc, r3]
 8009bf0:	35301f18 	.word	0x35301f18
 8009bf4:	033f      	.short	0x033f
 8009bf6:	7863      	ldrb	r3, [r4, #1]
 8009bf8:	492b      	ldr	r1, [pc, #172]	; (8009ca8 <Resume+0xcc>)
 8009bfa:	3b01      	subs	r3, #1
 8009bfc:	b2db      	uxtb	r3, r3
 8009bfe:	7063      	strb	r3, [r4, #1]
 8009c00:	7863      	ldrb	r3, [r4, #1]
 8009c02:	f003 02ff 	and.w	r2, r3, #255	; 0xff
 8009c06:	2b00      	cmp	r3, #0
 8009c08:	d13e      	bne.n	8009c88 <Resume+0xac>
 8009c0a:	4828      	ldr	r0, [pc, #160]	; (8009cac <Resume+0xd0>)
 8009c0c:	f64f 73ef 	movw	r3, #65519	; 0xffef
 8009c10:	6805      	ldr	r5, [r0, #0]
 8009c12:	4c27      	ldr	r4, [pc, #156]	; (8009cb0 <Resume+0xd4>)
 8009c14:	402b      	ands	r3, r5
 8009c16:	2506      	movs	r5, #6
 8009c18:	6003      	str	r3, [r0, #0]
 8009c1a:	700d      	strb	r5, [r1, #0]
 8009c1c:	6022      	str	r2, [r4, #0]
 8009c1e:	bd38      	pop	{r3, r4, r5, pc}
 8009c20:	4b23      	ldr	r3, [pc, #140]	; (8009cb0 <Resume+0xd4>)
 8009c22:	681b      	ldr	r3, [r3, #0]
 8009c24:	2b00      	cmp	r3, #0
 8009c26:	d030      	beq.n	8009c8a <Resume+0xae>
 8009c28:	2305      	movs	r3, #5
 8009c2a:	7023      	strb	r3, [r4, #0]
 8009c2c:	bd38      	pop	{r3, r4, r5, pc}
 8009c2e:	4d1f      	ldr	r5, [pc, #124]	; (8009cac <Resume+0xd0>)
 8009c30:	f64f 73fb 	movw	r3, #65531	; 0xfffb
 8009c34:	682a      	ldr	r2, [r5, #0]
 8009c36:	4013      	ands	r3, r2
 8009c38:	602b      	str	r3, [r5, #0]
 8009c3a:	f000 f8e5 	bl	8009e08 <Leave_LowPowerMode>
 8009c3e:	4b1c      	ldr	r3, [pc, #112]	; (8009cb0 <Resume+0xd4>)
 8009c40:	f44f 4036 	mov.w	r0, #46592	; 0xb600
 8009c44:	2104      	movs	r1, #4
 8009c46:	2201      	movs	r2, #1
 8009c48:	6028      	str	r0, [r5, #0]
 8009c4a:	7021      	strb	r1, [r4, #0]
 8009c4c:	601a      	str	r2, [r3, #0]
 8009c4e:	bd38      	pop	{r3, r4, r5, pc}
 8009c50:	2202      	movs	r2, #2
 8009c52:	2303      	movs	r3, #3
 8009c54:	7062      	strb	r2, [r4, #1]
 8009c56:	7023      	strb	r3, [r4, #0]
 8009c58:	bd38      	pop	{r3, r4, r5, pc}
 8009c5a:	7863      	ldrb	r3, [r4, #1]
 8009c5c:	4a12      	ldr	r2, [pc, #72]	; (8009ca8 <Resume+0xcc>)
 8009c5e:	3b01      	subs	r3, #1
 8009c60:	b2db      	uxtb	r3, r3
 8009c62:	7063      	strb	r3, [r4, #1]
 8009c64:	7863      	ldrb	r3, [r4, #1]
 8009c66:	b97b      	cbnz	r3, 8009c88 <Resume+0xac>
 8009c68:	2304      	movs	r3, #4
 8009c6a:	7013      	strb	r3, [r2, #0]
 8009c6c:	bd38      	pop	{r3, r4, r5, pc}
 8009c6e:	4b0f      	ldr	r3, [pc, #60]	; (8009cac <Resume+0xd0>)
 8009c70:	2105      	movs	r1, #5
 8009c72:	6818      	ldr	r0, [r3, #0]
 8009c74:	220a      	movs	r2, #10
 8009c76:	b280      	uxth	r0, r0
 8009c78:	f040 0010 	orr.w	r0, r0, #16
 8009c7c:	6018      	str	r0, [r3, #0]
 8009c7e:	7021      	strb	r1, [r4, #0]
 8009c80:	7062      	strb	r2, [r4, #1]
 8009c82:	bd38      	pop	{r3, r4, r5, pc}
 8009c84:	2306      	movs	r3, #6
 8009c86:	7023      	strb	r3, [r4, #0]
 8009c88:	bd38      	pop	{r3, r4, r5, pc}
 8009c8a:	4d08      	ldr	r5, [pc, #32]	; (8009cac <Resume+0xd0>)
 8009c8c:	f64f 73fb 	movw	r3, #65531	; 0xfffb
 8009c90:	682a      	ldr	r2, [r5, #0]
 8009c92:	4013      	ands	r3, r2
 8009c94:	602b      	str	r3, [r5, #0]
 8009c96:	f000 f8b7 	bl	8009e08 <Leave_LowPowerMode>
 8009c9a:	f44f 4236 	mov.w	r2, #46592	; 0xb600
 8009c9e:	2306      	movs	r3, #6
 8009ca0:	602a      	str	r2, [r5, #0]
 8009ca2:	7023      	strb	r3, [r4, #0]
 8009ca4:	bd38      	pop	{r3, r4, r5, pc}
 8009ca6:	bf00      	nop
 8009ca8:	20005858 	.word	0x20005858
 8009cac:	40005c40 	.word	0x40005c40
 8009cb0:	20000ed4 	.word	0x20000ed4

08009cb4 <USB_Istr>:
 8009cb4:	4a22      	ldr	r2, [pc, #136]	; (8009d40 <USB_Istr+0x8c>)
 8009cb6:	b538      	push	{r3, r4, r5, lr}
 8009cb8:	6813      	ldr	r3, [r2, #0]
 8009cba:	4c22      	ldr	r4, [pc, #136]	; (8009d44 <USB_Istr+0x90>)
 8009cbc:	b29b      	uxth	r3, r3
 8009cbe:	4d22      	ldr	r5, [pc, #136]	; (8009d48 <USB_Istr+0x94>)
 8009cc0:	8023      	strh	r3, [r4, #0]
 8009cc2:	8821      	ldrh	r1, [r4, #0]
 8009cc4:	882b      	ldrh	r3, [r5, #0]
 8009cc6:	4019      	ands	r1, r3
 8009cc8:	0589      	lsls	r1, r1, #22
 8009cca:	d507      	bpl.n	8009cdc <USB_Istr+0x28>
 8009ccc:	491f      	ldr	r1, [pc, #124]	; (8009d4c <USB_Istr+0x98>)
 8009cce:	f64f 50ff 	movw	r0, #65023	; 0xfdff
 8009cd2:	6010      	str	r0, [r2, #0]
 8009cd4:	780a      	ldrb	r2, [r1, #0]
 8009cd6:	3201      	adds	r2, #1
 8009cd8:	b2d2      	uxtb	r2, r2
 8009cda:	700a      	strb	r2, [r1, #0]
 8009cdc:	8822      	ldrh	r2, [r4, #0]
 8009cde:	401a      	ands	r2, r3
 8009ce0:	0412      	lsls	r2, r2, #16
 8009ce2:	d429      	bmi.n	8009d38 <USB_Istr+0x84>
 8009ce4:	8822      	ldrh	r2, [r4, #0]
 8009ce6:	f402 6280 	and.w	r2, r2, #1024	; 0x400
 8009cea:	4213      	tst	r3, r2
 8009cec:	d11b      	bne.n	8009d26 <USB_Istr+0x72>
 8009cee:	8822      	ldrh	r2, [r4, #0]
 8009cf0:	f402 5200 	and.w	r2, r2, #8192	; 0x2000
 8009cf4:	4213      	tst	r3, r2
 8009cf6:	d10e      	bne.n	8009d16 <USB_Istr+0x62>
 8009cf8:	8822      	ldrh	r2, [r4, #0]
 8009cfa:	f402 5280 	and.w	r2, r2, #4096	; 0x1000
 8009cfe:	4213      	tst	r3, r2
 8009d00:	d100      	bne.n	8009d04 <USB_Istr+0x50>
 8009d02:	bd38      	pop	{r3, r4, r5, pc}
 8009d04:	4b0e      	ldr	r3, [pc, #56]	; (8009d40 <USB_Istr+0x8c>)
 8009d06:	f64e 72ff 	movw	r2, #61439	; 0xefff
 8009d0a:	601a      	str	r2, [r3, #0]
 8009d0c:	2000      	movs	r0, #0
 8009d0e:	e8bd 4038 	ldmia.w	sp!, {r3, r4, r5, lr}
 8009d12:	f7ff bf63 	b.w	8009bdc <Resume>
 8009d16:	4b0a      	ldr	r3, [pc, #40]	; (8009d40 <USB_Istr+0x8c>)
 8009d18:	f64d 72ff 	movw	r2, #57343	; 0xdfff
 8009d1c:	601a      	str	r2, [r3, #0]
 8009d1e:	f000 f929 	bl	8009f74 <ERR_Callback>
 8009d22:	882b      	ldrh	r3, [r5, #0]
 8009d24:	e7e8      	b.n	8009cf8 <USB_Istr+0x44>
 8009d26:	4a06      	ldr	r2, [pc, #24]	; (8009d40 <USB_Istr+0x8c>)
 8009d28:	4b09      	ldr	r3, [pc, #36]	; (8009d50 <USB_Istr+0x9c>)
 8009d2a:	f64f 31ff 	movw	r1, #64511	; 0xfbff
 8009d2e:	685b      	ldr	r3, [r3, #4]
 8009d30:	6011      	str	r1, [r2, #0]
 8009d32:	4798      	blx	r3
 8009d34:	882b      	ldrh	r3, [r5, #0]
 8009d36:	e7da      	b.n	8009cee <USB_Istr+0x3a>
 8009d38:	f7ff f864 	bl	8008e04 <CTR_LP>
 8009d3c:	882b      	ldrh	r3, [r5, #0]
 8009d3e:	e7d1      	b.n	8009ce4 <USB_Istr+0x30>
 8009d40:	40005c44 	.word	0x40005c44
 8009d44:	2000587c 	.word	0x2000587c
 8009d48:	20005854 	.word	0x20005854
 8009d4c:	20000ed8 	.word	0x20000ed8
 8009d50:	20000098 	.word	0x20000098

08009d54 <IntToUnicode>:
 8009d54:	b430      	push	{r4, r5}
 8009d56:	b192      	cbz	r2, 8009d7e <IntToUnicode+0x2a>
 8009d58:	1e55      	subs	r5, r2, #1
 8009d5a:	b2ed      	uxtb	r5, r5
 8009d5c:	3501      	adds	r5, #1
 8009d5e:	2300      	movs	r3, #0
 8009d60:	006d      	lsls	r5, r5, #1
 8009d62:	461c      	mov	r4, r3
 8009d64:	0f02      	lsrs	r2, r0, #28
 8009d66:	2a09      	cmp	r2, #9
 8009d68:	bf94      	ite	ls
 8009d6a:	3230      	addls	r2, #48	; 0x30
 8009d6c:	3237      	addhi	r2, #55	; 0x37
 8009d6e:	54ca      	strb	r2, [r1, r3]
 8009d70:	18ca      	adds	r2, r1, r3
 8009d72:	3302      	adds	r3, #2
 8009d74:	42ab      	cmp	r3, r5
 8009d76:	ea4f 1000 	mov.w	r0, r0, lsl #4
 8009d7a:	7054      	strb	r4, [r2, #1]
 8009d7c:	d1f2      	bne.n	8009d64 <IntToUnicode+0x10>
 8009d7e:	bc30      	pop	{r4, r5}
 8009d80:	4770      	bx	lr
 8009d82:	bf00      	nop

08009d84 <Set_System>:
 8009d84:	b530      	push	{r4, r5, lr}
 8009d86:	4c18      	ldr	r4, [pc, #96]	; (8009de8 <Set_System+0x64>)
 8009d88:	b083      	sub	sp, #12
 8009d8a:	2004      	movs	r0, #4
 8009d8c:	2101      	movs	r1, #1
 8009d8e:	f7fc f9bd 	bl	800610c <RCC_APB2PeriphClockCmd>
 8009d92:	f44f 5580 	mov.w	r5, #4096	; 0x1000
 8009d96:	2203      	movs	r2, #3
 8009d98:	2314      	movs	r3, #20
 8009d9a:	4620      	mov	r0, r4
 8009d9c:	a901      	add	r1, sp, #4
 8009d9e:	f88d 2006 	strb.w	r2, [sp, #6]
 8009da2:	f88d 3007 	strb.w	r3, [sp, #7]
 8009da6:	f8ad 5004 	strh.w	r5, [sp, #4]
 8009daa:	f7fb fd61 	bl	8005870 <GPIO_Init>
 8009dae:	4629      	mov	r1, r5
 8009db0:	4620      	mov	r0, r4
 8009db2:	f7fb fdc7 	bl	8005944 <GPIO_ResetBits>
 8009db6:	20c8      	movs	r0, #200	; 0xc8
 8009db8:	f7fd ff84 	bl	8007cc4 <Delay_ms>
 8009dbc:	4629      	mov	r1, r5
 8009dbe:	4620      	mov	r0, r4
 8009dc0:	f7fb fdbe 	bl	8005940 <GPIO_SetBits>
 8009dc4:	f44f 2080 	mov.w	r0, #262144	; 0x40000
 8009dc8:	f7fb fe5c 	bl	8005a84 <EXTI_ClearITPendingBit>
 8009dcc:	4b07      	ldr	r3, [pc, #28]	; (8009dec <Set_System+0x68>)
 8009dce:	2108      	movs	r1, #8
 8009dd0:	2201      	movs	r2, #1
 8009dd2:	f44f 2480 	mov.w	r4, #262144	; 0x40000
 8009dd6:	4618      	mov	r0, r3
 8009dd8:	601c      	str	r4, [r3, #0]
 8009dda:	7159      	strb	r1, [r3, #5]
 8009ddc:	719a      	strb	r2, [r3, #6]
 8009dde:	f7fb fe09 	bl	80059f4 <EXTI_Init>
 8009de2:	b003      	add	sp, #12
 8009de4:	bd30      	pop	{r4, r5, pc}
 8009de6:	bf00      	nop
 8009de8:	40010800 	.word	0x40010800
 8009dec:	2000588c 	.word	0x2000588c

08009df0 <Set_USBClock>:
 8009df0:	b508      	push	{r3, lr}
 8009df2:	2000      	movs	r0, #0
 8009df4:	f7fc f924 	bl	8006040 <RCC_USBCLKConfig>
 8009df8:	e8bd 4008 	ldmia.w	sp!, {r3, lr}
 8009dfc:	f44f 0000 	mov.w	r0, #8388608	; 0x800000
 8009e00:	2101      	movs	r1, #1
 8009e02:	f7fc b98f 	b.w	8006124 <RCC_APB1PeriphClockCmd>
 8009e06:	bf00      	nop

08009e08 <Leave_LowPowerMode>:
 8009e08:	4b06      	ldr	r3, [pc, #24]	; (8009e24 <Leave_LowPowerMode+0x1c>)
 8009e0a:	7a9b      	ldrb	r3, [r3, #10]
 8009e0c:	b923      	cbnz	r3, 8009e18 <Leave_LowPowerMode+0x10>
 8009e0e:	4b06      	ldr	r3, [pc, #24]	; (8009e28 <Leave_LowPowerMode+0x20>)
 8009e10:	2201      	movs	r2, #1
 8009e12:	601a      	str	r2, [r3, #0]
 8009e14:	f7fd bb68 	b.w	80074e8 <SystemInit>
 8009e18:	4b03      	ldr	r3, [pc, #12]	; (8009e28 <Leave_LowPowerMode+0x20>)
 8009e1a:	2205      	movs	r2, #5
 8009e1c:	601a      	str	r2, [r3, #0]
 8009e1e:	f7fd bb63 	b.w	80074e8 <SystemInit>
 8009e22:	bf00      	nop
 8009e24:	20005830 	.word	0x20005830
 8009e28:	20000ed0 	.word	0x20000ed0

08009e2c <USB_Interrupts_Config>:
 8009e2c:	b510      	push	{r4, lr}
 8009e2e:	f44f 60a0 	mov.w	r0, #1280	; 0x500
 8009e32:	b082      	sub	sp, #8
 8009e34:	f7fb fea4 	bl	8005b80 <NVIC_PriorityGroupConfig>
 8009e38:	2401      	movs	r4, #1
 8009e3a:	2114      	movs	r1, #20
 8009e3c:	2202      	movs	r2, #2
 8009e3e:	a801      	add	r0, sp, #4
 8009e40:	2300      	movs	r3, #0
 8009e42:	f88d 1004 	strb.w	r1, [sp, #4]
 8009e46:	f88d 2005 	strb.w	r2, [sp, #5]
 8009e4a:	f88d 3006 	strb.w	r3, [sp, #6]
 8009e4e:	f88d 4007 	strb.w	r4, [sp, #7]
 8009e52:	f7fb fe9f 	bl	8005b94 <NVIC_Init>
 8009e56:	232a      	movs	r3, #42	; 0x2a
 8009e58:	a801      	add	r0, sp, #4
 8009e5a:	f88d 4005 	strb.w	r4, [sp, #5]
 8009e5e:	f88d 3004 	strb.w	r3, [sp, #4]
 8009e62:	f7fb fe97 	bl	8005b94 <NVIC_Init>
 8009e66:	b002      	add	sp, #8
 8009e68:	bd10      	pop	{r4, pc}
 8009e6a:	bf00      	nop

08009e6c <USB_Cable_Config>:
 8009e6c:	4770      	bx	lr
 8009e6e:	bf00      	nop

08009e70 <Get_SerialNum>:
 8009e70:	4a0a      	ldr	r2, [pc, #40]	; (8009e9c <Get_SerialNum+0x2c>)
 8009e72:	4b0b      	ldr	r3, [pc, #44]	; (8009ea0 <Get_SerialNum+0x30>)
 8009e74:	6812      	ldr	r2, [r2, #0]
 8009e76:	681b      	ldr	r3, [r3, #0]
 8009e78:	490a      	ldr	r1, [pc, #40]	; (8009ea4 <Get_SerialNum+0x34>)
 8009e7a:	18d0      	adds	r0, r2, r3
 8009e7c:	b510      	push	{r4, lr}
 8009e7e:	680c      	ldr	r4, [r1, #0]
 8009e80:	d100      	bne.n	8009e84 <Get_SerialNum+0x14>
 8009e82:	bd10      	pop	{r4, pc}
 8009e84:	4908      	ldr	r1, [pc, #32]	; (8009ea8 <Get_SerialNum+0x38>)
 8009e86:	2208      	movs	r2, #8
 8009e88:	f7ff ff64 	bl	8009d54 <IntToUnicode>
 8009e8c:	4620      	mov	r0, r4
 8009e8e:	4907      	ldr	r1, [pc, #28]	; (8009eac <Get_SerialNum+0x3c>)
 8009e90:	2204      	movs	r2, #4
 8009e92:	e8bd 4010 	ldmia.w	sp!, {r4, lr}
 8009e96:	f7ff bf5d 	b.w	8009d54 <IntToUnicode>
 8009e9a:	bf00      	nop
 8009e9c:	1ffff7e8 	.word	0x1ffff7e8
 8009ea0:	1ffff7f0 	.word	0x1ffff7f0
 8009ea4:	1ffff7ec 	.word	0x1ffff7ec
 8009ea8:	20000122 	.word	0x20000122
 8009eac:	20000132 	.word	0x20000132

08009eb0 <CDC_Send_DATA>:
 8009eb0:	b570      	push	{r4, r5, r6, lr}
 8009eb2:	4d10      	ldr	r5, [pc, #64]	; (8009ef4 <CDC_Send_DATA+0x44>)
 8009eb4:	682b      	ldr	r3, [r5, #0]
 8009eb6:	b9bb      	cbnz	r3, 8009ee8 <CDC_Send_DATA+0x38>
 8009eb8:	2940      	cmp	r1, #64	; 0x40
 8009eba:	d911      	bls.n	8009ee0 <CDC_Send_DATA+0x30>
 8009ebc:	2440      	movs	r4, #64	; 0x40
 8009ebe:	4626      	mov	r6, r4
 8009ec0:	4632      	mov	r2, r6
 8009ec2:	21c0      	movs	r1, #192	; 0xc0
 8009ec4:	f7ff fe44 	bl	8009b50 <UserToPMABufferCopy>
 8009ec8:	4631      	mov	r1, r6
 8009eca:	2001      	movs	r0, #1
 8009ecc:	f7ff f93e 	bl	800914c <SetEPTxCount>
 8009ed0:	682b      	ldr	r3, [r5, #0]
 8009ed2:	2001      	movs	r0, #1
 8009ed4:	4423      	add	r3, r4
 8009ed6:	602b      	str	r3, [r5, #0]
 8009ed8:	f7ff f8a0 	bl	800901c <SetEPTxValid>
 8009edc:	4620      	mov	r0, r4
 8009ede:	bd70      	pop	{r4, r5, r6, pc}
 8009ee0:	460c      	mov	r4, r1
 8009ee2:	b921      	cbnz	r1, 8009eee <CDC_Send_DATA+0x3e>
 8009ee4:	4620      	mov	r0, r4
 8009ee6:	bd70      	pop	{r4, r5, r6, pc}
 8009ee8:	2400      	movs	r4, #0
 8009eea:	4620      	mov	r0, r4
 8009eec:	bd70      	pop	{r4, r5, r6, pc}
 8009eee:	460e      	mov	r6, r1
 8009ef0:	460c      	mov	r4, r1
 8009ef2:	e7e5      	b.n	8009ec0 <CDC_Send_DATA+0x10>
 8009ef4:	20005888 	.word	0x20005888

08009ef8 <CDC_Receive_DATA>:
 8009ef8:	b5f8      	push	{r3, r4, r5, r6, r7, lr}
 8009efa:	4f17      	ldr	r7, [pc, #92]	; (8009f58 <CDC_Receive_DATA+0x60>)
 8009efc:	460d      	mov	r5, r1
 8009efe:	683b      	ldr	r3, [r7, #0]
 8009f00:	f8df c05c 	ldr.w	ip, [pc, #92]	; 8009f60 <CDC_Receive_DATA+0x68>
 8009f04:	428b      	cmp	r3, r1
 8009f06:	bf38      	it	cc
 8009f08:	683d      	ldrcc	r5, [r7, #0]
 8009f0a:	b30d      	cbz	r5, 8009f50 <CDC_Receive_DATA+0x58>
 8009f0c:	2200      	movs	r2, #0
 8009f0e:	f89c 1000 	ldrb.w	r1, [ip]
 8009f12:	4e12      	ldr	r6, [pc, #72]	; (8009f5c <CDC_Receive_DATA+0x64>)
 8009f14:	4613      	mov	r3, r2
 8009f16:	18f4      	adds	r4, r6, r3
 8009f18:	3301      	adds	r3, #1
 8009f1a:	b2db      	uxtb	r3, r3
 8009f1c:	5c64      	ldrb	r4, [r4, r1]
 8009f1e:	429d      	cmp	r5, r3
 8009f20:	5484      	strb	r4, [r0, r2]
 8009f22:	461a      	mov	r2, r3
 8009f24:	d8f7      	bhi.n	8009f16 <CDC_Receive_DATA+0x1e>
 8009f26:	683b      	ldr	r3, [r7, #0]
 8009f28:	4429      	add	r1, r5
 8009f2a:	1b5b      	subs	r3, r3, r5
 8009f2c:	603b      	str	r3, [r7, #0]
 8009f2e:	683c      	ldr	r4, [r7, #0]
 8009f30:	f88c 1000 	strb.w	r1, [ip]
 8009f34:	4e0a      	ldr	r6, [pc, #40]	; (8009f60 <CDC_Receive_DATA+0x68>)
 8009f36:	b94c      	cbnz	r4, 8009f4c <CDC_Receive_DATA+0x54>
 8009f38:	2003      	movs	r0, #3
 8009f3a:	2140      	movs	r1, #64	; 0x40
 8009f3c:	f7ff f914 	bl	8009168 <SetEPRxCount>
 8009f40:	2003      	movs	r0, #3
 8009f42:	f44f 5140 	mov.w	r1, #12288	; 0x3000
 8009f46:	f7ff f84f 	bl	8008fe8 <SetEPRxStatus>
 8009f4a:	7034      	strb	r4, [r6, #0]
 8009f4c:	4628      	mov	r0, r5
 8009f4e:	bdf8      	pop	{r3, r4, r5, r6, r7, pc}
 8009f50:	f89c 1000 	ldrb.w	r1, [ip]
 8009f54:	e7e7      	b.n	8009f26 <CDC_Receive_DATA+0x2e>
 8009f56:	bf00      	nop
 8009f58:	200058d4 	.word	0x200058d4
 8009f5c:	20005894 	.word	0x20005894
 8009f60:	20000ed9 	.word	0x20000ed9

08009f64 <usbIsConnected>:
 8009f64:	4b02      	ldr	r3, [pc, #8]	; (8009f70 <usbIsConnected+0xc>)
 8009f66:	7818      	ldrb	r0, [r3, #0]
 8009f68:	1e43      	subs	r3, r0, #1
 8009f6a:	4258      	negs	r0, r3
 8009f6c:	4158      	adcs	r0, r3
 8009f6e:	4770      	bx	lr
 8009f70:	20000eda 	.word	0x20000eda

08009f74 <ERR_Callback>:
 8009f74:	4902      	ldr	r1, [pc, #8]	; (8009f80 <ERR_Callback+0xc>)
 8009f76:	4a03      	ldr	r2, [pc, #12]	; (8009f84 <ERR_Callback+0x10>)
 8009f78:	2300      	movs	r3, #0
 8009f7a:	600b      	str	r3, [r1, #0]
 8009f7c:	7013      	strb	r3, [r2, #0]
 8009f7e:	4770      	bx	lr
 8009f80:	20000ed0 	.word	0x20000ed0
 8009f84:	20000eda 	.word	0x20000eda

08009f88 <SetVCPConnectMode>:
 8009f88:	4b03      	ldr	r3, [pc, #12]	; (8009f98 <SetVCPConnectMode+0x10>)
 8009f8a:	2801      	cmp	r0, #1
 8009f8c:	7018      	strb	r0, [r3, #0]
 8009f8e:	d102      	bne.n	8009f96 <SetVCPConnectMode+0xe>
 8009f90:	4b02      	ldr	r3, [pc, #8]	; (8009f9c <SetVCPConnectMode+0x14>)
 8009f92:	2200      	movs	r2, #0
 8009f94:	601a      	str	r2, [r3, #0]
 8009f96:	4770      	bx	lr
 8009f98:	20000eda 	.word	0x20000eda
 8009f9c:	20005888 	.word	0x20005888

08009fa0 <GetVCPConnectMode>:
 8009fa0:	4b01      	ldr	r3, [pc, #4]	; (8009fa8 <GetVCPConnectMode+0x8>)
 8009fa2:	7818      	ldrb	r0, [r3, #0]
 8009fa4:	4770      	bx	lr
 8009fa6:	bf00      	nop
 8009fa8:	20000eda 	.word	0x20000eda

08009fac <Virtual_Com_Port_SetConfiguration>:
 8009fac:	4b03      	ldr	r3, [pc, #12]	; (8009fbc <Virtual_Com_Port_SetConfiguration+0x10>)
 8009fae:	7a9b      	ldrb	r3, [r3, #10]
 8009fb0:	b113      	cbz	r3, 8009fb8 <Virtual_Com_Port_SetConfiguration+0xc>
 8009fb2:	4b03      	ldr	r3, [pc, #12]	; (8009fc0 <Virtual_Com_Port_SetConfiguration+0x14>)
 8009fb4:	2205      	movs	r2, #5
 8009fb6:	601a      	str	r2, [r3, #0]
 8009fb8:	4770      	bx	lr
 8009fba:	bf00      	nop
 8009fbc:	20005830 	.word	0x20005830
 8009fc0:	20000ed0 	.word	0x20000ed0

08009fc4 <Virtual_Com_Port_SetDeviceAddress>:
 8009fc4:	4b01      	ldr	r3, [pc, #4]	; (8009fcc <Virtual_Com_Port_SetDeviceAddress+0x8>)
 8009fc6:	2204      	movs	r2, #4
 8009fc8:	601a      	str	r2, [r3, #0]
 8009fca:	4770      	bx	lr
 8009fcc:	20000ed0 	.word	0x20000ed0

08009fd0 <Virtual_Com_Port_Status_In>:
 8009fd0:	4b03      	ldr	r3, [pc, #12]	; (8009fe0 <Virtual_Com_Port_Status_In+0x10>)
 8009fd2:	781a      	ldrb	r2, [r3, #0]
 8009fd4:	2a20      	cmp	r2, #32
 8009fd6:	bf04      	itt	eq
 8009fd8:	2200      	moveq	r2, #0
 8009fda:	701a      	strbeq	r2, [r3, #0]
 8009fdc:	4770      	bx	lr
 8009fde:	bf00      	nop
 8009fe0:	20000ee0 	.word	0x20000ee0

08009fe4 <Virtual_Com_Port_Status_Out>:
 8009fe4:	4770      	bx	lr
 8009fe6:	bf00      	nop

08009fe8 <Virtual_Com_Port_Get_Interface_Setting>:
 8009fe8:	b109      	cbz	r1, 8009fee <Virtual_Com_Port_Get_Interface_Setting+0x6>
 8009fea:	2002      	movs	r0, #2
 8009fec:	4770      	bx	lr
 8009fee:	2802      	cmp	r0, #2
 8009ff0:	bf34      	ite	cc
 8009ff2:	2000      	movcc	r0, #0
 8009ff4:	2002      	movcs	r0, #2
 8009ff6:	4770      	bx	lr

08009ff8 <Virtual_Com_Port_GetLineCoding>:
 8009ff8:	b108      	cbz	r0, 8009ffe <Virtual_Com_Port_GetLineCoding+0x6>
 8009ffa:	4803      	ldr	r0, [pc, #12]	; (800a008 <Virtual_Com_Port_GetLineCoding+0x10>)
 8009ffc:	4770      	bx	lr
 8009ffe:	4b03      	ldr	r3, [pc, #12]	; (800a00c <Virtual_Com_Port_GetLineCoding+0x14>)
 800a000:	2208      	movs	r2, #8
 800a002:	681b      	ldr	r3, [r3, #0]
 800a004:	821a      	strh	r2, [r3, #16]
 800a006:	4770      	bx	lr
 800a008:	20000114 	.word	0x20000114
 800a00c:	20005850 	.word	0x20005850

0800a010 <Virtual_Com_Port_SetLineCoding>:
 800a010:	b108      	cbz	r0, 800a016 <Virtual_Com_Port_SetLineCoding+0x6>
 800a012:	4803      	ldr	r0, [pc, #12]	; (800a020 <Virtual_Com_Port_SetLineCoding+0x10>)
 800a014:	4770      	bx	lr
 800a016:	4b03      	ldr	r3, [pc, #12]	; (800a024 <Virtual_Com_Port_SetLineCoding+0x14>)
 800a018:	2208      	movs	r2, #8
 800a01a:	681b      	ldr	r3, [r3, #0]
 800a01c:	821a      	strh	r2, [r3, #16]
 800a01e:	4770      	bx	lr
 800a020:	20000114 	.word	0x20000114
 800a024:	20005850 	.word	0x20005850

0800a028 <Virtual_Com_Port_init>:
 800a028:	b510      	push	{r4, lr}
 800a02a:	f7ff ff21 	bl	8009e70 <Get_SerialNum>
 800a02e:	4b05      	ldr	r3, [pc, #20]	; (800a044 <Virtual_Com_Port_init+0x1c>)
 800a030:	2400      	movs	r4, #0
 800a032:	681b      	ldr	r3, [r3, #0]
 800a034:	729c      	strb	r4, [r3, #10]
 800a036:	f7ff fdb9 	bl	8009bac <PowerOn>
 800a03a:	f7ff fd59 	bl	8009af0 <USB_SIL_Init>
 800a03e:	4b02      	ldr	r3, [pc, #8]	; (800a048 <Virtual_Com_Port_init+0x20>)
 800a040:	601c      	str	r4, [r3, #0]
 800a042:	bd10      	pop	{r4, pc}
 800a044:	20005850 	.word	0x20005850
 800a048:	20000ed0 	.word	0x20000ed0

0800a04c <Virtual_Com_Port_Reset>:
 800a04c:	b510      	push	{r4, lr}
 800a04e:	f7fc f8eb 	bl	8006228 <millis>
 800a052:	4b34      	ldr	r3, [pc, #208]	; (800a124 <Virtual_Com_Port_Reset+0xd8>)
 800a054:	4a34      	ldr	r2, [pc, #208]	; (800a128 <Virtual_Com_Port_Reset+0xdc>)
 800a056:	681b      	ldr	r3, [r3, #0]
 800a058:	79d2      	ldrb	r2, [r2, #7]
 800a05a:	4934      	ldr	r1, [pc, #208]	; (800a12c <Virtual_Com_Port_Reset+0xe0>)
 800a05c:	2400      	movs	r4, #0
 800a05e:	725a      	strb	r2, [r3, #9]
 800a060:	729c      	strb	r4, [r3, #10]
 800a062:	72dc      	strb	r4, [r3, #11]
 800a064:	6008      	str	r0, [r1, #0]
 800a066:	4620      	mov	r0, r4
 800a068:	f7fe ff8e 	bl	8008f88 <SetBTABLE>
 800a06c:	4620      	mov	r0, r4
 800a06e:	f44f 7100 	mov.w	r1, #512	; 0x200
 800a072:	f7fe ff91 	bl	8008f98 <SetEPType>
 800a076:	4620      	mov	r0, r4
 800a078:	2110      	movs	r1, #16
 800a07a:	f7fe ff9b 	bl	8008fb4 <SetEPTxStatus>
 800a07e:	4620      	mov	r0, r4
 800a080:	2140      	movs	r1, #64	; 0x40
 800a082:	f7ff f837 	bl	80090f4 <SetEPRxAddr>
 800a086:	2180      	movs	r1, #128	; 0x80
 800a088:	4620      	mov	r0, r4
 800a08a:	f7ff f823 	bl	80090d4 <SetEPTxAddr>
 800a08e:	4620      	mov	r0, r4
 800a090:	f7fe ffec 	bl	800906c <Clear_Status_Out>
 800a094:	4b26      	ldr	r3, [pc, #152]	; (800a130 <Virtual_Com_Port_Reset+0xe4>)
 800a096:	4620      	mov	r0, r4
 800a098:	f893 102c 	ldrb.w	r1, [r3, #44]	; 0x2c
 800a09c:	f7ff f864 	bl	8009168 <SetEPRxCount>
 800a0a0:	4620      	mov	r0, r4
 800a0a2:	f7fe ffcf 	bl	8009044 <SetEPRxValid>
 800a0a6:	4621      	mov	r1, r4
 800a0a8:	2001      	movs	r0, #1
 800a0aa:	f7fe ff75 	bl	8008f98 <SetEPType>
 800a0ae:	2001      	movs	r0, #1
 800a0b0:	21c0      	movs	r1, #192	; 0xc0
 800a0b2:	f7ff f80f 	bl	80090d4 <SetEPTxAddr>
 800a0b6:	2001      	movs	r0, #1
 800a0b8:	2120      	movs	r1, #32
 800a0ba:	f7fe ff7b 	bl	8008fb4 <SetEPTxStatus>
 800a0be:	4621      	mov	r1, r4
 800a0c0:	2001      	movs	r0, #1
 800a0c2:	f7fe ff91 	bl	8008fe8 <SetEPRxStatus>
 800a0c6:	2002      	movs	r0, #2
 800a0c8:	f44f 61c0 	mov.w	r1, #1536	; 0x600
 800a0cc:	f7fe ff64 	bl	8008f98 <SetEPType>
 800a0d0:	2002      	movs	r0, #2
 800a0d2:	f44f 7180 	mov.w	r1, #256	; 0x100
 800a0d6:	f7fe fffd 	bl	80090d4 <SetEPTxAddr>
 800a0da:	4621      	mov	r1, r4
 800a0dc:	2002      	movs	r0, #2
 800a0de:	f7fe ff83 	bl	8008fe8 <SetEPRxStatus>
 800a0e2:	2002      	movs	r0, #2
 800a0e4:	2120      	movs	r1, #32
 800a0e6:	f7fe ff65 	bl	8008fb4 <SetEPTxStatus>
 800a0ea:	4621      	mov	r1, r4
 800a0ec:	2003      	movs	r0, #3
 800a0ee:	f7fe ff53 	bl	8008f98 <SetEPType>
 800a0f2:	2003      	movs	r0, #3
 800a0f4:	f44f 7188 	mov.w	r1, #272	; 0x110
 800a0f8:	f7fe fffc 	bl	80090f4 <SetEPRxAddr>
 800a0fc:	2003      	movs	r0, #3
 800a0fe:	2140      	movs	r1, #64	; 0x40
 800a100:	f7ff f832 	bl	8009168 <SetEPRxCount>
 800a104:	2003      	movs	r0, #3
 800a106:	f44f 5140 	mov.w	r1, #12288	; 0x3000
 800a10a:	f7fe ff6d 	bl	8008fe8 <SetEPRxStatus>
 800a10e:	4621      	mov	r1, r4
 800a110:	2003      	movs	r0, #3
 800a112:	f7fe ff4f 	bl	8008fb4 <SetEPTxStatus>
 800a116:	4620      	mov	r0, r4
 800a118:	f7ff fc90 	bl	8009a3c <SetDeviceAddress>
 800a11c:	4b05      	ldr	r3, [pc, #20]	; (800a134 <Virtual_Com_Port_Reset+0xe8>)
 800a11e:	2201      	movs	r2, #1
 800a120:	601a      	str	r2, [r3, #0]
 800a122:	bd10      	pop	{r4, pc}
 800a124:	20005850 	.word	0x20005850
 800a128:	0800f670 	.word	0x0800f670
 800a12c:	20000edc 	.word	0x20000edc
 800a130:	20000098 	.word	0x20000098
 800a134:	20000ed0 	.word	0x20000ed0

0800a138 <Virtual_Com_Port_Data_Setup>:
 800a138:	b510      	push	{r4, lr}
 800a13a:	4604      	mov	r4, r0
 800a13c:	2001      	movs	r0, #1
 800a13e:	f7ff ff23 	bl	8009f88 <SetVCPConnectMode>
 800a142:	2c21      	cmp	r4, #33	; 0x21
 800a144:	d003      	beq.n	800a14e <Virtual_Com_Port_Data_Setup+0x16>
 800a146:	2c20      	cmp	r4, #32
 800a148:	d010      	beq.n	800a16c <Virtual_Com_Port_Data_Setup+0x34>
 800a14a:	2002      	movs	r0, #2
 800a14c:	bd10      	pop	{r4, pc}
 800a14e:	4b0f      	ldr	r3, [pc, #60]	; (800a18c <Virtual_Com_Port_Data_Setup+0x54>)
 800a150:	681a      	ldr	r2, [r3, #0]
 800a152:	7813      	ldrb	r3, [r2, #0]
 800a154:	f003 037f 	and.w	r3, r3, #127	; 0x7f
 800a158:	2b21      	cmp	r3, #33	; 0x21
 800a15a:	d1f6      	bne.n	800a14a <Virtual_Com_Port_Data_Setup+0x12>
 800a15c:	4b0c      	ldr	r3, [pc, #48]	; (800a190 <Virtual_Com_Port_Data_Setup+0x58>)
 800a15e:	2400      	movs	r4, #0
 800a160:	4620      	mov	r0, r4
 800a162:	6193      	str	r3, [r2, #24]
 800a164:	8254      	strh	r4, [r2, #18]
 800a166:	4798      	blx	r3
 800a168:	4620      	mov	r0, r4
 800a16a:	bd10      	pop	{r4, pc}
 800a16c:	4b07      	ldr	r3, [pc, #28]	; (800a18c <Virtual_Com_Port_Data_Setup+0x54>)
 800a16e:	681a      	ldr	r2, [r3, #0]
 800a170:	7813      	ldrb	r3, [r2, #0]
 800a172:	f003 037f 	and.w	r3, r3, #127	; 0x7f
 800a176:	2b21      	cmp	r3, #33	; 0x21
 800a178:	d003      	beq.n	800a182 <Virtual_Com_Port_Data_Setup+0x4a>
 800a17a:	4b06      	ldr	r3, [pc, #24]	; (800a194 <Virtual_Com_Port_Data_Setup+0x5c>)
 800a17c:	2002      	movs	r0, #2
 800a17e:	701c      	strb	r4, [r3, #0]
 800a180:	bd10      	pop	{r4, pc}
 800a182:	4b04      	ldr	r3, [pc, #16]	; (800a194 <Virtual_Com_Port_Data_Setup+0x5c>)
 800a184:	701c      	strb	r4, [r3, #0]
 800a186:	4b04      	ldr	r3, [pc, #16]	; (800a198 <Virtual_Com_Port_Data_Setup+0x60>)
 800a188:	e7e9      	b.n	800a15e <Virtual_Com_Port_Data_Setup+0x26>
 800a18a:	bf00      	nop
 800a18c:	20005850 	.word	0x20005850
 800a190:	08009ff9 	.word	0x08009ff9
 800a194:	20000ee0 	.word	0x20000ee0
 800a198:	0800a011 	.word	0x0800a011

0800a19c <Virtual_Com_Port_NoData_Setup>:
 800a19c:	b510      	push	{r4, lr}
 800a19e:	4604      	mov	r4, r0
 800a1a0:	2002      	movs	r0, #2
 800a1a2:	f7ff fef1 	bl	8009f88 <SetVCPConnectMode>
 800a1a6:	4b08      	ldr	r3, [pc, #32]	; (800a1c8 <Virtual_Com_Port_NoData_Setup+0x2c>)
 800a1a8:	681b      	ldr	r3, [r3, #0]
 800a1aa:	781b      	ldrb	r3, [r3, #0]
 800a1ac:	f003 037f 	and.w	r3, r3, #127	; 0x7f
 800a1b0:	2b21      	cmp	r3, #33	; 0x21
 800a1b2:	d001      	beq.n	800a1b8 <Virtual_Com_Port_NoData_Setup+0x1c>
 800a1b4:	2002      	movs	r0, #2
 800a1b6:	bd10      	pop	{r4, pc}
 800a1b8:	f004 04df 	and.w	r4, r4, #223	; 0xdf
 800a1bc:	2c02      	cmp	r4, #2
 800a1be:	bf0c      	ite	eq
 800a1c0:	2000      	moveq	r0, #0
 800a1c2:	2002      	movne	r0, #2
 800a1c4:	bd10      	pop	{r4, pc}
 800a1c6:	bf00      	nop
 800a1c8:	20005850 	.word	0x20005850

0800a1cc <Virtual_Com_Port_GetDeviceDescriptor>:
 800a1cc:	4901      	ldr	r1, [pc, #4]	; (800a1d4 <Virtual_Com_Port_GetDeviceDescriptor+0x8>)
 800a1ce:	f7ff b9d7 	b.w	8009580 <Standard_GetDescriptorData>
 800a1d2:	bf00      	nop
 800a1d4:	200000ec 	.word	0x200000ec

0800a1d8 <Virtual_Com_Port_GetStringDescriptor>:
 800a1d8:	4b05      	ldr	r3, [pc, #20]	; (800a1f0 <Virtual_Com_Port_GetStringDescriptor+0x18>)
 800a1da:	681b      	ldr	r3, [r3, #0]
 800a1dc:	78db      	ldrb	r3, [r3, #3]
 800a1de:	2b04      	cmp	r3, #4
 800a1e0:	d804      	bhi.n	800a1ec <Virtual_Com_Port_GetStringDescriptor+0x14>
 800a1e2:	4904      	ldr	r1, [pc, #16]	; (800a1f4 <Virtual_Com_Port_GetStringDescriptor+0x1c>)
 800a1e4:	eb01 01c3 	add.w	r1, r1, r3, lsl #3
 800a1e8:	f7ff b9ca 	b.w	8009580 <Standard_GetDescriptorData>
 800a1ec:	2000      	movs	r0, #0
 800a1ee:	4770      	bx	lr
 800a1f0:	20005850 	.word	0x20005850
 800a1f4:	200000f4 	.word	0x200000f4

0800a1f8 <Virtual_Com_Port_GetConfigDescriptor>:
 800a1f8:	b510      	push	{r4, lr}
 800a1fa:	4604      	mov	r4, r0
 800a1fc:	f7fc f814 	bl	8006228 <millis>
 800a200:	4b06      	ldr	r3, [pc, #24]	; (800a21c <Virtual_Com_Port_GetConfigDescriptor+0x24>)
 800a202:	681b      	ldr	r3, [r3, #0]
 800a204:	1ac0      	subs	r0, r0, r3
 800a206:	f5b0 7f7a 	cmp.w	r0, #1000	; 0x3e8
 800a20a:	d901      	bls.n	800a210 <Virtual_Com_Port_GetConfigDescriptor+0x18>
 800a20c:	f7fd fde4 	bl	8007dd8 <bootloader>
 800a210:	4620      	mov	r0, r4
 800a212:	4903      	ldr	r1, [pc, #12]	; (800a220 <Virtual_Com_Port_GetConfigDescriptor+0x28>)
 800a214:	e8bd 4010 	ldmia.w	sp!, {r4, lr}
 800a218:	f7ff b9b2 	b.w	8009580 <Standard_GetDescriptorData>
 800a21c:	20000edc 	.word	0x20000edc
 800a220:	20000090 	.word	0x20000090

0800a224 <EP3_OUT_Callback>:
 800a224:	b508      	push	{r3, lr}
 800a226:	2003      	movs	r0, #3
 800a228:	f7fe ffc0 	bl	80091ac <GetEPRxCount>
 800a22c:	4b05      	ldr	r3, [pc, #20]	; (800a244 <EP3_OUT_Callback+0x20>)
 800a22e:	4602      	mov	r2, r0
 800a230:	601a      	str	r2, [r3, #0]
 800a232:	681a      	ldr	r2, [r3, #0]
 800a234:	4804      	ldr	r0, [pc, #16]	; (800a248 <EP3_OUT_Callback+0x24>)
 800a236:	f44f 7188 	mov.w	r1, #272	; 0x110
 800a23a:	b292      	uxth	r2, r2
 800a23c:	e8bd 4008 	ldmia.w	sp!, {r3, lr}
 800a240:	f7ff bca4 	b.w	8009b8c <PMAToUserBufferCopy>
 800a244:	200058d4 	.word	0x200058d4
 800a248:	20005894 	.word	0x20005894

0800a24c <cosf>:
 800a24c:	b500      	push	{lr}
 800a24e:	4a19      	ldr	r2, [pc, #100]	; (800a2b4 <cosf+0x68>)
 800a250:	f020 4300 	bic.w	r3, r0, #2147483648	; 0x80000000
 800a254:	4293      	cmp	r3, r2
 800a256:	b083      	sub	sp, #12
 800a258:	4601      	mov	r1, r0
 800a25a:	dd17      	ble.n	800a28c <cosf+0x40>
 800a25c:	f1b3 4fff 	cmp.w	r3, #2139095040	; 0x7f800000
 800a260:	db04      	blt.n	800a26c <cosf+0x20>
 800a262:	f7fa fc8f 	bl	8004b84 <__aeabi_fsub>
 800a266:	b003      	add	sp, #12
 800a268:	f85d fb04 	ldr.w	pc, [sp], #4
 800a26c:	4669      	mov	r1, sp
 800a26e:	f000 f941 	bl	800a4f4 <__ieee754_rem_pio2f>
 800a272:	f000 0203 	and.w	r2, r0, #3
 800a276:	2a01      	cmp	r2, #1
 800a278:	9800      	ldr	r0, [sp, #0]
 800a27a:	9901      	ldr	r1, [sp, #4]
 800a27c:	d011      	beq.n	800a2a2 <cosf+0x56>
 800a27e:	2a02      	cmp	r2, #2
 800a280:	d00a      	beq.n	800a298 <cosf+0x4c>
 800a282:	b19a      	cbz	r2, 800a2ac <cosf+0x60>
 800a284:	2201      	movs	r2, #1
 800a286:	f000 fef9 	bl	800b07c <__kernel_sinf>
 800a28a:	e7ec      	b.n	800a266 <cosf+0x1a>
 800a28c:	2100      	movs	r1, #0
 800a28e:	f000 faf9 	bl	800a884 <__kernel_cosf>
 800a292:	b003      	add	sp, #12
 800a294:	f85d fb04 	ldr.w	pc, [sp], #4
 800a298:	f000 faf4 	bl	800a884 <__kernel_cosf>
 800a29c:	f100 4000 	add.w	r0, r0, #2147483648	; 0x80000000
 800a2a0:	e7e1      	b.n	800a266 <cosf+0x1a>
 800a2a2:	f000 feeb 	bl	800b07c <__kernel_sinf>
 800a2a6:	f100 4000 	add.w	r0, r0, #2147483648	; 0x80000000
 800a2aa:	e7dc      	b.n	800a266 <cosf+0x1a>
 800a2ac:	f000 faea 	bl	800a884 <__kernel_cosf>
 800a2b0:	e7d9      	b.n	800a266 <cosf+0x1a>
 800a2b2:	bf00      	nop
 800a2b4:	3f490fd8 	.word	0x3f490fd8

0800a2b8 <sinf>:
 800a2b8:	b500      	push	{lr}
 800a2ba:	4a1d      	ldr	r2, [pc, #116]	; (800a330 <sinf+0x78>)
 800a2bc:	f020 4300 	bic.w	r3, r0, #2147483648	; 0x80000000
 800a2c0:	4293      	cmp	r3, r2
 800a2c2:	b083      	sub	sp, #12
 800a2c4:	4601      	mov	r1, r0
 800a2c6:	dd18      	ble.n	800a2fa <sinf+0x42>
 800a2c8:	f1b3 4fff 	cmp.w	r3, #2139095040	; 0x7f800000
 800a2cc:	db04      	blt.n	800a2d8 <sinf+0x20>
 800a2ce:	f7fa fc59 	bl	8004b84 <__aeabi_fsub>
 800a2d2:	b003      	add	sp, #12
 800a2d4:	f85d fb04 	ldr.w	pc, [sp], #4
 800a2d8:	4669      	mov	r1, sp
 800a2da:	f000 f90b 	bl	800a4f4 <__ieee754_rem_pio2f>
 800a2de:	f000 0003 	and.w	r0, r0, #3
 800a2e2:	2801      	cmp	r0, #1
 800a2e4:	d018      	beq.n	800a318 <sinf+0x60>
 800a2e6:	2802      	cmp	r0, #2
 800a2e8:	d00e      	beq.n	800a308 <sinf+0x50>
 800a2ea:	b1d0      	cbz	r0, 800a322 <sinf+0x6a>
 800a2ec:	9800      	ldr	r0, [sp, #0]
 800a2ee:	9901      	ldr	r1, [sp, #4]
 800a2f0:	f000 fac8 	bl	800a884 <__kernel_cosf>
 800a2f4:	f100 4000 	add.w	r0, r0, #2147483648	; 0x80000000
 800a2f8:	e7eb      	b.n	800a2d2 <sinf+0x1a>
 800a2fa:	2100      	movs	r1, #0
 800a2fc:	2200      	movs	r2, #0
 800a2fe:	f000 febd 	bl	800b07c <__kernel_sinf>
 800a302:	b003      	add	sp, #12
 800a304:	f85d fb04 	ldr.w	pc, [sp], #4
 800a308:	9800      	ldr	r0, [sp, #0]
 800a30a:	9901      	ldr	r1, [sp, #4]
 800a30c:	2201      	movs	r2, #1
 800a30e:	f000 feb5 	bl	800b07c <__kernel_sinf>
 800a312:	f100 4000 	add.w	r0, r0, #2147483648	; 0x80000000
 800a316:	e7dc      	b.n	800a2d2 <sinf+0x1a>
 800a318:	9800      	ldr	r0, [sp, #0]
 800a31a:	9901      	ldr	r1, [sp, #4]
 800a31c:	f000 fab2 	bl	800a884 <__kernel_cosf>
 800a320:	e7d7      	b.n	800a2d2 <sinf+0x1a>
 800a322:	9800      	ldr	r0, [sp, #0]
 800a324:	9901      	ldr	r1, [sp, #4]
 800a326:	2201      	movs	r2, #1
 800a328:	f000 fea8 	bl	800b07c <__kernel_sinf>
 800a32c:	e7d1      	b.n	800a2d2 <sinf+0x1a>
 800a32e:	bf00      	nop
 800a330:	3f490fd8 	.word	0x3f490fd8

0800a334 <atan2f>:
 800a334:	f000 b84e 	b.w	800a3d4 <__ieee754_atan2f>

0800a338 <sqrtf>:
 800a338:	b570      	push	{r4, r5, r6, lr}
 800a33a:	b08a      	sub	sp, #40	; 0x28
 800a33c:	4605      	mov	r5, r0
 800a33e:	f000 fa4d 	bl	800a7dc <__ieee754_sqrtf>
 800a342:	4c22      	ldr	r4, [pc, #136]	; (800a3cc <sqrtf+0x94>)
 800a344:	4606      	mov	r6, r0
 800a346:	f994 3000 	ldrsb.w	r3, [r4]
 800a34a:	3301      	adds	r3, #1
 800a34c:	d008      	beq.n	800a360 <sqrtf+0x28>
 800a34e:	4628      	mov	r0, r5
 800a350:	f001 f86c 	bl	800b42c <__fpclassifyf>
 800a354:	b120      	cbz	r0, 800a360 <sqrtf+0x28>
 800a356:	4628      	mov	r0, r5
 800a358:	2100      	movs	r1, #0
 800a35a:	f7fa febb 	bl	80050d4 <__aeabi_fcmplt>
 800a35e:	b910      	cbnz	r0, 800a366 <sqrtf+0x2e>
 800a360:	4630      	mov	r0, r6
 800a362:	b00a      	add	sp, #40	; 0x28
 800a364:	bd70      	pop	{r4, r5, r6, pc}
 800a366:	491a      	ldr	r1, [pc, #104]	; (800a3d0 <sqrtf+0x98>)
 800a368:	2201      	movs	r2, #1
 800a36a:	2300      	movs	r3, #0
 800a36c:	4628      	mov	r0, r5
 800a36e:	9101      	str	r1, [sp, #4]
 800a370:	9200      	str	r2, [sp, #0]
 800a372:	9308      	str	r3, [sp, #32]
 800a374:	f7fa f89c 	bl	80044b0 <__aeabi_f2d>
 800a378:	7824      	ldrb	r4, [r4, #0]
 800a37a:	e9cd 0104 	strd	r0, r1, [sp, #16]
 800a37e:	e9cd 0102 	strd	r0, r1, [sp, #8]
 800a382:	b97c      	cbnz	r4, 800a3a4 <sqrtf+0x6c>
 800a384:	2200      	movs	r2, #0
 800a386:	2300      	movs	r3, #0
 800a388:	e9cd 2306 	strd	r2, r3, [sp, #24]
 800a38c:	4668      	mov	r0, sp
 800a38e:	f000 feeb 	bl	800b168 <matherr>
 800a392:	b188      	cbz	r0, 800a3b8 <sqrtf+0x80>
 800a394:	9b08      	ldr	r3, [sp, #32]
 800a396:	b9a3      	cbnz	r3, 800a3c2 <sqrtf+0x8a>
 800a398:	e9dd 0106 	ldrd	r0, r1, [sp, #24]
 800a39c:	f7fa fb9e 	bl	8004adc <__aeabi_d2f>
 800a3a0:	b00a      	add	sp, #40	; 0x28
 800a3a2:	bd70      	pop	{r4, r5, r6, pc}
 800a3a4:	2000      	movs	r0, #0
 800a3a6:	2100      	movs	r1, #0
 800a3a8:	4602      	mov	r2, r0
 800a3aa:	460b      	mov	r3, r1
 800a3ac:	f7fa f9fe 	bl	80047ac <__aeabi_ddiv>
 800a3b0:	2c02      	cmp	r4, #2
 800a3b2:	e9cd 0106 	strd	r0, r1, [sp, #24]
 800a3b6:	d1e9      	bne.n	800a38c <sqrtf+0x54>
 800a3b8:	f001 f8b2 	bl	800b520 <__errno>
 800a3bc:	2321      	movs	r3, #33	; 0x21
 800a3be:	6003      	str	r3, [r0, #0]
 800a3c0:	e7e8      	b.n	800a394 <sqrtf+0x5c>
 800a3c2:	f001 f8ad 	bl	800b520 <__errno>
 800a3c6:	9b08      	ldr	r3, [sp, #32]
 800a3c8:	6003      	str	r3, [r0, #0]
 800a3ca:	e7e5      	b.n	800a398 <sqrtf+0x60>
 800a3cc:	2000013c 	.word	0x2000013c
 800a3d0:	0800f6b4 	.word	0x0800f6b4

0800a3d4 <__ieee754_atan2f>:
 800a3d4:	f021 4200 	bic.w	r2, r1, #2147483648	; 0x80000000
 800a3d8:	f1b2 4fff 	cmp.w	r2, #2139095040	; 0x7f800000
 800a3dc:	b5f8      	push	{r3, r4, r5, r6, r7, lr}
 800a3de:	4604      	mov	r4, r0
 800a3e0:	dc14      	bgt.n	800a40c <__ieee754_atan2f+0x38>
 800a3e2:	f020 4500 	bic.w	r5, r0, #2147483648	; 0x80000000
 800a3e6:	f1b5 4fff 	cmp.w	r5, #2139095040	; 0x7f800000
 800a3ea:	4606      	mov	r6, r0
 800a3ec:	dc0e      	bgt.n	800a40c <__ieee754_atan2f+0x38>
 800a3ee:	f1b1 5f7e 	cmp.w	r1, #1065353216	; 0x3f800000
 800a3f2:	d03a      	beq.n	800a46a <__ieee754_atan2f+0x96>
 800a3f4:	178f      	asrs	r7, r1, #30
 800a3f6:	f007 0702 	and.w	r7, r7, #2
 800a3fa:	ea47 77d0 	orr.w	r7, r7, r0, lsr #31
 800a3fe:	b955      	cbnz	r5, 800a416 <__ieee754_atan2f+0x42>
 800a400:	2f02      	cmp	r7, #2
 800a402:	d02f      	beq.n	800a464 <__ieee754_atan2f+0x90>
 800a404:	2f03      	cmp	r7, #3
 800a406:	d12f      	bne.n	800a468 <__ieee754_atan2f+0x94>
 800a408:	4831      	ldr	r0, [pc, #196]	; (800a4d0 <__ieee754_atan2f+0xfc>)
 800a40a:	bdf8      	pop	{r3, r4, r5, r6, r7, pc}
 800a40c:	4608      	mov	r0, r1
 800a40e:	4621      	mov	r1, r4
 800a410:	f7fa fbba 	bl	8004b88 <__addsf3>
 800a414:	bdf8      	pop	{r3, r4, r5, r6, r7, pc}
 800a416:	b1fa      	cbz	r2, 800a458 <__ieee754_atan2f+0x84>
 800a418:	f1b2 4fff 	cmp.w	r2, #2139095040	; 0x7f800000
 800a41c:	d029      	beq.n	800a472 <__ieee754_atan2f+0x9e>
 800a41e:	f1b5 4fff 	cmp.w	r5, #2139095040	; 0x7f800000
 800a422:	d019      	beq.n	800a458 <__ieee754_atan2f+0x84>
 800a424:	1aaa      	subs	r2, r5, r2
 800a426:	15d2      	asrs	r2, r2, #23
 800a428:	2a3c      	cmp	r2, #60	; 0x3c
 800a42a:	dc19      	bgt.n	800a460 <__ieee754_atan2f+0x8c>
 800a42c:	2900      	cmp	r1, #0
 800a42e:	db38      	blt.n	800a4a2 <__ieee754_atan2f+0xce>
 800a430:	4620      	mov	r0, r4
 800a432:	f7fa fd65 	bl	8004f00 <__aeabi_fdiv>
 800a436:	f000 ffaf 	bl	800b398 <fabsf>
 800a43a:	f000 fe97 	bl	800b16c <atanf>
 800a43e:	2f01      	cmp	r7, #1
 800a440:	d02c      	beq.n	800a49c <__ieee754_atan2f+0xc8>
 800a442:	2f02      	cmp	r7, #2
 800a444:	d022      	beq.n	800a48c <__ieee754_atan2f+0xb8>
 800a446:	2f00      	cmp	r7, #0
 800a448:	d02f      	beq.n	800a4aa <__ieee754_atan2f+0xd6>
 800a44a:	4922      	ldr	r1, [pc, #136]	; (800a4d4 <__ieee754_atan2f+0x100>)
 800a44c:	f7fa fb9c 	bl	8004b88 <__addsf3>
 800a450:	4921      	ldr	r1, [pc, #132]	; (800a4d8 <__ieee754_atan2f+0x104>)
 800a452:	f7fa fb97 	bl	8004b84 <__aeabi_fsub>
 800a456:	bdf8      	pop	{r3, r4, r5, r6, r7, pc}
 800a458:	2e00      	cmp	r6, #0
 800a45a:	db15      	blt.n	800a488 <__ieee754_atan2f+0xb4>
 800a45c:	481f      	ldr	r0, [pc, #124]	; (800a4dc <__ieee754_atan2f+0x108>)
 800a45e:	bdf8      	pop	{r3, r4, r5, r6, r7, pc}
 800a460:	481e      	ldr	r0, [pc, #120]	; (800a4dc <__ieee754_atan2f+0x108>)
 800a462:	e7ec      	b.n	800a43e <__ieee754_atan2f+0x6a>
 800a464:	481c      	ldr	r0, [pc, #112]	; (800a4d8 <__ieee754_atan2f+0x104>)
 800a466:	bdf8      	pop	{r3, r4, r5, r6, r7, pc}
 800a468:	bdf8      	pop	{r3, r4, r5, r6, r7, pc}
 800a46a:	e8bd 40f8 	ldmia.w	sp!, {r3, r4, r5, r6, r7, lr}
 800a46e:	f000 be7d 	b.w	800b16c <atanf>
 800a472:	f1b5 4fff 	cmp.w	r5, #2139095040	; 0x7f800000
 800a476:	d019      	beq.n	800a4ac <__ieee754_atan2f+0xd8>
 800a478:	2f02      	cmp	r7, #2
 800a47a:	d0f3      	beq.n	800a464 <__ieee754_atan2f+0x90>
 800a47c:	2f03      	cmp	r7, #3
 800a47e:	d0c3      	beq.n	800a408 <__ieee754_atan2f+0x34>
 800a480:	2f01      	cmp	r7, #1
 800a482:	d01b      	beq.n	800a4bc <__ieee754_atan2f+0xe8>
 800a484:	2000      	movs	r0, #0
 800a486:	bdf8      	pop	{r3, r4, r5, r6, r7, pc}
 800a488:	4815      	ldr	r0, [pc, #84]	; (800a4e0 <__ieee754_atan2f+0x10c>)
 800a48a:	bdf8      	pop	{r3, r4, r5, r6, r7, pc}
 800a48c:	4911      	ldr	r1, [pc, #68]	; (800a4d4 <__ieee754_atan2f+0x100>)
 800a48e:	f7fa fb7b 	bl	8004b88 <__addsf3>
 800a492:	4601      	mov	r1, r0
 800a494:	4810      	ldr	r0, [pc, #64]	; (800a4d8 <__ieee754_atan2f+0x104>)
 800a496:	f7fa fb75 	bl	8004b84 <__aeabi_fsub>
 800a49a:	bdf8      	pop	{r3, r4, r5, r6, r7, pc}
 800a49c:	f100 4000 	add.w	r0, r0, #2147483648	; 0x80000000
 800a4a0:	bdf8      	pop	{r3, r4, r5, r6, r7, pc}
 800a4a2:	323c      	adds	r2, #60	; 0x3c
 800a4a4:	dac4      	bge.n	800a430 <__ieee754_atan2f+0x5c>
 800a4a6:	2000      	movs	r0, #0
 800a4a8:	e7c9      	b.n	800a43e <__ieee754_atan2f+0x6a>
 800a4aa:	bdf8      	pop	{r3, r4, r5, r6, r7, pc}
 800a4ac:	2f02      	cmp	r7, #2
 800a4ae:	d00c      	beq.n	800a4ca <__ieee754_atan2f+0xf6>
 800a4b0:	2f03      	cmp	r7, #3
 800a4b2:	d008      	beq.n	800a4c6 <__ieee754_atan2f+0xf2>
 800a4b4:	2f01      	cmp	r7, #1
 800a4b6:	d004      	beq.n	800a4c2 <__ieee754_atan2f+0xee>
 800a4b8:	480a      	ldr	r0, [pc, #40]	; (800a4e4 <__ieee754_atan2f+0x110>)
 800a4ba:	bdf8      	pop	{r3, r4, r5, r6, r7, pc}
 800a4bc:	f04f 4000 	mov.w	r0, #2147483648	; 0x80000000
 800a4c0:	bdf8      	pop	{r3, r4, r5, r6, r7, pc}
 800a4c2:	4809      	ldr	r0, [pc, #36]	; (800a4e8 <__ieee754_atan2f+0x114>)
 800a4c4:	bdf8      	pop	{r3, r4, r5, r6, r7, pc}
 800a4c6:	4809      	ldr	r0, [pc, #36]	; (800a4ec <__ieee754_atan2f+0x118>)
 800a4c8:	bdf8      	pop	{r3, r4, r5, r6, r7, pc}
 800a4ca:	4809      	ldr	r0, [pc, #36]	; (800a4f0 <__ieee754_atan2f+0x11c>)
 800a4cc:	bdf8      	pop	{r3, r4, r5, r6, r7, pc}
 800a4ce:	bf00      	nop
 800a4d0:	c0490fdb 	.word	0xc0490fdb
 800a4d4:	33bbbd2e 	.word	0x33bbbd2e
 800a4d8:	40490fdb 	.word	0x40490fdb
 800a4dc:	3fc90fdb 	.word	0x3fc90fdb
 800a4e0:	bfc90fdb 	.word	0xbfc90fdb
 800a4e4:	3f490fdb 	.word	0x3f490fdb
 800a4e8:	bf490fdb 	.word	0xbf490fdb
 800a4ec:	c016cbe4 	.word	0xc016cbe4
 800a4f0:	4016cbe4 	.word	0x4016cbe4

0800a4f4 <__ieee754_rem_pio2f>:
 800a4f4:	e92d 4ff0 	stmdb	sp!, {r4, r5, r6, r7, r8, r9, sl, fp, lr}
 800a4f8:	4aab      	ldr	r2, [pc, #684]	; (800a7a8 <__ieee754_rem_pio2f+0x2b4>)
 800a4fa:	f020 4400 	bic.w	r4, r0, #2147483648	; 0x80000000
 800a4fe:	4294      	cmp	r4, r2
 800a500:	b089      	sub	sp, #36	; 0x24
 800a502:	4606      	mov	r6, r0
 800a504:	460d      	mov	r5, r1
 800a506:	dd64      	ble.n	800a5d2 <__ieee754_rem_pio2f+0xde>
 800a508:	4aa8      	ldr	r2, [pc, #672]	; (800a7ac <__ieee754_rem_pio2f+0x2b8>)
 800a50a:	4294      	cmp	r4, r2
 800a50c:	dc1c      	bgt.n	800a548 <__ieee754_rem_pio2f+0x54>
 800a50e:	2800      	cmp	r0, #0
 800a510:	49a7      	ldr	r1, [pc, #668]	; (800a7b0 <__ieee754_rem_pio2f+0x2bc>)
 800a512:	f340 80ec 	ble.w	800a6ee <__ieee754_rem_pio2f+0x1fa>
 800a516:	f7fa fb35 	bl	8004b84 <__aeabi_fsub>
 800a51a:	4ba6      	ldr	r3, [pc, #664]	; (800a7b4 <__ieee754_rem_pio2f+0x2c0>)
 800a51c:	f024 040f 	bic.w	r4, r4, #15
 800a520:	429c      	cmp	r4, r3
 800a522:	4606      	mov	r6, r0
 800a524:	d064      	beq.n	800a5f0 <__ieee754_rem_pio2f+0xfc>
 800a526:	49a4      	ldr	r1, [pc, #656]	; (800a7b8 <__ieee754_rem_pio2f+0x2c4>)
 800a528:	f7fa fb2c 	bl	8004b84 <__aeabi_fsub>
 800a52c:	4601      	mov	r1, r0
 800a52e:	6028      	str	r0, [r5, #0]
 800a530:	4630      	mov	r0, r6
 800a532:	f7fa fb27 	bl	8004b84 <__aeabi_fsub>
 800a536:	49a0      	ldr	r1, [pc, #640]	; (800a7b8 <__ieee754_rem_pio2f+0x2c4>)
 800a538:	f7fa fb24 	bl	8004b84 <__aeabi_fsub>
 800a53c:	2301      	movs	r3, #1
 800a53e:	6068      	str	r0, [r5, #4]
 800a540:	4618      	mov	r0, r3
 800a542:	b009      	add	sp, #36	; 0x24
 800a544:	e8bd 8ff0 	ldmia.w	sp!, {r4, r5, r6, r7, r8, r9, sl, fp, pc}
 800a548:	4a9c      	ldr	r2, [pc, #624]	; (800a7bc <__ieee754_rem_pio2f+0x2c8>)
 800a54a:	4294      	cmp	r4, r2
 800a54c:	dd62      	ble.n	800a614 <__ieee754_rem_pio2f+0x120>
 800a54e:	f1b4 4fff 	cmp.w	r4, #2139095040	; 0x7f800000
 800a552:	da46      	bge.n	800a5e2 <__ieee754_rem_pio2f+0xee>
 800a554:	15e7      	asrs	r7, r4, #23
 800a556:	3f86      	subs	r7, #134	; 0x86
 800a558:	eba4 54c7 	sub.w	r4, r4, r7, lsl #23
 800a55c:	4620      	mov	r0, r4
 800a55e:	f7fa fde1 	bl	8005124 <__aeabi_f2iz>
 800a562:	f7fa fbc5 	bl	8004cf0 <__aeabi_i2f>
 800a566:	4603      	mov	r3, r0
 800a568:	4601      	mov	r1, r0
 800a56a:	4620      	mov	r0, r4
 800a56c:	9305      	str	r3, [sp, #20]
 800a56e:	f7fa fb09 	bl	8004b84 <__aeabi_fsub>
 800a572:	f04f 4187 	mov.w	r1, #1132462080	; 0x43800000
 800a576:	f7fa fc0f 	bl	8004d98 <__aeabi_fmul>
 800a57a:	4680      	mov	r8, r0
 800a57c:	f7fa fdd2 	bl	8005124 <__aeabi_f2iz>
 800a580:	f7fa fbb6 	bl	8004cf0 <__aeabi_i2f>
 800a584:	4601      	mov	r1, r0
 800a586:	4604      	mov	r4, r0
 800a588:	4640      	mov	r0, r8
 800a58a:	9406      	str	r4, [sp, #24]
 800a58c:	f7fa fafa 	bl	8004b84 <__aeabi_fsub>
 800a590:	f04f 4187 	mov.w	r1, #1132462080	; 0x43800000
 800a594:	f7fa fc00 	bl	8004d98 <__aeabi_fmul>
 800a598:	2100      	movs	r1, #0
 800a59a:	9007      	str	r0, [sp, #28]
 800a59c:	f7fa fd90 	bl	80050c0 <__aeabi_fcmpeq>
 800a5a0:	2800      	cmp	r0, #0
 800a5a2:	f000 80c5 	beq.w	800a730 <__ieee754_rem_pio2f+0x23c>
 800a5a6:	4620      	mov	r0, r4
 800a5a8:	2100      	movs	r1, #0
 800a5aa:	f7fa fd89 	bl	80050c0 <__aeabi_fcmpeq>
 800a5ae:	2800      	cmp	r0, #0
 800a5b0:	bf14      	ite	ne
 800a5b2:	2301      	movne	r3, #1
 800a5b4:	2302      	moveq	r3, #2
 800a5b6:	4882      	ldr	r0, [pc, #520]	; (800a7c0 <__ieee754_rem_pio2f+0x2cc>)
 800a5b8:	2102      	movs	r1, #2
 800a5ba:	9001      	str	r0, [sp, #4]
 800a5bc:	9100      	str	r1, [sp, #0]
 800a5be:	463a      	mov	r2, r7
 800a5c0:	a805      	add	r0, sp, #20
 800a5c2:	4629      	mov	r1, r5
 800a5c4:	f000 fa22 	bl	800aa0c <__kernel_rem_pio2f>
 800a5c8:	2e00      	cmp	r6, #0
 800a5ca:	f2c0 80a7 	blt.w	800a71c <__ieee754_rem_pio2f+0x228>
 800a5ce:	4603      	mov	r3, r0
 800a5d0:	e003      	b.n	800a5da <__ieee754_rem_pio2f+0xe6>
 800a5d2:	2200      	movs	r2, #0
 800a5d4:	6028      	str	r0, [r5, #0]
 800a5d6:	2300      	movs	r3, #0
 800a5d8:	604a      	str	r2, [r1, #4]
 800a5da:	4618      	mov	r0, r3
 800a5dc:	b009      	add	sp, #36	; 0x24
 800a5de:	e8bd 8ff0 	ldmia.w	sp!, {r4, r5, r6, r7, r8, r9, sl, fp, pc}
 800a5e2:	4601      	mov	r1, r0
 800a5e4:	f7fa face 	bl	8004b84 <__aeabi_fsub>
 800a5e8:	2300      	movs	r3, #0
 800a5ea:	6068      	str	r0, [r5, #4]
 800a5ec:	6028      	str	r0, [r5, #0]
 800a5ee:	e7f4      	b.n	800a5da <__ieee754_rem_pio2f+0xe6>
 800a5f0:	4974      	ldr	r1, [pc, #464]	; (800a7c4 <__ieee754_rem_pio2f+0x2d0>)
 800a5f2:	f7fa fac7 	bl	8004b84 <__aeabi_fsub>
 800a5f6:	4974      	ldr	r1, [pc, #464]	; (800a7c8 <__ieee754_rem_pio2f+0x2d4>)
 800a5f8:	4604      	mov	r4, r0
 800a5fa:	f7fa fac3 	bl	8004b84 <__aeabi_fsub>
 800a5fe:	4601      	mov	r1, r0
 800a600:	6028      	str	r0, [r5, #0]
 800a602:	4620      	mov	r0, r4
 800a604:	f7fa fabe 	bl	8004b84 <__aeabi_fsub>
 800a608:	496f      	ldr	r1, [pc, #444]	; (800a7c8 <__ieee754_rem_pio2f+0x2d4>)
 800a60a:	f7fa fabb 	bl	8004b84 <__aeabi_fsub>
 800a60e:	2301      	movs	r3, #1
 800a610:	6068      	str	r0, [r5, #4]
 800a612:	e7e2      	b.n	800a5da <__ieee754_rem_pio2f+0xe6>
 800a614:	f000 fec0 	bl	800b398 <fabsf>
 800a618:	496c      	ldr	r1, [pc, #432]	; (800a7cc <__ieee754_rem_pio2f+0x2d8>)
 800a61a:	4607      	mov	r7, r0
 800a61c:	f7fa fbbc 	bl	8004d98 <__aeabi_fmul>
 800a620:	f04f 517c 	mov.w	r1, #1056964608	; 0x3f000000
 800a624:	f7fa fab0 	bl	8004b88 <__addsf3>
 800a628:	f7fa fd7c 	bl	8005124 <__aeabi_f2iz>
 800a62c:	4682      	mov	sl, r0
 800a62e:	f7fa fb5f 	bl	8004cf0 <__aeabi_i2f>
 800a632:	495f      	ldr	r1, [pc, #380]	; (800a7b0 <__ieee754_rem_pio2f+0x2bc>)
 800a634:	4683      	mov	fp, r0
 800a636:	f7fa fbaf 	bl	8004d98 <__aeabi_fmul>
 800a63a:	4601      	mov	r1, r0
 800a63c:	4638      	mov	r0, r7
 800a63e:	f7fa faa1 	bl	8004b84 <__aeabi_fsub>
 800a642:	495d      	ldr	r1, [pc, #372]	; (800a7b8 <__ieee754_rem_pio2f+0x2c4>)
 800a644:	4680      	mov	r8, r0
 800a646:	4658      	mov	r0, fp
 800a648:	f7fa fba6 	bl	8004d98 <__aeabi_fmul>
 800a64c:	f1ba 0f1f 	cmp.w	sl, #31
 800a650:	4681      	mov	r9, r0
 800a652:	4649      	mov	r1, r9
 800a654:	4640      	mov	r0, r8
 800a656:	dc18      	bgt.n	800a68a <__ieee754_rem_pio2f+0x196>
 800a658:	4b5d      	ldr	r3, [pc, #372]	; (800a7d0 <__ieee754_rem_pio2f+0x2dc>)
 800a65a:	f10a 32ff 	add.w	r2, sl, #4294967295
 800a65e:	f853 3022 	ldr.w	r3, [r3, r2, lsl #2]
 800a662:	f024 02ff 	bic.w	r2, r4, #255	; 0xff
 800a666:	429a      	cmp	r2, r3
 800a668:	d00f      	beq.n	800a68a <__ieee754_rem_pio2f+0x196>
 800a66a:	f7fa fa8b 	bl	8004b84 <__aeabi_fsub>
 800a66e:	4607      	mov	r7, r0
 800a670:	602f      	str	r7, [r5, #0]
 800a672:	4639      	mov	r1, r7
 800a674:	4640      	mov	r0, r8
 800a676:	f7fa fa85 	bl	8004b84 <__aeabi_fsub>
 800a67a:	4649      	mov	r1, r9
 800a67c:	f7fa fa82 	bl	8004b84 <__aeabi_fsub>
 800a680:	2e00      	cmp	r6, #0
 800a682:	6068      	str	r0, [r5, #4]
 800a684:	db56      	blt.n	800a734 <__ieee754_rem_pio2f+0x240>
 800a686:	4653      	mov	r3, sl
 800a688:	e7a7      	b.n	800a5da <__ieee754_rem_pio2f+0xe6>
 800a68a:	f7fa fa7b 	bl	8004b84 <__aeabi_fsub>
 800a68e:	15e3      	asrs	r3, r4, #23
 800a690:	f3c0 52c7 	ubfx	r2, r0, #23, #8
 800a694:	1a9a      	subs	r2, r3, r2
 800a696:	2a08      	cmp	r2, #8
 800a698:	4607      	mov	r7, r0
 800a69a:	dde9      	ble.n	800a670 <__ieee754_rem_pio2f+0x17c>
 800a69c:	4949      	ldr	r1, [pc, #292]	; (800a7c4 <__ieee754_rem_pio2f+0x2d0>)
 800a69e:	4658      	mov	r0, fp
 800a6a0:	9303      	str	r3, [sp, #12]
 800a6a2:	f7fa fb79 	bl	8004d98 <__aeabi_fmul>
 800a6a6:	4607      	mov	r7, r0
 800a6a8:	4639      	mov	r1, r7
 800a6aa:	4640      	mov	r0, r8
 800a6ac:	f7fa fa6a 	bl	8004b84 <__aeabi_fsub>
 800a6b0:	4604      	mov	r4, r0
 800a6b2:	4621      	mov	r1, r4
 800a6b4:	4640      	mov	r0, r8
 800a6b6:	f7fa fa65 	bl	8004b84 <__aeabi_fsub>
 800a6ba:	4639      	mov	r1, r7
 800a6bc:	f7fa fa62 	bl	8004b84 <__aeabi_fsub>
 800a6c0:	4941      	ldr	r1, [pc, #260]	; (800a7c8 <__ieee754_rem_pio2f+0x2d4>)
 800a6c2:	4607      	mov	r7, r0
 800a6c4:	4658      	mov	r0, fp
 800a6c6:	f7fa fb67 	bl	8004d98 <__aeabi_fmul>
 800a6ca:	4639      	mov	r1, r7
 800a6cc:	f7fa fa5a 	bl	8004b84 <__aeabi_fsub>
 800a6d0:	4681      	mov	r9, r0
 800a6d2:	4649      	mov	r1, r9
 800a6d4:	4620      	mov	r0, r4
 800a6d6:	f7fa fa55 	bl	8004b84 <__aeabi_fsub>
 800a6da:	9b03      	ldr	r3, [sp, #12]
 800a6dc:	f3c0 52c7 	ubfx	r2, r0, #23, #8
 800a6e0:	1a9b      	subs	r3, r3, r2
 800a6e2:	2b19      	cmp	r3, #25
 800a6e4:	4607      	mov	r7, r0
 800a6e6:	dc41      	bgt.n	800a76c <__ieee754_rem_pio2f+0x278>
 800a6e8:	6028      	str	r0, [r5, #0]
 800a6ea:	46a0      	mov	r8, r4
 800a6ec:	e7c1      	b.n	800a672 <__ieee754_rem_pio2f+0x17e>
 800a6ee:	f7fa fa4b 	bl	8004b88 <__addsf3>
 800a6f2:	4b30      	ldr	r3, [pc, #192]	; (800a7b4 <__ieee754_rem_pio2f+0x2c0>)
 800a6f4:	f024 040f 	bic.w	r4, r4, #15
 800a6f8:	429c      	cmp	r4, r3
 800a6fa:	4606      	mov	r6, r0
 800a6fc:	d023      	beq.n	800a746 <__ieee754_rem_pio2f+0x252>
 800a6fe:	492e      	ldr	r1, [pc, #184]	; (800a7b8 <__ieee754_rem_pio2f+0x2c4>)
 800a700:	f7fa fa42 	bl	8004b88 <__addsf3>
 800a704:	4601      	mov	r1, r0
 800a706:	6028      	str	r0, [r5, #0]
 800a708:	4630      	mov	r0, r6
 800a70a:	f7fa fa3b 	bl	8004b84 <__aeabi_fsub>
 800a70e:	492a      	ldr	r1, [pc, #168]	; (800a7b8 <__ieee754_rem_pio2f+0x2c4>)
 800a710:	f7fa fa3a 	bl	8004b88 <__addsf3>
 800a714:	f04f 33ff 	mov.w	r3, #4294967295
 800a718:	6068      	str	r0, [r5, #4]
 800a71a:	e75e      	b.n	800a5da <__ieee754_rem_pio2f+0xe6>
 800a71c:	e895 000c 	ldmia.w	r5, {r2, r3}
 800a720:	f103 4100 	add.w	r1, r3, #2147483648	; 0x80000000
 800a724:	f102 4200 	add.w	r2, r2, #2147483648	; 0x80000000
 800a728:	4243      	negs	r3, r0
 800a72a:	602a      	str	r2, [r5, #0]
 800a72c:	6069      	str	r1, [r5, #4]
 800a72e:	e754      	b.n	800a5da <__ieee754_rem_pio2f+0xe6>
 800a730:	2303      	movs	r3, #3
 800a732:	e740      	b.n	800a5b6 <__ieee754_rem_pio2f+0xc2>
 800a734:	f107 4700 	add.w	r7, r7, #2147483648	; 0x80000000
 800a738:	f100 4000 	add.w	r0, r0, #2147483648	; 0x80000000
 800a73c:	602f      	str	r7, [r5, #0]
 800a73e:	6068      	str	r0, [r5, #4]
 800a740:	f1ca 0300 	rsb	r3, sl, #0
 800a744:	e749      	b.n	800a5da <__ieee754_rem_pio2f+0xe6>
 800a746:	491f      	ldr	r1, [pc, #124]	; (800a7c4 <__ieee754_rem_pio2f+0x2d0>)
 800a748:	f7fa fa1e 	bl	8004b88 <__addsf3>
 800a74c:	491e      	ldr	r1, [pc, #120]	; (800a7c8 <__ieee754_rem_pio2f+0x2d4>)
 800a74e:	4604      	mov	r4, r0
 800a750:	f7fa fa1a 	bl	8004b88 <__addsf3>
 800a754:	4601      	mov	r1, r0
 800a756:	6028      	str	r0, [r5, #0]
 800a758:	4620      	mov	r0, r4
 800a75a:	f7fa fa13 	bl	8004b84 <__aeabi_fsub>
 800a75e:	491a      	ldr	r1, [pc, #104]	; (800a7c8 <__ieee754_rem_pio2f+0x2d4>)
 800a760:	f7fa fa12 	bl	8004b88 <__addsf3>
 800a764:	f04f 33ff 	mov.w	r3, #4294967295
 800a768:	6068      	str	r0, [r5, #4]
 800a76a:	e736      	b.n	800a5da <__ieee754_rem_pio2f+0xe6>
 800a76c:	4919      	ldr	r1, [pc, #100]	; (800a7d4 <__ieee754_rem_pio2f+0x2e0>)
 800a76e:	4658      	mov	r0, fp
 800a770:	f7fa fb12 	bl	8004d98 <__aeabi_fmul>
 800a774:	4607      	mov	r7, r0
 800a776:	4639      	mov	r1, r7
 800a778:	4620      	mov	r0, r4
 800a77a:	f7fa fa03 	bl	8004b84 <__aeabi_fsub>
 800a77e:	4680      	mov	r8, r0
 800a780:	4641      	mov	r1, r8
 800a782:	4620      	mov	r0, r4
 800a784:	f7fa f9fe 	bl	8004b84 <__aeabi_fsub>
 800a788:	4639      	mov	r1, r7
 800a78a:	f7fa f9fb 	bl	8004b84 <__aeabi_fsub>
 800a78e:	4912      	ldr	r1, [pc, #72]	; (800a7d8 <__ieee754_rem_pio2f+0x2e4>)
 800a790:	4604      	mov	r4, r0
 800a792:	4658      	mov	r0, fp
 800a794:	f7fa fb00 	bl	8004d98 <__aeabi_fmul>
 800a798:	4621      	mov	r1, r4
 800a79a:	f7fa f9f3 	bl	8004b84 <__aeabi_fsub>
 800a79e:	4681      	mov	r9, r0
 800a7a0:	4649      	mov	r1, r9
 800a7a2:	4640      	mov	r0, r8
 800a7a4:	e761      	b.n	800a66a <__ieee754_rem_pio2f+0x176>
 800a7a6:	bf00      	nop
 800a7a8:	3f490fd8 	.word	0x3f490fd8
 800a7ac:	4016cbe3 	.word	0x4016cbe3
 800a7b0:	3fc90f80 	.word	0x3fc90f80
 800a7b4:	3fc90fd0 	.word	0x3fc90fd0
 800a7b8:	37354443 	.word	0x37354443
 800a7bc:	43490f80 	.word	0x43490f80
 800a7c0:	0800f73c 	.word	0x0800f73c
 800a7c4:	37354400 	.word	0x37354400
 800a7c8:	2e85a308 	.word	0x2e85a308
 800a7cc:	3f22f984 	.word	0x3f22f984
 800a7d0:	0800f6bc 	.word	0x0800f6bc
 800a7d4:	2e85a300 	.word	0x2e85a300
 800a7d8:	248d3132 	.word	0x248d3132

0800a7dc <__ieee754_sqrtf>:
 800a7dc:	f020 4200 	bic.w	r2, r0, #2147483648	; 0x80000000
 800a7e0:	f1b2 4fff 	cmp.w	r2, #2139095040	; 0x7f800000
 800a7e4:	b5f8      	push	{r3, r4, r5, r6, r7, lr}
 800a7e6:	4604      	mov	r4, r0
 800a7e8:	4603      	mov	r3, r0
 800a7ea:	d22d      	bcs.n	800a848 <__ieee754_sqrtf+0x6c>
 800a7ec:	b35a      	cbz	r2, 800a846 <__ieee754_sqrtf+0x6a>
 800a7ee:	2800      	cmp	r0, #0
 800a7f0:	db3d      	blt.n	800a86e <__ieee754_sqrtf+0x92>
 800a7f2:	f5b2 0f00 	cmp.w	r2, #8388608	; 0x800000
 800a7f6:	ea4f 50e0 	mov.w	r0, r0, asr #23
 800a7fa:	d32c      	bcc.n	800a856 <__ieee754_sqrtf+0x7a>
 800a7fc:	387f      	subs	r0, #127	; 0x7f
 800a7fe:	f3c3 0316 	ubfx	r3, r3, #0, #23
 800a802:	07c2      	lsls	r2, r0, #31
 800a804:	f443 0300 	orr.w	r3, r3, #8388608	; 0x800000
 800a808:	bf48      	it	mi
 800a80a:	005b      	lslmi	r3, r3, #1
 800a80c:	2700      	movs	r7, #0
 800a80e:	1040      	asrs	r0, r0, #1
 800a810:	005b      	lsls	r3, r3, #1
 800a812:	463e      	mov	r6, r7
 800a814:	2419      	movs	r4, #25
 800a816:	f04f 7280 	mov.w	r2, #16777216	; 0x1000000
 800a81a:	18b5      	adds	r5, r6, r2
 800a81c:	429d      	cmp	r5, r3
 800a81e:	dc02      	bgt.n	800a826 <__ieee754_sqrtf+0x4a>
 800a820:	1b5b      	subs	r3, r3, r5
 800a822:	18ae      	adds	r6, r5, r2
 800a824:	4417      	add	r7, r2
 800a826:	3c01      	subs	r4, #1
 800a828:	ea4f 0343 	mov.w	r3, r3, lsl #1
 800a82c:	ea4f 0252 	mov.w	r2, r2, lsr #1
 800a830:	d1f3      	bne.n	800a81a <__ieee754_sqrtf+0x3e>
 800a832:	b113      	cbz	r3, 800a83a <__ieee754_sqrtf+0x5e>
 800a834:	f007 0301 	and.w	r3, r7, #1
 800a838:	441f      	add	r7, r3
 800a83a:	107f      	asrs	r7, r7, #1
 800a83c:	f107 577c 	add.w	r7, r7, #1056964608	; 0x3f000000
 800a840:	eb07 50c0 	add.w	r0, r7, r0, lsl #23
 800a844:	bdf8      	pop	{r3, r4, r5, r6, r7, pc}
 800a846:	bdf8      	pop	{r3, r4, r5, r6, r7, pc}
 800a848:	4601      	mov	r1, r0
 800a84a:	f7fa faa5 	bl	8004d98 <__aeabi_fmul>
 800a84e:	4621      	mov	r1, r4
 800a850:	f7fa f99a 	bl	8004b88 <__addsf3>
 800a854:	bdf8      	pop	{r3, r4, r5, r6, r7, pc}
 800a856:	f414 0200 	ands.w	r2, r4, #8388608	; 0x800000
 800a85a:	d10f      	bne.n	800a87c <__ieee754_sqrtf+0xa0>
 800a85c:	005b      	lsls	r3, r3, #1
 800a85e:	0219      	lsls	r1, r3, #8
 800a860:	f102 0201 	add.w	r2, r2, #1
 800a864:	d5fa      	bpl.n	800a85c <__ieee754_sqrtf+0x80>
 800a866:	f1c2 0201 	rsb	r2, r2, #1
 800a86a:	4410      	add	r0, r2
 800a86c:	e7c6      	b.n	800a7fc <__ieee754_sqrtf+0x20>
 800a86e:	4601      	mov	r1, r0
 800a870:	f7fa f988 	bl	8004b84 <__aeabi_fsub>
 800a874:	4601      	mov	r1, r0
 800a876:	f7fa fb43 	bl	8004f00 <__aeabi_fdiv>
 800a87a:	bdf8      	pop	{r3, r4, r5, r6, r7, pc}
 800a87c:	2201      	movs	r2, #1
 800a87e:	4410      	add	r0, r2
 800a880:	e7bc      	b.n	800a7fc <__ieee754_sqrtf+0x20>
 800a882:	bf00      	nop

0800a884 <__kernel_cosf>:
 800a884:	e92d 43f8 	stmdb	sp!, {r3, r4, r5, r6, r7, r8, r9, lr}
 800a888:	f020 4600 	bic.w	r6, r0, #2147483648	; 0x80000000
 800a88c:	f1b6 5f48 	cmp.w	r6, #838860800	; 0x32000000
 800a890:	4605      	mov	r5, r0
 800a892:	460f      	mov	r7, r1
 800a894:	da49      	bge.n	800a92a <__kernel_cosf+0xa6>
 800a896:	f7fa fc45 	bl	8005124 <__aeabi_f2iz>
 800a89a:	2800      	cmp	r0, #0
 800a89c:	f000 809d 	beq.w	800a9da <__kernel_cosf+0x156>
 800a8a0:	4629      	mov	r1, r5
 800a8a2:	4628      	mov	r0, r5
 800a8a4:	f7fa fa78 	bl	8004d98 <__aeabi_fmul>
 800a8a8:	494e      	ldr	r1, [pc, #312]	; (800a9e4 <__kernel_cosf+0x160>)
 800a8aa:	4604      	mov	r4, r0
 800a8ac:	f7fa fa74 	bl	8004d98 <__aeabi_fmul>
 800a8b0:	494d      	ldr	r1, [pc, #308]	; (800a9e8 <__kernel_cosf+0x164>)
 800a8b2:	f7fa f969 	bl	8004b88 <__addsf3>
 800a8b6:	4621      	mov	r1, r4
 800a8b8:	f7fa fa6e 	bl	8004d98 <__aeabi_fmul>
 800a8bc:	494b      	ldr	r1, [pc, #300]	; (800a9ec <__kernel_cosf+0x168>)
 800a8be:	f7fa f961 	bl	8004b84 <__aeabi_fsub>
 800a8c2:	4621      	mov	r1, r4
 800a8c4:	f7fa fa68 	bl	8004d98 <__aeabi_fmul>
 800a8c8:	4949      	ldr	r1, [pc, #292]	; (800a9f0 <__kernel_cosf+0x16c>)
 800a8ca:	f7fa f95d 	bl	8004b88 <__addsf3>
 800a8ce:	4621      	mov	r1, r4
 800a8d0:	f7fa fa62 	bl	8004d98 <__aeabi_fmul>
 800a8d4:	4947      	ldr	r1, [pc, #284]	; (800a9f4 <__kernel_cosf+0x170>)
 800a8d6:	f7fa f955 	bl	8004b84 <__aeabi_fsub>
 800a8da:	4621      	mov	r1, r4
 800a8dc:	f7fa fa5c 	bl	8004d98 <__aeabi_fmul>
 800a8e0:	4945      	ldr	r1, [pc, #276]	; (800a9f8 <__kernel_cosf+0x174>)
 800a8e2:	f7fa f951 	bl	8004b88 <__addsf3>
 800a8e6:	4621      	mov	r1, r4
 800a8e8:	f7fa fa56 	bl	8004d98 <__aeabi_fmul>
 800a8ec:	4680      	mov	r8, r0
 800a8ee:	4620      	mov	r0, r4
 800a8f0:	f04f 517c 	mov.w	r1, #1056964608	; 0x3f000000
 800a8f4:	f7fa fa50 	bl	8004d98 <__aeabi_fmul>
 800a8f8:	4641      	mov	r1, r8
 800a8fa:	4606      	mov	r6, r0
 800a8fc:	4620      	mov	r0, r4
 800a8fe:	f7fa fa4b 	bl	8004d98 <__aeabi_fmul>
 800a902:	4639      	mov	r1, r7
 800a904:	4604      	mov	r4, r0
 800a906:	4628      	mov	r0, r5
 800a908:	f7fa fa46 	bl	8004d98 <__aeabi_fmul>
 800a90c:	4601      	mov	r1, r0
 800a90e:	4620      	mov	r0, r4
 800a910:	f7fa f938 	bl	8004b84 <__aeabi_fsub>
 800a914:	4601      	mov	r1, r0
 800a916:	4630      	mov	r0, r6
 800a918:	f7fa f934 	bl	8004b84 <__aeabi_fsub>
 800a91c:	4601      	mov	r1, r0
 800a91e:	f04f 507e 	mov.w	r0, #1065353216	; 0x3f800000
 800a922:	f7fa f92f 	bl	8004b84 <__aeabi_fsub>
 800a926:	e8bd 83f8 	ldmia.w	sp!, {r3, r4, r5, r6, r7, r8, r9, pc}
 800a92a:	4601      	mov	r1, r0
 800a92c:	f7fa fa34 	bl	8004d98 <__aeabi_fmul>
 800a930:	492c      	ldr	r1, [pc, #176]	; (800a9e4 <__kernel_cosf+0x160>)
 800a932:	4604      	mov	r4, r0
 800a934:	f7fa fa30 	bl	8004d98 <__aeabi_fmul>
 800a938:	492b      	ldr	r1, [pc, #172]	; (800a9e8 <__kernel_cosf+0x164>)
 800a93a:	f7fa f925 	bl	8004b88 <__addsf3>
 800a93e:	4621      	mov	r1, r4
 800a940:	f7fa fa2a 	bl	8004d98 <__aeabi_fmul>
 800a944:	4929      	ldr	r1, [pc, #164]	; (800a9ec <__kernel_cosf+0x168>)
 800a946:	f7fa f91d 	bl	8004b84 <__aeabi_fsub>
 800a94a:	4621      	mov	r1, r4
 800a94c:	f7fa fa24 	bl	8004d98 <__aeabi_fmul>
 800a950:	4927      	ldr	r1, [pc, #156]	; (800a9f0 <__kernel_cosf+0x16c>)
 800a952:	f7fa f919 	bl	8004b88 <__addsf3>
 800a956:	4621      	mov	r1, r4
 800a958:	f7fa fa1e 	bl	8004d98 <__aeabi_fmul>
 800a95c:	4925      	ldr	r1, [pc, #148]	; (800a9f4 <__kernel_cosf+0x170>)
 800a95e:	f7fa f911 	bl	8004b84 <__aeabi_fsub>
 800a962:	4621      	mov	r1, r4
 800a964:	f7fa fa18 	bl	8004d98 <__aeabi_fmul>
 800a968:	4923      	ldr	r1, [pc, #140]	; (800a9f8 <__kernel_cosf+0x174>)
 800a96a:	f7fa f90d 	bl	8004b88 <__addsf3>
 800a96e:	4621      	mov	r1, r4
 800a970:	f7fa fa12 	bl	8004d98 <__aeabi_fmul>
 800a974:	4b21      	ldr	r3, [pc, #132]	; (800a9fc <__kernel_cosf+0x178>)
 800a976:	4680      	mov	r8, r0
 800a978:	429e      	cmp	r6, r3
 800a97a:	ddb8      	ble.n	800a8ee <__kernel_cosf+0x6a>
 800a97c:	4b20      	ldr	r3, [pc, #128]	; (800aa00 <__kernel_cosf+0x17c>)
 800a97e:	429e      	cmp	r6, r3
 800a980:	dc27      	bgt.n	800a9d2 <__kernel_cosf+0x14e>
 800a982:	f106 467f 	add.w	r6, r6, #4278190080	; 0xff000000
 800a986:	4631      	mov	r1, r6
 800a988:	f04f 507e 	mov.w	r0, #1065353216	; 0x3f800000
 800a98c:	f7fa f8fa 	bl	8004b84 <__aeabi_fsub>
 800a990:	4681      	mov	r9, r0
 800a992:	4620      	mov	r0, r4
 800a994:	f04f 517c 	mov.w	r1, #1056964608	; 0x3f000000
 800a998:	f7fa f9fe 	bl	8004d98 <__aeabi_fmul>
 800a99c:	4631      	mov	r1, r6
 800a99e:	f7fa f8f1 	bl	8004b84 <__aeabi_fsub>
 800a9a2:	4641      	mov	r1, r8
 800a9a4:	4606      	mov	r6, r0
 800a9a6:	4620      	mov	r0, r4
 800a9a8:	f7fa f9f6 	bl	8004d98 <__aeabi_fmul>
 800a9ac:	4639      	mov	r1, r7
 800a9ae:	4604      	mov	r4, r0
 800a9b0:	4628      	mov	r0, r5
 800a9b2:	f7fa f9f1 	bl	8004d98 <__aeabi_fmul>
 800a9b6:	4601      	mov	r1, r0
 800a9b8:	4620      	mov	r0, r4
 800a9ba:	f7fa f8e3 	bl	8004b84 <__aeabi_fsub>
 800a9be:	4601      	mov	r1, r0
 800a9c0:	4630      	mov	r0, r6
 800a9c2:	f7fa f8df 	bl	8004b84 <__aeabi_fsub>
 800a9c6:	4601      	mov	r1, r0
 800a9c8:	4648      	mov	r0, r9
 800a9ca:	f7fa f8db 	bl	8004b84 <__aeabi_fsub>
 800a9ce:	e8bd 83f8 	ldmia.w	sp!, {r3, r4, r5, r6, r7, r8, r9, pc}
 800a9d2:	f8df 9034 	ldr.w	r9, [pc, #52]	; 800aa08 <__kernel_cosf+0x184>
 800a9d6:	4e0b      	ldr	r6, [pc, #44]	; (800aa04 <__kernel_cosf+0x180>)
 800a9d8:	e7db      	b.n	800a992 <__kernel_cosf+0x10e>
 800a9da:	f04f 507e 	mov.w	r0, #1065353216	; 0x3f800000
 800a9de:	e8bd 83f8 	ldmia.w	sp!, {r3, r4, r5, r6, r7, r8, r9, pc}
 800a9e2:	bf00      	nop
 800a9e4:	ad47d74e 	.word	0xad47d74e
 800a9e8:	310f74f6 	.word	0x310f74f6
 800a9ec:	3493f27c 	.word	0x3493f27c
 800a9f0:	37d00d01 	.word	0x37d00d01
 800a9f4:	3ab60b61 	.word	0x3ab60b61
 800a9f8:	3d2aaaab 	.word	0x3d2aaaab
 800a9fc:	3e999999 	.word	0x3e999999
 800aa00:	3f480000 	.word	0x3f480000
 800aa04:	3e900000 	.word	0x3e900000
 800aa08:	3f380000 	.word	0x3f380000

0800aa0c <__kernel_rem_pio2f>:
 800aa0c:	e92d 4ff0 	stmdb	sp!, {r4, r5, r6, r7, r8, r9, sl, fp, lr}
 800aa10:	b0df      	sub	sp, #380	; 0x17c
 800aa12:	930b      	str	r3, [sp, #44]	; 0x2c
 800aa14:	3b01      	subs	r3, #1
 800aa16:	9302      	str	r3, [sp, #8]
 800aa18:	1ed3      	subs	r3, r2, #3
 800aa1a:	bf48      	it	mi
 800aa1c:	1d13      	addmi	r3, r2, #4
 800aa1e:	4cb8      	ldr	r4, [pc, #736]	; (800ad00 <__kernel_rem_pio2f+0x2f4>)
 800aa20:	4606      	mov	r6, r0
 800aa22:	9868      	ldr	r0, [sp, #416]	; 0x1a0
 800aa24:	10db      	asrs	r3, r3, #3
 800aa26:	f854 4020 	ldr.w	r4, [r4, r0, lsl #2]
 800aa2a:	ea23 73e3 	bic.w	r3, r3, r3, asr #31
 800aa2e:	930c      	str	r3, [sp, #48]	; 0x30
 800aa30:	43db      	mvns	r3, r3
 800aa32:	eb02 03c3 	add.w	r3, r2, r3, lsl #3
 800aa36:	9408      	str	r4, [sp, #32]
 800aa38:	9306      	str	r3, [sp, #24]
 800aa3a:	9c08      	ldr	r4, [sp, #32]
 800aa3c:	9b02      	ldr	r3, [sp, #8]
 800aa3e:	9a0c      	ldr	r2, [sp, #48]	; 0x30
 800aa40:	191d      	adds	r5, r3, r4
 800aa42:	9109      	str	r1, [sp, #36]	; 0x24
 800aa44:	ebc3 0702 	rsb	r7, r3, r2
 800aa48:	d41d      	bmi.n	800aa86 <__kernel_rem_pio2f+0x7a>
 800aa4a:	9c69      	ldr	r4, [sp, #420]	; 0x1a4
 800aa4c:	443d      	add	r5, r7
 800aa4e:	eb04 0987 	add.w	r9, r4, r7, lsl #2
 800aa52:	3501      	adds	r5, #1
 800aa54:	f04f 0800 	mov.w	r8, #0
 800aa58:	ac22      	add	r4, sp, #136	; 0x88
 800aa5a:	e00a      	b.n	800aa72 <__kernel_rem_pio2f+0x66>
 800aa5c:	f859 0008 	ldr.w	r0, [r9, r8]
 800aa60:	f7fa f946 	bl	8004cf0 <__aeabi_i2f>
 800aa64:	3701      	adds	r7, #1
 800aa66:	42af      	cmp	r7, r5
 800aa68:	f844 0008 	str.w	r0, [r4, r8]
 800aa6c:	f108 0804 	add.w	r8, r8, #4
 800aa70:	d009      	beq.n	800aa86 <__kernel_rem_pio2f+0x7a>
 800aa72:	2f00      	cmp	r7, #0
 800aa74:	daf2      	bge.n	800aa5c <__kernel_rem_pio2f+0x50>
 800aa76:	3701      	adds	r7, #1
 800aa78:	2000      	movs	r0, #0
 800aa7a:	42af      	cmp	r7, r5
 800aa7c:	f844 0008 	str.w	r0, [r4, r8]
 800aa80:	f108 0804 	add.w	r8, r8, #4
 800aa84:	d1f5      	bne.n	800aa72 <__kernel_rem_pio2f+0x66>
 800aa86:	9a08      	ldr	r2, [sp, #32]
 800aa88:	2a00      	cmp	r2, #0
 800aa8a:	f2c0 82df 	blt.w	800b04c <__kernel_rem_pio2f+0x640>
 800aa8e:	9a08      	ldr	r2, [sp, #32]
 800aa90:	9b0b      	ldr	r3, [sp, #44]	; 0x2c
 800aa92:	f102 0801 	add.w	r8, r2, #1
 800aa96:	009c      	lsls	r4, r3, #2
 800aa98:	af22      	add	r7, sp, #136	; 0x88
 800aa9a:	ea4f 0888 	mov.w	r8, r8, lsl #2
 800aa9e:	4427      	add	r7, r4
 800aaa0:	2500      	movs	r5, #0
 800aaa2:	9a02      	ldr	r2, [sp, #8]
 800aaa4:	2a00      	cmp	r2, #0
 800aaa6:	f2c0 81f2 	blt.w	800ae8e <__kernel_rem_pio2f+0x482>
 800aaaa:	eb05 0b07 	add.w	fp, r5, r7
 800aaae:	f04f 0900 	mov.w	r9, #0
 800aab2:	f04f 0a00 	mov.w	sl, #0
 800aab6:	f856 0009 	ldr.w	r0, [r6, r9]
 800aaba:	f85b 1d04 	ldr.w	r1, [fp, #-4]!
 800aabe:	f7fa f96b 	bl	8004d98 <__aeabi_fmul>
 800aac2:	4601      	mov	r1, r0
 800aac4:	4650      	mov	r0, sl
 800aac6:	f7fa f85f 	bl	8004b88 <__addsf3>
 800aaca:	f109 0904 	add.w	r9, r9, #4
 800aace:	45a1      	cmp	r9, r4
 800aad0:	4682      	mov	sl, r0
 800aad2:	d1f0      	bne.n	800aab6 <__kernel_rem_pio2f+0xaa>
 800aad4:	a84a      	add	r0, sp, #296	; 0x128
 800aad6:	f840 a005 	str.w	sl, [r0, r5]
 800aada:	3504      	adds	r5, #4
 800aadc:	4545      	cmp	r5, r8
 800aade:	d1e0      	bne.n	800aaa2 <__kernel_rem_pio2f+0x96>
 800aae0:	9a08      	ldr	r2, [sp, #32]
 800aae2:	ab0e      	add	r3, sp, #56	; 0x38
 800aae4:	eb03 0382 	add.w	r3, r3, r2, lsl #2
 800aae8:	930d      	str	r3, [sp, #52]	; 0x34
 800aaea:	4691      	mov	r9, r2
 800aaec:	ea4f 0389 	mov.w	r3, r9, lsl #2
 800aaf0:	9307      	str	r3, [sp, #28]
 800aaf2:	9a07      	ldr	r2, [sp, #28]
 800aaf4:	ab5e      	add	r3, sp, #376	; 0x178
 800aaf6:	4413      	add	r3, r2
 800aaf8:	f1b9 0f00 	cmp.w	r9, #0
 800aafc:	f853 ac50 	ldr.w	sl, [r3, #-80]
 800ab00:	dd23      	ble.n	800ab4a <__kernel_rem_pio2f+0x13e>
 800ab02:	f10d 0834 	add.w	r8, sp, #52	; 0x34
 800ab06:	af4a      	add	r7, sp, #296	; 0x128
 800ab08:	4417      	add	r7, r2
 800ab0a:	4490      	add	r8, r2
 800ab0c:	ad0d      	add	r5, sp, #52	; 0x34
 800ab0e:	f04f 516e 	mov.w	r1, #998244352	; 0x3b800000
 800ab12:	4650      	mov	r0, sl
 800ab14:	f7fa f940 	bl	8004d98 <__aeabi_fmul>
 800ab18:	f7fa fb04 	bl	8005124 <__aeabi_f2iz>
 800ab1c:	f7fa f8e8 	bl	8004cf0 <__aeabi_i2f>
 800ab20:	f04f 4187 	mov.w	r1, #1132462080	; 0x43800000
 800ab24:	4683      	mov	fp, r0
 800ab26:	f7fa f937 	bl	8004d98 <__aeabi_fmul>
 800ab2a:	4601      	mov	r1, r0
 800ab2c:	4650      	mov	r0, sl
 800ab2e:	f7fa f829 	bl	8004b84 <__aeabi_fsub>
 800ab32:	f7fa faf7 	bl	8005124 <__aeabi_f2iz>
 800ab36:	4659      	mov	r1, fp
 800ab38:	f845 0f04 	str.w	r0, [r5, #4]!
 800ab3c:	f857 0d04 	ldr.w	r0, [r7, #-4]!
 800ab40:	f7fa f822 	bl	8004b88 <__addsf3>
 800ab44:	4545      	cmp	r5, r8
 800ab46:	4682      	mov	sl, r0
 800ab48:	d1e1      	bne.n	800ab0e <__kernel_rem_pio2f+0x102>
 800ab4a:	4650      	mov	r0, sl
 800ab4c:	9906      	ldr	r1, [sp, #24]
 800ab4e:	f000 fc87 	bl	800b460 <scalbnf>
 800ab52:	f04f 5178 	mov.w	r1, #1040187392	; 0x3e000000
 800ab56:	4605      	mov	r5, r0
 800ab58:	f7fa f91e 	bl	8004d98 <__aeabi_fmul>
 800ab5c:	f000 fc20 	bl	800b3a0 <floorf>
 800ab60:	f04f 4182 	mov.w	r1, #1090519040	; 0x41000000
 800ab64:	f7fa f918 	bl	8004d98 <__aeabi_fmul>
 800ab68:	4601      	mov	r1, r0
 800ab6a:	4628      	mov	r0, r5
 800ab6c:	f7fa f80a 	bl	8004b84 <__aeabi_fsub>
 800ab70:	4605      	mov	r5, r0
 800ab72:	f7fa fad7 	bl	8005124 <__aeabi_f2iz>
 800ab76:	4682      	mov	sl, r0
 800ab78:	f7fa f8ba 	bl	8004cf0 <__aeabi_i2f>
 800ab7c:	4601      	mov	r1, r0
 800ab7e:	4628      	mov	r0, r5
 800ab80:	f7fa f800 	bl	8004b84 <__aeabi_fsub>
 800ab84:	9a06      	ldr	r2, [sp, #24]
 800ab86:	4680      	mov	r8, r0
 800ab88:	2a00      	cmp	r2, #0
 800ab8a:	f340 8167 	ble.w	800ae5c <__kernel_rem_pio2f+0x450>
 800ab8e:	f109 31ff 	add.w	r1, r9, #4294967295
 800ab92:	a80e      	add	r0, sp, #56	; 0x38
 800ab94:	f850 3021 	ldr.w	r3, [r0, r1, lsl #2]
 800ab98:	f1c2 0008 	rsb	r0, r2, #8
 800ab9c:	fa43 f200 	asr.w	r2, r3, r0
 800aba0:	fa02 f000 	lsl.w	r0, r2, r0
 800aba4:	1a1b      	subs	r3, r3, r0
 800aba6:	9806      	ldr	r0, [sp, #24]
 800aba8:	4492      	add	sl, r2
 800abaa:	f1c0 0707 	rsb	r7, r0, #7
 800abae:	fa43 f707 	asr.w	r7, r3, r7
 800abb2:	a80e      	add	r0, sp, #56	; 0x38
 800abb4:	f840 3021 	str.w	r3, [r0, r1, lsl #2]
 800abb8:	2f00      	cmp	r7, #0
 800abba:	dd32      	ble.n	800ac22 <__kernel_rem_pio2f+0x216>
 800abbc:	f1b9 0f00 	cmp.w	r9, #0
 800abc0:	f10a 0a01 	add.w	sl, sl, #1
 800abc4:	f340 8175 	ble.w	800aeb2 <__kernel_rem_pio2f+0x4a6>
 800abc8:	ab0e      	add	r3, sp, #56	; 0x38
 800abca:	9a07      	ldr	r2, [sp, #28]
 800abcc:	4619      	mov	r1, r3
 800abce:	4411      	add	r1, r2
 800abd0:	2500      	movs	r5, #0
 800abd2:	e007      	b.n	800abe4 <__kernel_rem_pio2f+0x1d8>
 800abd4:	f5c2 7080 	rsb	r0, r2, #256	; 0x100
 800abd8:	b112      	cbz	r2, 800abe0 <__kernel_rem_pio2f+0x1d4>
 800abda:	f843 0c04 	str.w	r0, [r3, #-4]
 800abde:	2501      	movs	r5, #1
 800abe0:	428b      	cmp	r3, r1
 800abe2:	d00b      	beq.n	800abfc <__kernel_rem_pio2f+0x1f0>
 800abe4:	f853 2b04 	ldr.w	r2, [r3], #4
 800abe8:	2d00      	cmp	r5, #0
 800abea:	d0f3      	beq.n	800abd4 <__kernel_rem_pio2f+0x1c8>
 800abec:	f1c2 02ff 	rsb	r2, r2, #255	; 0xff
 800abf0:	428b      	cmp	r3, r1
 800abf2:	f843 2c04 	str.w	r2, [r3, #-4]
 800abf6:	f04f 0501 	mov.w	r5, #1
 800abfa:	d1f3      	bne.n	800abe4 <__kernel_rem_pio2f+0x1d8>
 800abfc:	9b06      	ldr	r3, [sp, #24]
 800abfe:	2b00      	cmp	r3, #0
 800ac00:	dd0d      	ble.n	800ac1e <__kernel_rem_pio2f+0x212>
 800ac02:	2b01      	cmp	r3, #1
 800ac04:	f000 8132 	beq.w	800ae6c <__kernel_rem_pio2f+0x460>
 800ac08:	2b02      	cmp	r3, #2
 800ac0a:	d108      	bne.n	800ac1e <__kernel_rem_pio2f+0x212>
 800ac0c:	f109 33ff 	add.w	r3, r9, #4294967295
 800ac10:	a90e      	add	r1, sp, #56	; 0x38
 800ac12:	f851 2023 	ldr.w	r2, [r1, r3, lsl #2]
 800ac16:	f002 023f 	and.w	r2, r2, #63	; 0x3f
 800ac1a:	f841 2023 	str.w	r2, [r1, r3, lsl #2]
 800ac1e:	2f02      	cmp	r7, #2
 800ac20:	d070      	beq.n	800ad04 <__kernel_rem_pio2f+0x2f8>
 800ac22:	4640      	mov	r0, r8
 800ac24:	2100      	movs	r1, #0
 800ac26:	f7fa fa4b 	bl	80050c0 <__aeabi_fcmpeq>
 800ac2a:	2800      	cmp	r0, #0
 800ac2c:	f000 8083 	beq.w	800ad36 <__kernel_rem_pio2f+0x32a>
 800ac30:	9a08      	ldr	r2, [sp, #32]
 800ac32:	f109 35ff 	add.w	r5, r9, #4294967295
 800ac36:	42aa      	cmp	r2, r5
 800ac38:	dc0d      	bgt.n	800ac56 <__kernel_rem_pio2f+0x24a>
 800ac3a:	9a07      	ldr	r2, [sp, #28]
 800ac3c:	ab0e      	add	r3, sp, #56	; 0x38
 800ac3e:	980d      	ldr	r0, [sp, #52]	; 0x34
 800ac40:	4413      	add	r3, r2
 800ac42:	2200      	movs	r2, #0
 800ac44:	f853 1d04 	ldr.w	r1, [r3, #-4]!
 800ac48:	4283      	cmp	r3, r0
 800ac4a:	ea42 0201 	orr.w	r2, r2, r1
 800ac4e:	d1f9      	bne.n	800ac44 <__kernel_rem_pio2f+0x238>
 800ac50:	2a00      	cmp	r2, #0
 800ac52:	f040 81e4 	bne.w	800b01e <__kernel_rem_pio2f+0x612>
 800ac56:	9b08      	ldr	r3, [sp, #32]
 800ac58:	a80e      	add	r0, sp, #56	; 0x38
 800ac5a:	1e5a      	subs	r2, r3, #1
 800ac5c:	f850 3022 	ldr.w	r3, [r0, r2, lsl #2]
 800ac60:	2b00      	cmp	r3, #0
 800ac62:	f040 81f1 	bne.w	800b048 <__kernel_rem_pio2f+0x63c>
 800ac66:	eb00 0282 	add.w	r2, r0, r2, lsl #2
 800ac6a:	2301      	movs	r3, #1
 800ac6c:	f852 1d04 	ldr.w	r1, [r2, #-4]!
 800ac70:	3301      	adds	r3, #1
 800ac72:	2900      	cmp	r1, #0
 800ac74:	d0fa      	beq.n	800ac6c <__kernel_rem_pio2f+0x260>
 800ac76:	444b      	add	r3, r9
 800ac78:	4599      	cmp	r9, r3
 800ac7a:	930a      	str	r3, [sp, #40]	; 0x28
 800ac7c:	da3d      	bge.n	800acfa <__kernel_rem_pio2f+0x2ee>
 800ac7e:	f8dd a02c 	ldr.w	sl, [sp, #44]	; 0x2c
 800ac82:	aa22      	add	r2, sp, #136	; 0x88
 800ac84:	44ca      	add	sl, r9
 800ac86:	f8dd 8030 	ldr.w	r8, [sp, #48]	; 0x30
 800ac8a:	eb02 028a 	add.w	r2, r2, sl, lsl #2
 800ac8e:	44c8      	add	r8, r9
 800ac90:	ebc9 0903 	rsb	r9, r9, r3
 800ac94:	1d13      	adds	r3, r2, #4
 800ac96:	9203      	str	r2, [sp, #12]
 800ac98:	9305      	str	r3, [sp, #20]
 800ac9a:	9a69      	ldr	r2, [sp, #420]	; 0x1a4
 800ac9c:	9b07      	ldr	r3, [sp, #28]
 800ac9e:	ea4f 0989 	mov.w	r9, r9, lsl #2
 800aca2:	af4a      	add	r7, sp, #296	; 0x128
 800aca4:	eb02 0888 	add.w	r8, r2, r8, lsl #2
 800aca8:	f8cd 9010 	str.w	r9, [sp, #16]
 800acac:	441f      	add	r7, r3
 800acae:	2500      	movs	r5, #0
 800acb0:	f858 0f04 	ldr.w	r0, [r8, #4]!
 800acb4:	f7fa f81c 	bl	8004cf0 <__aeabi_i2f>
 800acb8:	9b02      	ldr	r3, [sp, #8]
 800acba:	9a03      	ldr	r2, [sp, #12]
 800acbc:	2b00      	cmp	r3, #0
 800acbe:	5150      	str	r0, [r2, r5]
 800acc0:	f04f 0b00 	mov.w	fp, #0
 800acc4:	db13      	blt.n	800acee <__kernel_rem_pio2f+0x2e2>
 800acc6:	f8dd a014 	ldr.w	sl, [sp, #20]
 800acca:	f04f 0900 	mov.w	r9, #0
 800acce:	44aa      	add	sl, r5
 800acd0:	f856 0009 	ldr.w	r0, [r6, r9]
 800acd4:	f85a 1d04 	ldr.w	r1, [sl, #-4]!
 800acd8:	f7fa f85e 	bl	8004d98 <__aeabi_fmul>
 800acdc:	4601      	mov	r1, r0
 800acde:	4658      	mov	r0, fp
 800ace0:	f7f9 ff52 	bl	8004b88 <__addsf3>
 800ace4:	f109 0904 	add.w	r9, r9, #4
 800ace8:	45a1      	cmp	r9, r4
 800acea:	4683      	mov	fp, r0
 800acec:	d1f0      	bne.n	800acd0 <__kernel_rem_pio2f+0x2c4>
 800acee:	9a04      	ldr	r2, [sp, #16]
 800acf0:	3504      	adds	r5, #4
 800acf2:	4295      	cmp	r5, r2
 800acf4:	f847 bf04 	str.w	fp, [r7, #4]!
 800acf8:	d1da      	bne.n	800acb0 <__kernel_rem_pio2f+0x2a4>
 800acfa:	f8dd 9028 	ldr.w	r9, [sp, #40]	; 0x28
 800acfe:	e6f5      	b.n	800aaec <__kernel_rem_pio2f+0xe0>
 800ad00:	0800fa54 	.word	0x0800fa54
 800ad04:	4641      	mov	r1, r8
 800ad06:	f04f 507e 	mov.w	r0, #1065353216	; 0x3f800000
 800ad0a:	f7f9 ff3b 	bl	8004b84 <__aeabi_fsub>
 800ad0e:	4680      	mov	r8, r0
 800ad10:	2d00      	cmp	r5, #0
 800ad12:	d086      	beq.n	800ac22 <__kernel_rem_pio2f+0x216>
 800ad14:	9906      	ldr	r1, [sp, #24]
 800ad16:	f04f 507e 	mov.w	r0, #1065353216	; 0x3f800000
 800ad1a:	f000 fba1 	bl	800b460 <scalbnf>
 800ad1e:	4601      	mov	r1, r0
 800ad20:	4640      	mov	r0, r8
 800ad22:	f7f9 ff2f 	bl	8004b84 <__aeabi_fsub>
 800ad26:	4680      	mov	r8, r0
 800ad28:	4640      	mov	r0, r8
 800ad2a:	2100      	movs	r1, #0
 800ad2c:	f7fa f9c8 	bl	80050c0 <__aeabi_fcmpeq>
 800ad30:	2800      	cmp	r0, #0
 800ad32:	f47f af7d 	bne.w	800ac30 <__kernel_rem_pio2f+0x224>
 800ad36:	9b06      	ldr	r3, [sp, #24]
 800ad38:	4640      	mov	r0, r8
 800ad3a:	4259      	negs	r1, r3
 800ad3c:	f8cd a008 	str.w	sl, [sp, #8]
 800ad40:	f000 fb8e 	bl	800b460 <scalbnf>
 800ad44:	f04f 4187 	mov.w	r1, #1132462080	; 0x43800000
 800ad48:	4604      	mov	r4, r0
 800ad4a:	f7fa f9d7 	bl	80050fc <__aeabi_fcmpge>
 800ad4e:	2800      	cmp	r0, #0
 800ad50:	f000 817f 	beq.w	800b052 <__kernel_rem_pio2f+0x646>
 800ad54:	f04f 516e 	mov.w	r1, #998244352	; 0x3b800000
 800ad58:	4620      	mov	r0, r4
 800ad5a:	f7fa f81d 	bl	8004d98 <__aeabi_fmul>
 800ad5e:	f7fa f9e1 	bl	8005124 <__aeabi_f2iz>
 800ad62:	f7f9 ffc5 	bl	8004cf0 <__aeabi_i2f>
 800ad66:	f04f 4187 	mov.w	r1, #1132462080	; 0x43800000
 800ad6a:	4605      	mov	r5, r0
 800ad6c:	f7fa f814 	bl	8004d98 <__aeabi_fmul>
 800ad70:	4601      	mov	r1, r0
 800ad72:	4620      	mov	r0, r4
 800ad74:	f7f9 ff06 	bl	8004b84 <__aeabi_fsub>
 800ad78:	f7fa f9d4 	bl	8005124 <__aeabi_f2iz>
 800ad7c:	ab0e      	add	r3, sp, #56	; 0x38
 800ad7e:	f843 0029 	str.w	r0, [r3, r9, lsl #2]
 800ad82:	4628      	mov	r0, r5
 800ad84:	f7fa f9ce 	bl	8005124 <__aeabi_f2iz>
 800ad88:	9c06      	ldr	r4, [sp, #24]
 800ad8a:	f109 0501 	add.w	r5, r9, #1
 800ad8e:	3408      	adds	r4, #8
 800ad90:	a90e      	add	r1, sp, #56	; 0x38
 800ad92:	9406      	str	r4, [sp, #24]
 800ad94:	f841 0025 	str.w	r0, [r1, r5, lsl #2]
 800ad98:	9906      	ldr	r1, [sp, #24]
 800ad9a:	f04f 507e 	mov.w	r0, #1065353216	; 0x3f800000
 800ad9e:	f000 fb5f 	bl	800b460 <scalbnf>
 800ada2:	2d00      	cmp	r5, #0
 800ada4:	4604      	mov	r4, r0
 800ada6:	db4f      	blt.n	800ae48 <__kernel_rem_pio2f+0x43c>
 800ada8:	1c6e      	adds	r6, r5, #1
 800adaa:	ea4f 0885 	mov.w	r8, r5, lsl #2
 800adae:	ebc6 7a86 	rsb	sl, r6, r6, lsl #30
 800adb2:	f10d 0938 	add.w	r9, sp, #56	; 0x38
 800adb6:	ab4a      	add	r3, sp, #296	; 0x128
 800adb8:	44c1      	add	r9, r8
 800adba:	ea4f 0a8a 	mov.w	sl, sl, lsl #2
 800adbe:	4498      	add	r8, r3
 800adc0:	f04f 0b00 	mov.w	fp, #0
 800adc4:	f859 000b 	ldr.w	r0, [r9, fp]
 800adc8:	f7f9 ff92 	bl	8004cf0 <__aeabi_i2f>
 800adcc:	4621      	mov	r1, r4
 800adce:	f7f9 ffe3 	bl	8004d98 <__aeabi_fmul>
 800add2:	f04f 516e 	mov.w	r1, #998244352	; 0x3b800000
 800add6:	f848 000b 	str.w	r0, [r8, fp]
 800adda:	4620      	mov	r0, r4
 800addc:	f7f9 ffdc 	bl	8004d98 <__aeabi_fmul>
 800ade0:	f1ab 0b04 	sub.w	fp, fp, #4
 800ade4:	45d3      	cmp	fp, sl
 800ade6:	4604      	mov	r4, r0
 800ade8:	d1ec      	bne.n	800adc4 <__kernel_rem_pio2f+0x3b8>
 800adea:	f8df 928c 	ldr.w	r9, [pc, #652]	; 800b078 <__kernel_rem_pio2f+0x66c>
 800adee:	f8dd a020 	ldr.w	sl, [sp, #32]
 800adf2:	2400      	movs	r4, #0
 800adf4:	46b3      	mov	fp, r6
 800adf6:	9503      	str	r5, [sp, #12]
 800adf8:	9704      	str	r7, [sp, #16]
 800adfa:	f1ba 0f00 	cmp.w	sl, #0
 800adfe:	bfb8      	it	lt
 800ae00:	2500      	movlt	r5, #0
 800ae02:	db15      	blt.n	800ae30 <__kernel_rem_pio2f+0x424>
 800ae04:	2600      	movs	r6, #0
 800ae06:	4637      	mov	r7, r6
 800ae08:	2500      	movs	r5, #0
 800ae0a:	e001      	b.n	800ae10 <__kernel_rem_pio2f+0x404>
 800ae0c:	42a7      	cmp	r7, r4
 800ae0e:	dc0f      	bgt.n	800ae30 <__kernel_rem_pio2f+0x424>
 800ae10:	f858 1006 	ldr.w	r1, [r8, r6]
 800ae14:	f859 0006 	ldr.w	r0, [r9, r6]
 800ae18:	f7f9 ffbe 	bl	8004d98 <__aeabi_fmul>
 800ae1c:	4601      	mov	r1, r0
 800ae1e:	4628      	mov	r0, r5
 800ae20:	f7f9 feb2 	bl	8004b88 <__addsf3>
 800ae24:	3701      	adds	r7, #1
 800ae26:	45ba      	cmp	sl, r7
 800ae28:	4605      	mov	r5, r0
 800ae2a:	f106 0604 	add.w	r6, r6, #4
 800ae2e:	daed      	bge.n	800ae0c <__kernel_rem_pio2f+0x400>
 800ae30:	a85e      	add	r0, sp, #376	; 0x178
 800ae32:	eb00 0384 	add.w	r3, r0, r4, lsl #2
 800ae36:	3401      	adds	r4, #1
 800ae38:	45a3      	cmp	fp, r4
 800ae3a:	f1a8 0804 	sub.w	r8, r8, #4
 800ae3e:	f843 5ca0 	str.w	r5, [r3, #-160]
 800ae42:	d1da      	bne.n	800adfa <__kernel_rem_pio2f+0x3ee>
 800ae44:	9d03      	ldr	r5, [sp, #12]
 800ae46:	9f04      	ldr	r7, [sp, #16]
 800ae48:	9c68      	ldr	r4, [sp, #416]	; 0x1a0
 800ae4a:	2c03      	cmp	r4, #3
 800ae4c:	f200 8098 	bhi.w	800af80 <__kernel_rem_pio2f+0x574>
 800ae50:	e8df f014 	tbh	[pc, r4, lsl #1]
 800ae54:	009c00cb 	.word	0x009c00cb
 800ae58:	0031009c 	.word	0x0031009c
 800ae5c:	d110      	bne.n	800ae80 <__kernel_rem_pio2f+0x474>
 800ae5e:	f109 33ff 	add.w	r3, r9, #4294967295
 800ae62:	a90e      	add	r1, sp, #56	; 0x38
 800ae64:	f851 7023 	ldr.w	r7, [r1, r3, lsl #2]
 800ae68:	123f      	asrs	r7, r7, #8
 800ae6a:	e6a5      	b.n	800abb8 <__kernel_rem_pio2f+0x1ac>
 800ae6c:	f109 33ff 	add.w	r3, r9, #4294967295
 800ae70:	a80e      	add	r0, sp, #56	; 0x38
 800ae72:	f850 2023 	ldr.w	r2, [r0, r3, lsl #2]
 800ae76:	f002 027f 	and.w	r2, r2, #127	; 0x7f
 800ae7a:	f840 2023 	str.w	r2, [r0, r3, lsl #2]
 800ae7e:	e6ce      	b.n	800ac1e <__kernel_rem_pio2f+0x212>
 800ae80:	f04f 517c 	mov.w	r1, #1056964608	; 0x3f000000
 800ae84:	f7fa f93a 	bl	80050fc <__aeabi_fcmpge>
 800ae88:	b958      	cbnz	r0, 800aea2 <__kernel_rem_pio2f+0x496>
 800ae8a:	4607      	mov	r7, r0
 800ae8c:	e6c9      	b.n	800ac22 <__kernel_rem_pio2f+0x216>
 800ae8e:	f04f 0a00 	mov.w	sl, #0
 800ae92:	a84a      	add	r0, sp, #296	; 0x128
 800ae94:	f840 a005 	str.w	sl, [r0, r5]
 800ae98:	3504      	adds	r5, #4
 800ae9a:	4545      	cmp	r5, r8
 800ae9c:	f47f ae01 	bne.w	800aaa2 <__kernel_rem_pio2f+0x96>
 800aea0:	e61e      	b.n	800aae0 <__kernel_rem_pio2f+0xd4>
 800aea2:	f1b9 0f00 	cmp.w	r9, #0
 800aea6:	f04f 0702 	mov.w	r7, #2
 800aeaa:	f10a 0a01 	add.w	sl, sl, #1
 800aeae:	f73f ae8b 	bgt.w	800abc8 <__kernel_rem_pio2f+0x1bc>
 800aeb2:	2500      	movs	r5, #0
 800aeb4:	e6a2      	b.n	800abfc <__kernel_rem_pio2f+0x1f0>
 800aeb6:	2d00      	cmp	r5, #0
 800aeb8:	f340 80dc 	ble.w	800b074 <__kernel_rem_pio2f+0x668>
 800aebc:	ea4f 0b85 	mov.w	fp, r5, lsl #2
 800aec0:	ab5e      	add	r3, sp, #376	; 0x178
 800aec2:	ae36      	add	r6, sp, #216	; 0xd8
 800aec4:	f105 3aff 	add.w	sl, r5, #4294967295
 800aec8:	445b      	add	r3, fp
 800aeca:	eb06 0a8a 	add.w	sl, r6, sl, lsl #2
 800aece:	f853 8ca0 	ldr.w	r8, [r3, #-160]
 800aed2:	4654      	mov	r4, sl
 800aed4:	465b      	mov	r3, fp
 800aed6:	aa35      	add	r2, sp, #212	; 0xd4
 800aed8:	46bb      	mov	fp, r7
 800aeda:	462f      	mov	r7, r5
 800aedc:	e000      	b.n	800aee0 <__kernel_rem_pio2f+0x4d4>
 800aede:	46c8      	mov	r8, r9
 800aee0:	f854 5904 	ldr.w	r5, [r4], #-4
 800aee4:	4641      	mov	r1, r8
 800aee6:	4628      	mov	r0, r5
 800aee8:	9201      	str	r2, [sp, #4]
 800aeea:	9300      	str	r3, [sp, #0]
 800aeec:	f7f9 fe4c 	bl	8004b88 <__addsf3>
 800aef0:	4681      	mov	r9, r0
 800aef2:	4649      	mov	r1, r9
 800aef4:	4628      	mov	r0, r5
 800aef6:	f7f9 fe45 	bl	8004b84 <__aeabi_fsub>
 800aefa:	4641      	mov	r1, r8
 800aefc:	f7f9 fe44 	bl	8004b88 <__addsf3>
 800af00:	9a01      	ldr	r2, [sp, #4]
 800af02:	f8c4 9004 	str.w	r9, [r4, #4]
 800af06:	4294      	cmp	r4, r2
 800af08:	60a0      	str	r0, [r4, #8]
 800af0a:	9b00      	ldr	r3, [sp, #0]
 800af0c:	d1e7      	bne.n	800aede <__kernel_rem_pio2f+0x4d2>
 800af0e:	463d      	mov	r5, r7
 800af10:	2d01      	cmp	r5, #1
 800af12:	465f      	mov	r7, fp
 800af14:	469b      	mov	fp, r3
 800af16:	f340 80ad 	ble.w	800b074 <__kernel_rem_pio2f+0x668>
 800af1a:	ab5e      	add	r3, sp, #376	; 0x178
 800af1c:	449b      	add	fp, r3
 800af1e:	f85b 4ca0 	ldr.w	r4, [fp, #-160]
 800af22:	e000      	b.n	800af26 <__kernel_rem_pio2f+0x51a>
 800af24:	4644      	mov	r4, r8
 800af26:	f85a 9904 	ldr.w	r9, [sl], #-4
 800af2a:	4621      	mov	r1, r4
 800af2c:	4648      	mov	r0, r9
 800af2e:	f7f9 fe2b 	bl	8004b88 <__addsf3>
 800af32:	4680      	mov	r8, r0
 800af34:	4641      	mov	r1, r8
 800af36:	4648      	mov	r0, r9
 800af38:	f7f9 fe24 	bl	8004b84 <__aeabi_fsub>
 800af3c:	4621      	mov	r1, r4
 800af3e:	f7f9 fe23 	bl	8004b88 <__addsf3>
 800af42:	4556      	cmp	r6, sl
 800af44:	f8ca 8004 	str.w	r8, [sl, #4]
 800af48:	f8ca 0008 	str.w	r0, [sl, #8]
 800af4c:	d1ea      	bne.n	800af24 <__kernel_rem_pio2f+0x518>
 800af4e:	1c6c      	adds	r4, r5, #1
 800af50:	eb06 0484 	add.w	r4, r6, r4, lsl #2
 800af54:	2000      	movs	r0, #0
 800af56:	3608      	adds	r6, #8
 800af58:	f854 1d04 	ldr.w	r1, [r4, #-4]!
 800af5c:	f7f9 fe14 	bl	8004b88 <__addsf3>
 800af60:	42b4      	cmp	r4, r6
 800af62:	d1f9      	bne.n	800af58 <__kernel_rem_pio2f+0x54c>
 800af64:	2f00      	cmp	r7, #0
 800af66:	d07e      	beq.n	800b066 <__kernel_rem_pio2f+0x65a>
 800af68:	9a36      	ldr	r2, [sp, #216]	; 0xd8
 800af6a:	9b37      	ldr	r3, [sp, #220]	; 0xdc
 800af6c:	9c09      	ldr	r4, [sp, #36]	; 0x24
 800af6e:	f100 4000 	add.w	r0, r0, #2147483648	; 0x80000000
 800af72:	f102 4200 	add.w	r2, r2, #2147483648	; 0x80000000
 800af76:	f103 4300 	add.w	r3, r3, #2147483648	; 0x80000000
 800af7a:	60a0      	str	r0, [r4, #8]
 800af7c:	6022      	str	r2, [r4, #0]
 800af7e:	6063      	str	r3, [r4, #4]
 800af80:	9a02      	ldr	r2, [sp, #8]
 800af82:	f002 0007 	and.w	r0, r2, #7
 800af86:	b05f      	add	sp, #380	; 0x17c
 800af88:	e8bd 8ff0 	ldmia.w	sp!, {r4, r5, r6, r7, r8, r9, sl, fp, pc}
 800af8c:	2d00      	cmp	r5, #0
 800af8e:	bfb8      	it	lt
 800af90:	2000      	movlt	r0, #0
 800af92:	db0a      	blt.n	800afaa <__kernel_rem_pio2f+0x59e>
 800af94:	ae36      	add	r6, sp, #216	; 0xd8
 800af96:	1c6c      	adds	r4, r5, #1
 800af98:	2000      	movs	r0, #0
 800af9a:	eb06 0484 	add.w	r4, r6, r4, lsl #2
 800af9e:	f854 1d04 	ldr.w	r1, [r4, #-4]!
 800afa2:	f7f9 fdf1 	bl	8004b88 <__addsf3>
 800afa6:	42b4      	cmp	r4, r6
 800afa8:	d1f9      	bne.n	800af9e <__kernel_rem_pio2f+0x592>
 800afaa:	2f00      	cmp	r7, #0
 800afac:	d035      	beq.n	800b01a <__kernel_rem_pio2f+0x60e>
 800afae:	f100 4300 	add.w	r3, r0, #2147483648	; 0x80000000
 800afb2:	9c09      	ldr	r4, [sp, #36]	; 0x24
 800afb4:	4601      	mov	r1, r0
 800afb6:	6023      	str	r3, [r4, #0]
 800afb8:	9836      	ldr	r0, [sp, #216]	; 0xd8
 800afba:	f7f9 fde3 	bl	8004b84 <__aeabi_fsub>
 800afbe:	2d00      	cmp	r5, #0
 800afc0:	dd08      	ble.n	800afd4 <__kernel_rem_pio2f+0x5c8>
 800afc2:	ac36      	add	r4, sp, #216	; 0xd8
 800afc4:	eb04 0585 	add.w	r5, r4, r5, lsl #2
 800afc8:	f854 1f04 	ldr.w	r1, [r4, #4]!
 800afcc:	f7f9 fddc 	bl	8004b88 <__addsf3>
 800afd0:	42ac      	cmp	r4, r5
 800afd2:	d1f9      	bne.n	800afc8 <__kernel_rem_pio2f+0x5bc>
 800afd4:	b10f      	cbz	r7, 800afda <__kernel_rem_pio2f+0x5ce>
 800afd6:	f100 4000 	add.w	r0, r0, #2147483648	; 0x80000000
 800afda:	9a09      	ldr	r2, [sp, #36]	; 0x24
 800afdc:	6050      	str	r0, [r2, #4]
 800afde:	9a02      	ldr	r2, [sp, #8]
 800afe0:	f002 0007 	and.w	r0, r2, #7
 800afe4:	b05f      	add	sp, #380	; 0x17c
 800afe6:	e8bd 8ff0 	ldmia.w	sp!, {r4, r5, r6, r7, r8, r9, sl, fp, pc}
 800afea:	2d00      	cmp	r5, #0
 800afec:	db39      	blt.n	800b062 <__kernel_rem_pio2f+0x656>
 800afee:	1c6c      	adds	r4, r5, #1
 800aff0:	ae36      	add	r6, sp, #216	; 0xd8
 800aff2:	2000      	movs	r0, #0
 800aff4:	eb06 0484 	add.w	r4, r6, r4, lsl #2
 800aff8:	f854 1d04 	ldr.w	r1, [r4, #-4]!
 800affc:	f7f9 fdc4 	bl	8004b88 <__addsf3>
 800b000:	42b4      	cmp	r4, r6
 800b002:	d1f9      	bne.n	800aff8 <__kernel_rem_pio2f+0x5ec>
 800b004:	b10f      	cbz	r7, 800b00a <__kernel_rem_pio2f+0x5fe>
 800b006:	f100 4000 	add.w	r0, r0, #2147483648	; 0x80000000
 800b00a:	9a09      	ldr	r2, [sp, #36]	; 0x24
 800b00c:	6010      	str	r0, [r2, #0]
 800b00e:	9a02      	ldr	r2, [sp, #8]
 800b010:	f002 0007 	and.w	r0, r2, #7
 800b014:	b05f      	add	sp, #380	; 0x17c
 800b016:	e8bd 8ff0 	ldmia.w	sp!, {r4, r5, r6, r7, r8, r9, sl, fp, pc}
 800b01a:	4603      	mov	r3, r0
 800b01c:	e7c9      	b.n	800afb2 <__kernel_rem_pio2f+0x5a6>
 800b01e:	9a06      	ldr	r2, [sp, #24]
 800b020:	ac0e      	add	r4, sp, #56	; 0x38
 800b022:	f854 3025 	ldr.w	r3, [r4, r5, lsl #2]
 800b026:	3a08      	subs	r2, #8
 800b028:	f8cd a008 	str.w	sl, [sp, #8]
 800b02c:	9206      	str	r2, [sp, #24]
 800b02e:	2b00      	cmp	r3, #0
 800b030:	f47f aeb2 	bne.w	800ad98 <__kernel_rem_pio2f+0x38c>
 800b034:	eb04 0385 	add.w	r3, r4, r5, lsl #2
 800b038:	f853 1d04 	ldr.w	r1, [r3, #-4]!
 800b03c:	3d01      	subs	r5, #1
 800b03e:	3a08      	subs	r2, #8
 800b040:	2900      	cmp	r1, #0
 800b042:	d0f9      	beq.n	800b038 <__kernel_rem_pio2f+0x62c>
 800b044:	9206      	str	r2, [sp, #24]
 800b046:	e6a7      	b.n	800ad98 <__kernel_rem_pio2f+0x38c>
 800b048:	2301      	movs	r3, #1
 800b04a:	e614      	b.n	800ac76 <__kernel_rem_pio2f+0x26a>
 800b04c:	9b0b      	ldr	r3, [sp, #44]	; 0x2c
 800b04e:	009c      	lsls	r4, r3, #2
 800b050:	e546      	b.n	800aae0 <__kernel_rem_pio2f+0xd4>
 800b052:	4620      	mov	r0, r4
 800b054:	f7fa f866 	bl	8005124 <__aeabi_f2iz>
 800b058:	aa0e      	add	r2, sp, #56	; 0x38
 800b05a:	464d      	mov	r5, r9
 800b05c:	f842 0029 	str.w	r0, [r2, r9, lsl #2]
 800b060:	e69a      	b.n	800ad98 <__kernel_rem_pio2f+0x38c>
 800b062:	2000      	movs	r0, #0
 800b064:	e7ce      	b.n	800b004 <__kernel_rem_pio2f+0x5f8>
 800b066:	9c09      	ldr	r4, [sp, #36]	; 0x24
 800b068:	9a36      	ldr	r2, [sp, #216]	; 0xd8
 800b06a:	9b37      	ldr	r3, [sp, #220]	; 0xdc
 800b06c:	60a0      	str	r0, [r4, #8]
 800b06e:	6022      	str	r2, [r4, #0]
 800b070:	6063      	str	r3, [r4, #4]
 800b072:	e785      	b.n	800af80 <__kernel_rem_pio2f+0x574>
 800b074:	2000      	movs	r0, #0
 800b076:	e775      	b.n	800af64 <__kernel_rem_pio2f+0x558>
 800b078:	0800fa60 	.word	0x0800fa60

0800b07c <__kernel_sinf>:
 800b07c:	e92d 43f8 	stmdb	sp!, {r3, r4, r5, r6, r7, r8, r9, lr}
 800b080:	f020 4300 	bic.w	r3, r0, #2147483648	; 0x80000000
 800b084:	f1b3 5f48 	cmp.w	r3, #838860800	; 0x32000000
 800b088:	4604      	mov	r4, r0
 800b08a:	460f      	mov	r7, r1
 800b08c:	4690      	mov	r8, r2
 800b08e:	da03      	bge.n	800b098 <__kernel_sinf+0x1c>
 800b090:	f7fa f848 	bl	8005124 <__aeabi_f2iz>
 800b094:	2800      	cmp	r0, #0
 800b096:	d057      	beq.n	800b148 <__kernel_sinf+0xcc>
 800b098:	4621      	mov	r1, r4
 800b09a:	4620      	mov	r0, r4
 800b09c:	f7f9 fe7c 	bl	8004d98 <__aeabi_fmul>
 800b0a0:	4621      	mov	r1, r4
 800b0a2:	4605      	mov	r5, r0
 800b0a4:	f7f9 fe78 	bl	8004d98 <__aeabi_fmul>
 800b0a8:	4929      	ldr	r1, [pc, #164]	; (800b150 <__kernel_sinf+0xd4>)
 800b0aa:	4606      	mov	r6, r0
 800b0ac:	4628      	mov	r0, r5
 800b0ae:	f7f9 fe73 	bl	8004d98 <__aeabi_fmul>
 800b0b2:	4928      	ldr	r1, [pc, #160]	; (800b154 <__kernel_sinf+0xd8>)
 800b0b4:	f7f9 fd66 	bl	8004b84 <__aeabi_fsub>
 800b0b8:	4629      	mov	r1, r5
 800b0ba:	f7f9 fe6d 	bl	8004d98 <__aeabi_fmul>
 800b0be:	4926      	ldr	r1, [pc, #152]	; (800b158 <__kernel_sinf+0xdc>)
 800b0c0:	f7f9 fd62 	bl	8004b88 <__addsf3>
 800b0c4:	4629      	mov	r1, r5
 800b0c6:	f7f9 fe67 	bl	8004d98 <__aeabi_fmul>
 800b0ca:	4924      	ldr	r1, [pc, #144]	; (800b15c <__kernel_sinf+0xe0>)
 800b0cc:	f7f9 fd5a 	bl	8004b84 <__aeabi_fsub>
 800b0d0:	4629      	mov	r1, r5
 800b0d2:	f7f9 fe61 	bl	8004d98 <__aeabi_fmul>
 800b0d6:	4922      	ldr	r1, [pc, #136]	; (800b160 <__kernel_sinf+0xe4>)
 800b0d8:	f7f9 fd56 	bl	8004b88 <__addsf3>
 800b0dc:	4681      	mov	r9, r0
 800b0de:	f1b8 0f00 	cmp.w	r8, #0
 800b0e2:	d022      	beq.n	800b12a <__kernel_sinf+0xae>
 800b0e4:	4638      	mov	r0, r7
 800b0e6:	f04f 517c 	mov.w	r1, #1056964608	; 0x3f000000
 800b0ea:	f7f9 fe55 	bl	8004d98 <__aeabi_fmul>
 800b0ee:	4649      	mov	r1, r9
 800b0f0:	4680      	mov	r8, r0
 800b0f2:	4630      	mov	r0, r6
 800b0f4:	f7f9 fe50 	bl	8004d98 <__aeabi_fmul>
 800b0f8:	4601      	mov	r1, r0
 800b0fa:	4640      	mov	r0, r8
 800b0fc:	f7f9 fd42 	bl	8004b84 <__aeabi_fsub>
 800b100:	4629      	mov	r1, r5
 800b102:	f7f9 fe49 	bl	8004d98 <__aeabi_fmul>
 800b106:	4639      	mov	r1, r7
 800b108:	f7f9 fd3c 	bl	8004b84 <__aeabi_fsub>
 800b10c:	4915      	ldr	r1, [pc, #84]	; (800b164 <__kernel_sinf+0xe8>)
 800b10e:	4605      	mov	r5, r0
 800b110:	4630      	mov	r0, r6
 800b112:	f7f9 fe41 	bl	8004d98 <__aeabi_fmul>
 800b116:	4601      	mov	r1, r0
 800b118:	4628      	mov	r0, r5
 800b11a:	f7f9 fd35 	bl	8004b88 <__addsf3>
 800b11e:	4601      	mov	r1, r0
 800b120:	4620      	mov	r0, r4
 800b122:	f7f9 fd2f 	bl	8004b84 <__aeabi_fsub>
 800b126:	e8bd 83f8 	ldmia.w	sp!, {r3, r4, r5, r6, r7, r8, r9, pc}
 800b12a:	4649      	mov	r1, r9
 800b12c:	4628      	mov	r0, r5
 800b12e:	f7f9 fe33 	bl	8004d98 <__aeabi_fmul>
 800b132:	490c      	ldr	r1, [pc, #48]	; (800b164 <__kernel_sinf+0xe8>)
 800b134:	f7f9 fd26 	bl	8004b84 <__aeabi_fsub>
 800b138:	4631      	mov	r1, r6
 800b13a:	f7f9 fe2d 	bl	8004d98 <__aeabi_fmul>
 800b13e:	4621      	mov	r1, r4
 800b140:	f7f9 fd22 	bl	8004b88 <__addsf3>
 800b144:	e8bd 83f8 	ldmia.w	sp!, {r3, r4, r5, r6, r7, r8, r9, pc}
 800b148:	4620      	mov	r0, r4
 800b14a:	e8bd 83f8 	ldmia.w	sp!, {r3, r4, r5, r6, r7, r8, r9, pc}
 800b14e:	bf00      	nop
 800b150:	2f2ec9d3 	.word	0x2f2ec9d3
 800b154:	32d72f34 	.word	0x32d72f34
 800b158:	3638ef1b 	.word	0x3638ef1b
 800b15c:	39500d01 	.word	0x39500d01
 800b160:	3c088889 	.word	0x3c088889
 800b164:	3e2aaaab 	.word	0x3e2aaaab

0800b168 <matherr>:
 800b168:	2000      	movs	r0, #0
 800b16a:	4770      	bx	lr

0800b16c <atanf>:
 800b16c:	e92d 41f0 	stmdb	sp!, {r4, r5, r6, r7, r8, lr}
 800b170:	f020 4500 	bic.w	r5, r0, #2147483648	; 0x80000000
 800b174:	f1b5 4fa1 	cmp.w	r5, #1350565888	; 0x50800000
 800b178:	4604      	mov	r4, r0
 800b17a:	4606      	mov	r6, r0
 800b17c:	db08      	blt.n	800b190 <atanf+0x24>
 800b17e:	f1b5 4fff 	cmp.w	r5, #2139095040	; 0x7f800000
 800b182:	dc6f      	bgt.n	800b264 <atanf+0xf8>
 800b184:	2800      	cmp	r0, #0
 800b186:	f340 80a0 	ble.w	800b2ca <atanf+0x15e>
 800b18a:	486f      	ldr	r0, [pc, #444]	; (800b348 <atanf+0x1dc>)
 800b18c:	e8bd 81f0 	ldmia.w	sp!, {r4, r5, r6, r7, r8, pc}
 800b190:	4b6e      	ldr	r3, [pc, #440]	; (800b34c <atanf+0x1e0>)
 800b192:	429d      	cmp	r5, r3
 800b194:	dc77      	bgt.n	800b286 <atanf+0x11a>
 800b196:	f1b5 5f44 	cmp.w	r5, #822083584	; 0x31000000
 800b19a:	db68      	blt.n	800b26e <atanf+0x102>
 800b19c:	f04f 37ff 	mov.w	r7, #4294967295
 800b1a0:	4621      	mov	r1, r4
 800b1a2:	4620      	mov	r0, r4
 800b1a4:	f7f9 fdf8 	bl	8004d98 <__aeabi_fmul>
 800b1a8:	4601      	mov	r1, r0
 800b1aa:	4680      	mov	r8, r0
 800b1ac:	f7f9 fdf4 	bl	8004d98 <__aeabi_fmul>
 800b1b0:	4967      	ldr	r1, [pc, #412]	; (800b350 <atanf+0x1e4>)
 800b1b2:	4605      	mov	r5, r0
 800b1b4:	f7f9 fdf0 	bl	8004d98 <__aeabi_fmul>
 800b1b8:	4966      	ldr	r1, [pc, #408]	; (800b354 <atanf+0x1e8>)
 800b1ba:	f7f9 fce5 	bl	8004b88 <__addsf3>
 800b1be:	4629      	mov	r1, r5
 800b1c0:	f7f9 fdea 	bl	8004d98 <__aeabi_fmul>
 800b1c4:	4964      	ldr	r1, [pc, #400]	; (800b358 <atanf+0x1ec>)
 800b1c6:	f7f9 fcdf 	bl	8004b88 <__addsf3>
 800b1ca:	4629      	mov	r1, r5
 800b1cc:	f7f9 fde4 	bl	8004d98 <__aeabi_fmul>
 800b1d0:	4962      	ldr	r1, [pc, #392]	; (800b35c <atanf+0x1f0>)
 800b1d2:	f7f9 fcd9 	bl	8004b88 <__addsf3>
 800b1d6:	4629      	mov	r1, r5
 800b1d8:	f7f9 fdde 	bl	8004d98 <__aeabi_fmul>
 800b1dc:	4960      	ldr	r1, [pc, #384]	; (800b360 <atanf+0x1f4>)
 800b1de:	f7f9 fcd3 	bl	8004b88 <__addsf3>
 800b1e2:	4629      	mov	r1, r5
 800b1e4:	f7f9 fdd8 	bl	8004d98 <__aeabi_fmul>
 800b1e8:	495e      	ldr	r1, [pc, #376]	; (800b364 <atanf+0x1f8>)
 800b1ea:	f7f9 fccd 	bl	8004b88 <__addsf3>
 800b1ee:	4641      	mov	r1, r8
 800b1f0:	f7f9 fdd2 	bl	8004d98 <__aeabi_fmul>
 800b1f4:	495c      	ldr	r1, [pc, #368]	; (800b368 <atanf+0x1fc>)
 800b1f6:	4680      	mov	r8, r0
 800b1f8:	4628      	mov	r0, r5
 800b1fa:	f7f9 fdcd 	bl	8004d98 <__aeabi_fmul>
 800b1fe:	495b      	ldr	r1, [pc, #364]	; (800b36c <atanf+0x200>)
 800b200:	f7f9 fcc0 	bl	8004b84 <__aeabi_fsub>
 800b204:	4629      	mov	r1, r5
 800b206:	f7f9 fdc7 	bl	8004d98 <__aeabi_fmul>
 800b20a:	4959      	ldr	r1, [pc, #356]	; (800b370 <atanf+0x204>)
 800b20c:	f7f9 fcba 	bl	8004b84 <__aeabi_fsub>
 800b210:	4629      	mov	r1, r5
 800b212:	f7f9 fdc1 	bl	8004d98 <__aeabi_fmul>
 800b216:	4957      	ldr	r1, [pc, #348]	; (800b374 <atanf+0x208>)
 800b218:	f7f9 fcb4 	bl	8004b84 <__aeabi_fsub>
 800b21c:	4629      	mov	r1, r5
 800b21e:	f7f9 fdbb 	bl	8004d98 <__aeabi_fmul>
 800b222:	4955      	ldr	r1, [pc, #340]	; (800b378 <atanf+0x20c>)
 800b224:	f7f9 fcae 	bl	8004b84 <__aeabi_fsub>
 800b228:	4629      	mov	r1, r5
 800b22a:	f7f9 fdb5 	bl	8004d98 <__aeabi_fmul>
 800b22e:	1c7b      	adds	r3, r7, #1
 800b230:	4601      	mov	r1, r0
 800b232:	4640      	mov	r0, r8
 800b234:	d04c      	beq.n	800b2d0 <atanf+0x164>
 800b236:	f7f9 fca7 	bl	8004b88 <__addsf3>
 800b23a:	4621      	mov	r1, r4
 800b23c:	f7f9 fdac 	bl	8004d98 <__aeabi_fmul>
 800b240:	4b4e      	ldr	r3, [pc, #312]	; (800b37c <atanf+0x210>)
 800b242:	4d4f      	ldr	r5, [pc, #316]	; (800b380 <atanf+0x214>)
 800b244:	f853 1027 	ldr.w	r1, [r3, r7, lsl #2]
 800b248:	f7f9 fc9c 	bl	8004b84 <__aeabi_fsub>
 800b24c:	4621      	mov	r1, r4
 800b24e:	f7f9 fc99 	bl	8004b84 <__aeabi_fsub>
 800b252:	4601      	mov	r1, r0
 800b254:	f855 0027 	ldr.w	r0, [r5, r7, lsl #2]
 800b258:	f7f9 fc94 	bl	8004b84 <__aeabi_fsub>
 800b25c:	2e00      	cmp	r6, #0
 800b25e:	db30      	blt.n	800b2c2 <atanf+0x156>
 800b260:	e8bd 81f0 	ldmia.w	sp!, {r4, r5, r6, r7, r8, pc}
 800b264:	4601      	mov	r1, r0
 800b266:	f7f9 fc8f 	bl	8004b88 <__addsf3>
 800b26a:	e8bd 81f0 	ldmia.w	sp!, {r4, r5, r6, r7, r8, pc}
 800b26e:	4945      	ldr	r1, [pc, #276]	; (800b384 <atanf+0x218>)
 800b270:	f7f9 fc8a 	bl	8004b88 <__addsf3>
 800b274:	f04f 517e 	mov.w	r1, #1065353216	; 0x3f800000
 800b278:	f7f9 ff4a 	bl	8005110 <__aeabi_fcmpgt>
 800b27c:	2800      	cmp	r0, #0
 800b27e:	d08d      	beq.n	800b19c <atanf+0x30>
 800b280:	4620      	mov	r0, r4
 800b282:	e8bd 81f0 	ldmia.w	sp!, {r4, r5, r6, r7, r8, pc}
 800b286:	f000 f887 	bl	800b398 <fabsf>
 800b28a:	4b3f      	ldr	r3, [pc, #252]	; (800b388 <atanf+0x21c>)
 800b28c:	4604      	mov	r4, r0
 800b28e:	429d      	cmp	r5, r3
 800b290:	dc29      	bgt.n	800b2e6 <atanf+0x17a>
 800b292:	f5a3 03d0 	sub.w	r3, r3, #6815744	; 0x680000
 800b296:	429d      	cmp	r5, r3
 800b298:	dc44      	bgt.n	800b324 <atanf+0x1b8>
 800b29a:	4601      	mov	r1, r0
 800b29c:	f7f9 fc74 	bl	8004b88 <__addsf3>
 800b2a0:	f04f 517e 	mov.w	r1, #1065353216	; 0x3f800000
 800b2a4:	f7f9 fc6e 	bl	8004b84 <__aeabi_fsub>
 800b2a8:	f04f 4180 	mov.w	r1, #1073741824	; 0x40000000
 800b2ac:	4605      	mov	r5, r0
 800b2ae:	4620      	mov	r0, r4
 800b2b0:	f7f9 fc6a 	bl	8004b88 <__addsf3>
 800b2b4:	4601      	mov	r1, r0
 800b2b6:	4628      	mov	r0, r5
 800b2b8:	f7f9 fe22 	bl	8004f00 <__aeabi_fdiv>
 800b2bc:	2700      	movs	r7, #0
 800b2be:	4604      	mov	r4, r0
 800b2c0:	e76e      	b.n	800b1a0 <atanf+0x34>
 800b2c2:	f100 4000 	add.w	r0, r0, #2147483648	; 0x80000000
 800b2c6:	e8bd 81f0 	ldmia.w	sp!, {r4, r5, r6, r7, r8, pc}
 800b2ca:	4830      	ldr	r0, [pc, #192]	; (800b38c <atanf+0x220>)
 800b2cc:	e8bd 81f0 	ldmia.w	sp!, {r4, r5, r6, r7, r8, pc}
 800b2d0:	f7f9 fc5a 	bl	8004b88 <__addsf3>
 800b2d4:	4621      	mov	r1, r4
 800b2d6:	f7f9 fd5f 	bl	8004d98 <__aeabi_fmul>
 800b2da:	4601      	mov	r1, r0
 800b2dc:	4620      	mov	r0, r4
 800b2de:	f7f9 fc51 	bl	8004b84 <__aeabi_fsub>
 800b2e2:	e8bd 81f0 	ldmia.w	sp!, {r4, r5, r6, r7, r8, pc}
 800b2e6:	4b2a      	ldr	r3, [pc, #168]	; (800b390 <atanf+0x224>)
 800b2e8:	429d      	cmp	r5, r3
 800b2ea:	dc14      	bgt.n	800b316 <atanf+0x1aa>
 800b2ec:	f04f 517f 	mov.w	r1, #1069547520	; 0x3fc00000
 800b2f0:	f7f9 fc48 	bl	8004b84 <__aeabi_fsub>
 800b2f4:	f04f 517f 	mov.w	r1, #1069547520	; 0x3fc00000
 800b2f8:	4605      	mov	r5, r0
 800b2fa:	4620      	mov	r0, r4
 800b2fc:	f7f9 fd4c 	bl	8004d98 <__aeabi_fmul>
 800b300:	f04f 517e 	mov.w	r1, #1065353216	; 0x3f800000
 800b304:	f7f9 fc40 	bl	8004b88 <__addsf3>
 800b308:	4601      	mov	r1, r0
 800b30a:	4628      	mov	r0, r5
 800b30c:	f7f9 fdf8 	bl	8004f00 <__aeabi_fdiv>
 800b310:	2702      	movs	r7, #2
 800b312:	4604      	mov	r4, r0
 800b314:	e744      	b.n	800b1a0 <atanf+0x34>
 800b316:	4601      	mov	r1, r0
 800b318:	481e      	ldr	r0, [pc, #120]	; (800b394 <atanf+0x228>)
 800b31a:	f7f9 fdf1 	bl	8004f00 <__aeabi_fdiv>
 800b31e:	2703      	movs	r7, #3
 800b320:	4604      	mov	r4, r0
 800b322:	e73d      	b.n	800b1a0 <atanf+0x34>
 800b324:	f04f 517e 	mov.w	r1, #1065353216	; 0x3f800000
 800b328:	f7f9 fc2c 	bl	8004b84 <__aeabi_fsub>
 800b32c:	f04f 517e 	mov.w	r1, #1065353216	; 0x3f800000
 800b330:	4605      	mov	r5, r0
 800b332:	4620      	mov	r0, r4
 800b334:	f7f9 fc28 	bl	8004b88 <__addsf3>
 800b338:	4601      	mov	r1, r0
 800b33a:	4628      	mov	r0, r5
 800b33c:	f7f9 fde0 	bl	8004f00 <__aeabi_fdiv>
 800b340:	2701      	movs	r7, #1
 800b342:	4604      	mov	r4, r0
 800b344:	e72c      	b.n	800b1a0 <atanf+0x34>
 800b346:	bf00      	nop
 800b348:	3fc90fdb 	.word	0x3fc90fdb
 800b34c:	3edfffff 	.word	0x3edfffff
 800b350:	3c8569d7 	.word	0x3c8569d7
 800b354:	3d4bda59 	.word	0x3d4bda59
 800b358:	3d886b35 	.word	0x3d886b35
 800b35c:	3dba2e6e 	.word	0x3dba2e6e
 800b360:	3e124925 	.word	0x3e124925
 800b364:	3eaaaaab 	.word	0x3eaaaaab
 800b368:	bd15a221 	.word	0xbd15a221
 800b36c:	3d6ef16b 	.word	0x3d6ef16b
 800b370:	3d9d8795 	.word	0x3d9d8795
 800b374:	3de38e38 	.word	0x3de38e38
 800b378:	3e4ccccd 	.word	0x3e4ccccd
 800b37c:	0800fa8c 	.word	0x0800fa8c
 800b380:	0800fa9c 	.word	0x0800fa9c
 800b384:	7149f2ca 	.word	0x7149f2ca
 800b388:	3f97ffff 	.word	0x3f97ffff
 800b38c:	bfc90fdb 	.word	0xbfc90fdb
 800b390:	401bffff 	.word	0x401bffff
 800b394:	bf800000 	.word	0xbf800000

0800b398 <fabsf>:
 800b398:	f020 4000 	bic.w	r0, r0, #2147483648	; 0x80000000
 800b39c:	4770      	bx	lr
 800b39e:	bf00      	nop

0800b3a0 <floorf>:
 800b3a0:	e92d 41f0 	stmdb	sp!, {r4, r5, r6, r7, r8, lr}
 800b3a4:	f020 4700 	bic.w	r7, r0, #2147483648	; 0x80000000
 800b3a8:	0dfd      	lsrs	r5, r7, #23
 800b3aa:	3d7f      	subs	r5, #127	; 0x7f
 800b3ac:	2d16      	cmp	r5, #22
 800b3ae:	4606      	mov	r6, r0
 800b3b0:	dc13      	bgt.n	800b3da <floorf+0x3a>
 800b3b2:	2d00      	cmp	r5, #0
 800b3b4:	4680      	mov	r8, r0
 800b3b6:	db1b      	blt.n	800b3f0 <floorf+0x50>
 800b3b8:	4f19      	ldr	r7, [pc, #100]	; (800b420 <floorf+0x80>)
 800b3ba:	412f      	asrs	r7, r5
 800b3bc:	4207      	tst	r7, r0
 800b3be:	d014      	beq.n	800b3ea <floorf+0x4a>
 800b3c0:	4918      	ldr	r1, [pc, #96]	; (800b424 <floorf+0x84>)
 800b3c2:	f7f9 fbe1 	bl	8004b88 <__addsf3>
 800b3c6:	2100      	movs	r1, #0
 800b3c8:	f7f9 fea2 	bl	8005110 <__aeabi_fcmpgt>
 800b3cc:	b168      	cbz	r0, 800b3ea <floorf+0x4a>
 800b3ce:	2e00      	cmp	r6, #0
 800b3d0:	db1b      	blt.n	800b40a <floorf+0x6a>
 800b3d2:	ea28 0007 	bic.w	r0, r8, r7
 800b3d6:	e8bd 81f0 	ldmia.w	sp!, {r4, r5, r6, r7, r8, pc}
 800b3da:	f1b7 4fff 	cmp.w	r7, #2139095040	; 0x7f800000
 800b3de:	d304      	bcc.n	800b3ea <floorf+0x4a>
 800b3e0:	4601      	mov	r1, r0
 800b3e2:	f7f9 fbd1 	bl	8004b88 <__addsf3>
 800b3e6:	e8bd 81f0 	ldmia.w	sp!, {r4, r5, r6, r7, r8, pc}
 800b3ea:	4630      	mov	r0, r6
 800b3ec:	e8bd 81f0 	ldmia.w	sp!, {r4, r5, r6, r7, r8, pc}
 800b3f0:	490c      	ldr	r1, [pc, #48]	; (800b424 <floorf+0x84>)
 800b3f2:	f7f9 fbc9 	bl	8004b88 <__addsf3>
 800b3f6:	2100      	movs	r1, #0
 800b3f8:	f7f9 fe8a 	bl	8005110 <__aeabi_fcmpgt>
 800b3fc:	2800      	cmp	r0, #0
 800b3fe:	d0f4      	beq.n	800b3ea <floorf+0x4a>
 800b400:	2e00      	cmp	r6, #0
 800b402:	db08      	blt.n	800b416 <floorf+0x76>
 800b404:	2000      	movs	r0, #0
 800b406:	e8bd 81f0 	ldmia.w	sp!, {r4, r5, r6, r7, r8, pc}
 800b40a:	f44f 0300 	mov.w	r3, #8388608	; 0x800000
 800b40e:	fa43 f505 	asr.w	r5, r3, r5
 800b412:	44a8      	add	r8, r5
 800b414:	e7dd      	b.n	800b3d2 <floorf+0x32>
 800b416:	2f00      	cmp	r7, #0
 800b418:	d0e7      	beq.n	800b3ea <floorf+0x4a>
 800b41a:	4803      	ldr	r0, [pc, #12]	; (800b428 <floorf+0x88>)
 800b41c:	e8bd 81f0 	ldmia.w	sp!, {r4, r5, r6, r7, r8, pc}
 800b420:	007fffff 	.word	0x007fffff
 800b424:	7149f2ca 	.word	0x7149f2ca
 800b428:	bf800000 	.word	0xbf800000

0800b42c <__fpclassifyf>:
 800b42c:	f030 4000 	bics.w	r0, r0, #2147483648	; 0x80000000
 800b430:	d101      	bne.n	800b436 <__fpclassifyf+0xa>
 800b432:	2002      	movs	r0, #2
 800b434:	4770      	bx	lr
 800b436:	f5a0 0300 	sub.w	r3, r0, #8388608	; 0x800000
 800b43a:	f1b3 4ffe 	cmp.w	r3, #2130706432	; 0x7f000000
 800b43e:	d201      	bcs.n	800b444 <__fpclassifyf+0x18>
 800b440:	2004      	movs	r0, #4
 800b442:	4770      	bx	lr
 800b444:	4b05      	ldr	r3, [pc, #20]	; (800b45c <__fpclassifyf+0x30>)
 800b446:	1e42      	subs	r2, r0, #1
 800b448:	429a      	cmp	r2, r3
 800b44a:	d801      	bhi.n	800b450 <__fpclassifyf+0x24>
 800b44c:	2003      	movs	r0, #3
 800b44e:	4770      	bx	lr
 800b450:	f1b0 43ff 	subs.w	r3, r0, #2139095040	; 0x7f800000
 800b454:	4258      	negs	r0, r3
 800b456:	4158      	adcs	r0, r3
 800b458:	4770      	bx	lr
 800b45a:	bf00      	nop
 800b45c:	007ffffe 	.word	0x007ffffe

0800b460 <scalbnf>:
 800b460:	b538      	push	{r3, r4, r5, lr}
 800b462:	f030 4400 	bics.w	r4, r0, #2147483648	; 0x80000000
 800b466:	4602      	mov	r2, r0
 800b468:	4603      	mov	r3, r0
 800b46a:	460d      	mov	r5, r1
 800b46c:	d014      	beq.n	800b498 <scalbnf+0x38>
 800b46e:	f1b4 4fff 	cmp.w	r4, #2139095040	; 0x7f800000
 800b472:	d20d      	bcs.n	800b490 <scalbnf+0x30>
 800b474:	f5b4 0f00 	cmp.w	r4, #8388608	; 0x800000
 800b478:	d30f      	bcc.n	800b49a <scalbnf+0x3a>
 800b47a:	0de4      	lsrs	r4, r4, #23
 800b47c:	442c      	add	r4, r5
 800b47e:	2cfe      	cmp	r4, #254	; 0xfe
 800b480:	dc2e      	bgt.n	800b4e0 <scalbnf+0x80>
 800b482:	2c00      	cmp	r4, #0
 800b484:	dd1d      	ble.n	800b4c2 <scalbnf+0x62>
 800b486:	f023 43ff 	bic.w	r3, r3, #2139095040	; 0x7f800000
 800b48a:	ea43 50c4 	orr.w	r0, r3, r4, lsl #23
 800b48e:	bd38      	pop	{r3, r4, r5, pc}
 800b490:	4601      	mov	r1, r0
 800b492:	f7f9 fb79 	bl	8004b88 <__addsf3>
 800b496:	bd38      	pop	{r3, r4, r5, pc}
 800b498:	bd38      	pop	{r3, r4, r5, pc}
 800b49a:	f04f 4198 	mov.w	r1, #1275068416	; 0x4c000000
 800b49e:	f7f9 fc7b 	bl	8004d98 <__aeabi_fmul>
 800b4a2:	4b19      	ldr	r3, [pc, #100]	; (800b508 <scalbnf+0xa8>)
 800b4a4:	4602      	mov	r2, r0
 800b4a6:	429d      	cmp	r5, r3
 800b4a8:	db07      	blt.n	800b4ba <scalbnf+0x5a>
 800b4aa:	f3c0 54c7 	ubfx	r4, r0, #23, #8
 800b4ae:	4603      	mov	r3, r0
 800b4b0:	3c19      	subs	r4, #25
 800b4b2:	e7e3      	b.n	800b47c <scalbnf+0x1c>
 800b4b4:	4815      	ldr	r0, [pc, #84]	; (800b50c <scalbnf+0xac>)
 800b4b6:	f000 f82d 	bl	800b514 <copysignf>
 800b4ba:	4914      	ldr	r1, [pc, #80]	; (800b50c <scalbnf+0xac>)
 800b4bc:	f7f9 fc6c 	bl	8004d98 <__aeabi_fmul>
 800b4c0:	bd38      	pop	{r3, r4, r5, pc}
 800b4c2:	f114 0f16 	cmn.w	r4, #22
 800b4c6:	da13      	bge.n	800b4f0 <scalbnf+0x90>
 800b4c8:	f24c 3350 	movw	r3, #50000	; 0xc350
 800b4cc:	429d      	cmp	r5, r3
 800b4ce:	4611      	mov	r1, r2
 800b4d0:	ddf0      	ble.n	800b4b4 <scalbnf+0x54>
 800b4d2:	480f      	ldr	r0, [pc, #60]	; (800b510 <scalbnf+0xb0>)
 800b4d4:	f000 f81e 	bl	800b514 <copysignf>
 800b4d8:	490d      	ldr	r1, [pc, #52]	; (800b510 <scalbnf+0xb0>)
 800b4da:	f7f9 fc5d 	bl	8004d98 <__aeabi_fmul>
 800b4de:	bd38      	pop	{r3, r4, r5, pc}
 800b4e0:	4611      	mov	r1, r2
 800b4e2:	480b      	ldr	r0, [pc, #44]	; (800b510 <scalbnf+0xb0>)
 800b4e4:	f000 f816 	bl	800b514 <copysignf>
 800b4e8:	4909      	ldr	r1, [pc, #36]	; (800b510 <scalbnf+0xb0>)
 800b4ea:	f7f9 fc55 	bl	8004d98 <__aeabi_fmul>
 800b4ee:	bd38      	pop	{r3, r4, r5, pc}
 800b4f0:	f104 0019 	add.w	r0, r4, #25
 800b4f4:	f023 43ff 	bic.w	r3, r3, #2139095040	; 0x7f800000
 800b4f8:	ea43 50c0 	orr.w	r0, r3, r0, lsl #23
 800b4fc:	f04f 514c 	mov.w	r1, #855638016	; 0x33000000
 800b500:	f7f9 fc4a 	bl	8004d98 <__aeabi_fmul>
 800b504:	bd38      	pop	{r3, r4, r5, pc}
 800b506:	bf00      	nop
 800b508:	ffff3cb0 	.word	0xffff3cb0
 800b50c:	0da24260 	.word	0x0da24260
 800b510:	7149f2ca 	.word	0x7149f2ca

0800b514 <copysignf>:
 800b514:	f001 4100 	and.w	r1, r1, #2147483648	; 0x80000000
 800b518:	f020 4000 	bic.w	r0, r0, #2147483648	; 0x80000000
 800b51c:	4308      	orrs	r0, r1
 800b51e:	4770      	bx	lr

0800b520 <__errno>:
 800b520:	4b01      	ldr	r3, [pc, #4]	; (800b528 <__errno+0x8>)
 800b522:	6818      	ldr	r0, [r3, #0]
 800b524:	4770      	bx	lr
 800b526:	bf00      	nop
 800b528:	20000568 	.word	0x20000568

0800b52c <__libc_init_array>:
 800b52c:	b570      	push	{r4, r5, r6, lr}
 800b52e:	4e0f      	ldr	r6, [pc, #60]	; (800b56c <__libc_init_array+0x40>)
 800b530:	4d0f      	ldr	r5, [pc, #60]	; (800b570 <__libc_init_array+0x44>)
 800b532:	1b76      	subs	r6, r6, r5
 800b534:	10b6      	asrs	r6, r6, #2
 800b536:	d007      	beq.n	800b548 <__libc_init_array+0x1c>
 800b538:	3d04      	subs	r5, #4
 800b53a:	2400      	movs	r4, #0
 800b53c:	3401      	adds	r4, #1
 800b53e:	f855 3f04 	ldr.w	r3, [r5, #4]!
 800b542:	4798      	blx	r3
 800b544:	42a6      	cmp	r6, r4
 800b546:	d1f9      	bne.n	800b53c <__libc_init_array+0x10>
 800b548:	4e0a      	ldr	r6, [pc, #40]	; (800b574 <__libc_init_array+0x48>)
 800b54a:	4d0b      	ldr	r5, [pc, #44]	; (800b578 <__libc_init_array+0x4c>)
 800b54c:	f7fc fc38 	bl	8007dc0 <_init>
 800b550:	1b76      	subs	r6, r6, r5
 800b552:	10b6      	asrs	r6, r6, #2
 800b554:	d008      	beq.n	800b568 <__libc_init_array+0x3c>
 800b556:	3d04      	subs	r5, #4
 800b558:	2400      	movs	r4, #0
 800b55a:	3401      	adds	r4, #1
 800b55c:	f855 3f04 	ldr.w	r3, [r5, #4]!
 800b560:	4798      	blx	r3
 800b562:	42a6      	cmp	r6, r4
 800b564:	d1f9      	bne.n	800b55a <__libc_init_array+0x2e>
 800b566:	bd70      	pop	{r4, r5, r6, pc}
 800b568:	bd70      	pop	{r4, r5, r6, pc}
 800b56a:	bf00      	nop
 800b56c:	0800fc34 	.word	0x0800fc34
 800b570:	0800fc34 	.word	0x0800fc34
 800b574:	0800fc34 	.word	0x0800fc34
 800b578:	0800fc34 	.word	0x0800fc34

0800b57c <strlen>:
 800b57c:	f020 0103 	bic.w	r1, r0, #3
 800b580:	f010 0003 	ands.w	r0, r0, #3
 800b584:	f1c0 0000 	rsb	r0, r0, #0
 800b588:	f851 3b04 	ldr.w	r3, [r1], #4
 800b58c:	f100 0c04 	add.w	ip, r0, #4
 800b590:	ea4f 0ccc 	mov.w	ip, ip, lsl #3
 800b594:	f06f 0200 	mvn.w	r2, #0
 800b598:	bf1c      	itt	ne
 800b59a:	fa22 f20c 	lsrne.w	r2, r2, ip
 800b59e:	4313      	orrne	r3, r2
 800b5a0:	f04f 0c01 	mov.w	ip, #1
 800b5a4:	ea4c 2c0c 	orr.w	ip, ip, ip, lsl #8
 800b5a8:	ea4c 4c0c 	orr.w	ip, ip, ip, lsl #16
 800b5ac:	eba3 020c 	sub.w	r2, r3, ip
 800b5b0:	ea22 0203 	bic.w	r2, r2, r3
 800b5b4:	ea12 12cc 	ands.w	r2, r2, ip, lsl #7
 800b5b8:	bf04      	itt	eq
 800b5ba:	f851 3b04 	ldreq.w	r3, [r1], #4
 800b5be:	3004      	addeq	r0, #4
 800b5c0:	d0f4      	beq.n	800b5ac <strlen+0x30>
 800b5c2:	f013 0fff 	tst.w	r3, #255	; 0xff
 800b5c6:	bf1f      	itttt	ne
 800b5c8:	3001      	addne	r0, #1
 800b5ca:	f413 4f7f 	tstne.w	r3, #65280	; 0xff00
 800b5ce:	3001      	addne	r0, #1
 800b5d0:	f413 0f7f 	tstne.w	r3, #16711680	; 0xff0000
 800b5d4:	bf18      	it	ne
 800b5d6:	3001      	addne	r0, #1
 800b5d8:	4770      	bx	lr
 800b5da:	bf00      	nop

0800b5dc <_vsnprintf_r>:
 800b5dc:	b5f0      	push	{r4, r5, r6, r7, lr}
 800b5de:	1e14      	subs	r4, r2, #0
 800b5e0:	b09b      	sub	sp, #108	; 0x6c
 800b5e2:	4606      	mov	r6, r0
 800b5e4:	db1e      	blt.n	800b624 <_vsnprintf_r+0x48>
 800b5e6:	f44f 7202 	mov.w	r2, #520	; 0x208
 800b5ea:	bf14      	ite	ne
 800b5ec:	f104 35ff 	addne.w	r5, r4, #4294967295
 800b5f0:	4625      	moveq	r5, r4
 800b5f2:	9100      	str	r1, [sp, #0]
 800b5f4:	9104      	str	r1, [sp, #16]
 800b5f6:	f8ad 200c 	strh.w	r2, [sp, #12]
 800b5fa:	f64f 77ff 	movw	r7, #65535	; 0xffff
 800b5fe:	461a      	mov	r2, r3
 800b600:	4669      	mov	r1, sp
 800b602:	9b20      	ldr	r3, [sp, #128]	; 0x80
 800b604:	9502      	str	r5, [sp, #8]
 800b606:	9505      	str	r5, [sp, #20]
 800b608:	f8ad 700e 	strh.w	r7, [sp, #14]
 800b60c:	f000 fbee 	bl	800bdec <_svfprintf_r>
 800b610:	1c43      	adds	r3, r0, #1
 800b612:	bfbc      	itt	lt
 800b614:	228b      	movlt	r2, #139	; 0x8b
 800b616:	6032      	strlt	r2, [r6, #0]
 800b618:	b114      	cbz	r4, 800b620 <_vsnprintf_r+0x44>
 800b61a:	9a00      	ldr	r2, [sp, #0]
 800b61c:	2100      	movs	r1, #0
 800b61e:	7011      	strb	r1, [r2, #0]
 800b620:	b01b      	add	sp, #108	; 0x6c
 800b622:	bdf0      	pop	{r4, r5, r6, r7, pc}
 800b624:	238b      	movs	r3, #139	; 0x8b
 800b626:	6003      	str	r3, [r0, #0]
 800b628:	f04f 30ff 	mov.w	r0, #4294967295
 800b62c:	e7f8      	b.n	800b620 <_vsnprintf_r+0x44>
 800b62e:	bf00      	nop

0800b630 <vsnprintf>:
 800b630:	b570      	push	{r4, r5, r6, lr}
 800b632:	4c07      	ldr	r4, [pc, #28]	; (800b650 <vsnprintf+0x20>)
 800b634:	b082      	sub	sp, #8
 800b636:	4606      	mov	r6, r0
 800b638:	460d      	mov	r5, r1
 800b63a:	6820      	ldr	r0, [r4, #0]
 800b63c:	4614      	mov	r4, r2
 800b63e:	9300      	str	r3, [sp, #0]
 800b640:	4631      	mov	r1, r6
 800b642:	462a      	mov	r2, r5
 800b644:	4623      	mov	r3, r4
 800b646:	f7ff ffc9 	bl	800b5dc <_vsnprintf_r>
 800b64a:	b002      	add	sp, #8
 800b64c:	bd70      	pop	{r4, r5, r6, pc}
 800b64e:	bf00      	nop
 800b650:	20000568 	.word	0x20000568

0800b654 <_malloc_trim_r>:
 800b654:	b5f8      	push	{r3, r4, r5, r6, r7, lr}
 800b656:	4d23      	ldr	r5, [pc, #140]	; (800b6e4 <_malloc_trim_r+0x90>)
 800b658:	460f      	mov	r7, r1
 800b65a:	4604      	mov	r4, r0
 800b65c:	f000 fbb0 	bl	800bdc0 <__malloc_lock>
 800b660:	68ab      	ldr	r3, [r5, #8]
 800b662:	685e      	ldr	r6, [r3, #4]
 800b664:	f026 0603 	bic.w	r6, r6, #3
 800b668:	1bf1      	subs	r1, r6, r7
 800b66a:	f601 71ef 	addw	r1, r1, #4079	; 0xfef
 800b66e:	f421 617f 	bic.w	r1, r1, #4080	; 0xff0
 800b672:	f021 010f 	bic.w	r1, r1, #15
 800b676:	f5a1 5780 	sub.w	r7, r1, #4096	; 0x1000
 800b67a:	f5b7 5f80 	cmp.w	r7, #4096	; 0x1000
 800b67e:	db07      	blt.n	800b690 <_malloc_trim_r+0x3c>
 800b680:	4620      	mov	r0, r4
 800b682:	2100      	movs	r1, #0
 800b684:	f000 fba0 	bl	800bdc8 <_sbrk_r>
 800b688:	68ab      	ldr	r3, [r5, #8]
 800b68a:	4433      	add	r3, r6
 800b68c:	4298      	cmp	r0, r3
 800b68e:	d004      	beq.n	800b69a <_malloc_trim_r+0x46>
 800b690:	4620      	mov	r0, r4
 800b692:	f000 fb97 	bl	800bdc4 <__malloc_unlock>
 800b696:	2000      	movs	r0, #0
 800b698:	bdf8      	pop	{r3, r4, r5, r6, r7, pc}
 800b69a:	4620      	mov	r0, r4
 800b69c:	4279      	negs	r1, r7
 800b69e:	f000 fb93 	bl	800bdc8 <_sbrk_r>
 800b6a2:	3001      	adds	r0, #1
 800b6a4:	d00d      	beq.n	800b6c2 <_malloc_trim_r+0x6e>
 800b6a6:	4b10      	ldr	r3, [pc, #64]	; (800b6e8 <_malloc_trim_r+0x94>)
 800b6a8:	68aa      	ldr	r2, [r5, #8]
 800b6aa:	6819      	ldr	r1, [r3, #0]
 800b6ac:	1bf6      	subs	r6, r6, r7
 800b6ae:	f046 0601 	orr.w	r6, r6, #1
 800b6b2:	4620      	mov	r0, r4
 800b6b4:	1bc9      	subs	r1, r1, r7
 800b6b6:	6056      	str	r6, [r2, #4]
 800b6b8:	6019      	str	r1, [r3, #0]
 800b6ba:	f000 fb83 	bl	800bdc4 <__malloc_unlock>
 800b6be:	2001      	movs	r0, #1
 800b6c0:	bdf8      	pop	{r3, r4, r5, r6, r7, pc}
 800b6c2:	4620      	mov	r0, r4
 800b6c4:	2100      	movs	r1, #0
 800b6c6:	f000 fb7f 	bl	800bdc8 <_sbrk_r>
 800b6ca:	68ab      	ldr	r3, [r5, #8]
 800b6cc:	1ac2      	subs	r2, r0, r3
 800b6ce:	2a0f      	cmp	r2, #15
 800b6d0:	ddde      	ble.n	800b690 <_malloc_trim_r+0x3c>
 800b6d2:	4d06      	ldr	r5, [pc, #24]	; (800b6ec <_malloc_trim_r+0x98>)
 800b6d4:	4904      	ldr	r1, [pc, #16]	; (800b6e8 <_malloc_trim_r+0x94>)
 800b6d6:	682d      	ldr	r5, [r5, #0]
 800b6d8:	f042 0201 	orr.w	r2, r2, #1
 800b6dc:	1b40      	subs	r0, r0, r5
 800b6de:	605a      	str	r2, [r3, #4]
 800b6e0:	6008      	str	r0, [r1, #0]
 800b6e2:	e7d5      	b.n	800b690 <_malloc_trim_r+0x3c>
 800b6e4:	2000056c 	.word	0x2000056c
 800b6e8:	20000ef0 	.word	0x20000ef0
 800b6ec:	20000978 	.word	0x20000978

0800b6f0 <_free_r>:
 800b6f0:	e92d 41f0 	stmdb	sp!, {r4, r5, r6, r7, r8, lr}
 800b6f4:	460d      	mov	r5, r1
 800b6f6:	4606      	mov	r6, r0
 800b6f8:	2900      	cmp	r1, #0
 800b6fa:	d055      	beq.n	800b7a8 <_free_r+0xb8>
 800b6fc:	f000 fb60 	bl	800bdc0 <__malloc_lock>
 800b700:	f855 1c04 	ldr.w	r1, [r5, #-4]
 800b704:	f8df c170 	ldr.w	ip, [pc, #368]	; 800b878 <_free_r+0x188>
 800b708:	f1a5 0408 	sub.w	r4, r5, #8
 800b70c:	f021 0301 	bic.w	r3, r1, #1
 800b710:	18e2      	adds	r2, r4, r3
 800b712:	f8dc 0008 	ldr.w	r0, [ip, #8]
 800b716:	6857      	ldr	r7, [r2, #4]
 800b718:	4290      	cmp	r0, r2
 800b71a:	f027 0703 	bic.w	r7, r7, #3
 800b71e:	d068      	beq.n	800b7f2 <_free_r+0x102>
 800b720:	f011 0101 	ands.w	r1, r1, #1
 800b724:	6057      	str	r7, [r2, #4]
 800b726:	d032      	beq.n	800b78e <_free_r+0x9e>
 800b728:	2100      	movs	r1, #0
 800b72a:	19d0      	adds	r0, r2, r7
 800b72c:	6840      	ldr	r0, [r0, #4]
 800b72e:	07c0      	lsls	r0, r0, #31
 800b730:	d406      	bmi.n	800b740 <_free_r+0x50>
 800b732:	443b      	add	r3, r7
 800b734:	6890      	ldr	r0, [r2, #8]
 800b736:	2900      	cmp	r1, #0
 800b738:	d04d      	beq.n	800b7d6 <_free_r+0xe6>
 800b73a:	68d2      	ldr	r2, [r2, #12]
 800b73c:	60c2      	str	r2, [r0, #12]
 800b73e:	6090      	str	r0, [r2, #8]
 800b740:	f043 0201 	orr.w	r2, r3, #1
 800b744:	6062      	str	r2, [r4, #4]
 800b746:	50e3      	str	r3, [r4, r3]
 800b748:	b9e1      	cbnz	r1, 800b784 <_free_r+0x94>
 800b74a:	f5b3 7f00 	cmp.w	r3, #512	; 0x200
 800b74e:	d32d      	bcc.n	800b7ac <_free_r+0xbc>
 800b750:	0a5a      	lsrs	r2, r3, #9
 800b752:	2a04      	cmp	r2, #4
 800b754:	d869      	bhi.n	800b82a <_free_r+0x13a>
 800b756:	0998      	lsrs	r0, r3, #6
 800b758:	3038      	adds	r0, #56	; 0x38
 800b75a:	0041      	lsls	r1, r0, #1
 800b75c:	eb0c 0c81 	add.w	ip, ip, r1, lsl #2
 800b760:	f8dc 2008 	ldr.w	r2, [ip, #8]
 800b764:	4944      	ldr	r1, [pc, #272]	; (800b878 <_free_r+0x188>)
 800b766:	4562      	cmp	r2, ip
 800b768:	d065      	beq.n	800b836 <_free_r+0x146>
 800b76a:	6851      	ldr	r1, [r2, #4]
 800b76c:	f021 0103 	bic.w	r1, r1, #3
 800b770:	428b      	cmp	r3, r1
 800b772:	d202      	bcs.n	800b77a <_free_r+0x8a>
 800b774:	6892      	ldr	r2, [r2, #8]
 800b776:	4594      	cmp	ip, r2
 800b778:	d1f7      	bne.n	800b76a <_free_r+0x7a>
 800b77a:	68d3      	ldr	r3, [r2, #12]
 800b77c:	60e3      	str	r3, [r4, #12]
 800b77e:	60a2      	str	r2, [r4, #8]
 800b780:	609c      	str	r4, [r3, #8]
 800b782:	60d4      	str	r4, [r2, #12]
 800b784:	4630      	mov	r0, r6
 800b786:	e8bd 41f0 	ldmia.w	sp!, {r4, r5, r6, r7, r8, lr}
 800b78a:	f000 bb1b 	b.w	800bdc4 <__malloc_unlock>
 800b78e:	f855 5c08 	ldr.w	r5, [r5, #-8]
 800b792:	f10c 0808 	add.w	r8, ip, #8
 800b796:	1b64      	subs	r4, r4, r5
 800b798:	68a0      	ldr	r0, [r4, #8]
 800b79a:	442b      	add	r3, r5
 800b79c:	4540      	cmp	r0, r8
 800b79e:	d042      	beq.n	800b826 <_free_r+0x136>
 800b7a0:	68e5      	ldr	r5, [r4, #12]
 800b7a2:	60c5      	str	r5, [r0, #12]
 800b7a4:	60a8      	str	r0, [r5, #8]
 800b7a6:	e7c0      	b.n	800b72a <_free_r+0x3a>
 800b7a8:	e8bd 81f0 	ldmia.w	sp!, {r4, r5, r6, r7, r8, pc}
 800b7ac:	08db      	lsrs	r3, r3, #3
 800b7ae:	109a      	asrs	r2, r3, #2
 800b7b0:	2001      	movs	r0, #1
 800b7b2:	4090      	lsls	r0, r2
 800b7b4:	f8dc 1004 	ldr.w	r1, [ip, #4]
 800b7b8:	eb0c 03c3 	add.w	r3, ip, r3, lsl #3
 800b7bc:	689a      	ldr	r2, [r3, #8]
 800b7be:	4301      	orrs	r1, r0
 800b7c0:	60a2      	str	r2, [r4, #8]
 800b7c2:	60e3      	str	r3, [r4, #12]
 800b7c4:	f8cc 1004 	str.w	r1, [ip, #4]
 800b7c8:	4630      	mov	r0, r6
 800b7ca:	609c      	str	r4, [r3, #8]
 800b7cc:	60d4      	str	r4, [r2, #12]
 800b7ce:	e8bd 41f0 	ldmia.w	sp!, {r4, r5, r6, r7, r8, lr}
 800b7d2:	f000 baf7 	b.w	800bdc4 <__malloc_unlock>
 800b7d6:	4d29      	ldr	r5, [pc, #164]	; (800b87c <_free_r+0x18c>)
 800b7d8:	42a8      	cmp	r0, r5
 800b7da:	d1ae      	bne.n	800b73a <_free_r+0x4a>
 800b7dc:	f043 0201 	orr.w	r2, r3, #1
 800b7e0:	f8cc 4014 	str.w	r4, [ip, #20]
 800b7e4:	f8cc 4010 	str.w	r4, [ip, #16]
 800b7e8:	60e0      	str	r0, [r4, #12]
 800b7ea:	60a0      	str	r0, [r4, #8]
 800b7ec:	6062      	str	r2, [r4, #4]
 800b7ee:	50e3      	str	r3, [r4, r3]
 800b7f0:	e7c8      	b.n	800b784 <_free_r+0x94>
 800b7f2:	441f      	add	r7, r3
 800b7f4:	07cb      	lsls	r3, r1, #31
 800b7f6:	d407      	bmi.n	800b808 <_free_r+0x118>
 800b7f8:	f855 1c08 	ldr.w	r1, [r5, #-8]
 800b7fc:	1a64      	subs	r4, r4, r1
 800b7fe:	68e3      	ldr	r3, [r4, #12]
 800b800:	68a2      	ldr	r2, [r4, #8]
 800b802:	440f      	add	r7, r1
 800b804:	60d3      	str	r3, [r2, #12]
 800b806:	609a      	str	r2, [r3, #8]
 800b808:	4b1d      	ldr	r3, [pc, #116]	; (800b880 <_free_r+0x190>)
 800b80a:	f047 0201 	orr.w	r2, r7, #1
 800b80e:	681b      	ldr	r3, [r3, #0]
 800b810:	6062      	str	r2, [r4, #4]
 800b812:	429f      	cmp	r7, r3
 800b814:	f8cc 4008 	str.w	r4, [ip, #8]
 800b818:	d3b4      	bcc.n	800b784 <_free_r+0x94>
 800b81a:	4b1a      	ldr	r3, [pc, #104]	; (800b884 <_free_r+0x194>)
 800b81c:	4630      	mov	r0, r6
 800b81e:	6819      	ldr	r1, [r3, #0]
 800b820:	f7ff ff18 	bl	800b654 <_malloc_trim_r>
 800b824:	e7ae      	b.n	800b784 <_free_r+0x94>
 800b826:	2101      	movs	r1, #1
 800b828:	e77f      	b.n	800b72a <_free_r+0x3a>
 800b82a:	2a14      	cmp	r2, #20
 800b82c:	d80b      	bhi.n	800b846 <_free_r+0x156>
 800b82e:	f102 005b 	add.w	r0, r2, #91	; 0x5b
 800b832:	0041      	lsls	r1, r0, #1
 800b834:	e792      	b.n	800b75c <_free_r+0x6c>
 800b836:	1080      	asrs	r0, r0, #2
 800b838:	2501      	movs	r5, #1
 800b83a:	4085      	lsls	r5, r0
 800b83c:	6848      	ldr	r0, [r1, #4]
 800b83e:	4613      	mov	r3, r2
 800b840:	4328      	orrs	r0, r5
 800b842:	6048      	str	r0, [r1, #4]
 800b844:	e79a      	b.n	800b77c <_free_r+0x8c>
 800b846:	2a54      	cmp	r2, #84	; 0x54
 800b848:	d803      	bhi.n	800b852 <_free_r+0x162>
 800b84a:	0b18      	lsrs	r0, r3, #12
 800b84c:	306e      	adds	r0, #110	; 0x6e
 800b84e:	0041      	lsls	r1, r0, #1
 800b850:	e784      	b.n	800b75c <_free_r+0x6c>
 800b852:	f5b2 7faa 	cmp.w	r2, #340	; 0x154
 800b856:	d803      	bhi.n	800b860 <_free_r+0x170>
 800b858:	0bd8      	lsrs	r0, r3, #15
 800b85a:	3077      	adds	r0, #119	; 0x77
 800b85c:	0041      	lsls	r1, r0, #1
 800b85e:	e77d      	b.n	800b75c <_free_r+0x6c>
 800b860:	f240 5154 	movw	r1, #1364	; 0x554
 800b864:	428a      	cmp	r2, r1
 800b866:	d803      	bhi.n	800b870 <_free_r+0x180>
 800b868:	0c98      	lsrs	r0, r3, #18
 800b86a:	307c      	adds	r0, #124	; 0x7c
 800b86c:	0041      	lsls	r1, r0, #1
 800b86e:	e775      	b.n	800b75c <_free_r+0x6c>
 800b870:	21fc      	movs	r1, #252	; 0xfc
 800b872:	207e      	movs	r0, #126	; 0x7e
 800b874:	e772      	b.n	800b75c <_free_r+0x6c>
 800b876:	bf00      	nop
 800b878:	2000056c 	.word	0x2000056c
 800b87c:	20000574 	.word	0x20000574
 800b880:	20000974 	.word	0x20000974
 800b884:	20000eec 	.word	0x20000eec

0800b888 <_malloc_r>:
 800b888:	e92d 4ff0 	stmdb	sp!, {r4, r5, r6, r7, r8, r9, sl, fp, lr}
 800b88c:	f101 050b 	add.w	r5, r1, #11
 800b890:	2d16      	cmp	r5, #22
 800b892:	b083      	sub	sp, #12
 800b894:	4606      	mov	r6, r0
 800b896:	d927      	bls.n	800b8e8 <_malloc_r+0x60>
 800b898:	f035 0507 	bics.w	r5, r5, #7
 800b89c:	d427      	bmi.n	800b8ee <_malloc_r+0x66>
 800b89e:	42a9      	cmp	r1, r5
 800b8a0:	d825      	bhi.n	800b8ee <_malloc_r+0x66>
 800b8a2:	4630      	mov	r0, r6
 800b8a4:	f000 fa8c 	bl	800bdc0 <__malloc_lock>
 800b8a8:	f5b5 7ffc 	cmp.w	r5, #504	; 0x1f8
 800b8ac:	d226      	bcs.n	800b8fc <_malloc_r+0x74>
 800b8ae:	4fc1      	ldr	r7, [pc, #772]	; (800bbb4 <_malloc_r+0x32c>)
 800b8b0:	ea4f 0cd5 	mov.w	ip, r5, lsr #3
 800b8b4:	eb07 03cc 	add.w	r3, r7, ip, lsl #3
 800b8b8:	68dc      	ldr	r4, [r3, #12]
 800b8ba:	429c      	cmp	r4, r3
 800b8bc:	f000 81d2 	beq.w	800bc64 <_malloc_r+0x3dc>
 800b8c0:	6863      	ldr	r3, [r4, #4]
 800b8c2:	68e2      	ldr	r2, [r4, #12]
 800b8c4:	f023 0303 	bic.w	r3, r3, #3
 800b8c8:	4423      	add	r3, r4
 800b8ca:	6858      	ldr	r0, [r3, #4]
 800b8cc:	68a1      	ldr	r1, [r4, #8]
 800b8ce:	f040 0501 	orr.w	r5, r0, #1
 800b8d2:	60ca      	str	r2, [r1, #12]
 800b8d4:	4630      	mov	r0, r6
 800b8d6:	6091      	str	r1, [r2, #8]
 800b8d8:	605d      	str	r5, [r3, #4]
 800b8da:	f000 fa73 	bl	800bdc4 <__malloc_unlock>
 800b8de:	3408      	adds	r4, #8
 800b8e0:	4620      	mov	r0, r4
 800b8e2:	b003      	add	sp, #12
 800b8e4:	e8bd 8ff0 	ldmia.w	sp!, {r4, r5, r6, r7, r8, r9, sl, fp, pc}
 800b8e8:	2510      	movs	r5, #16
 800b8ea:	42a9      	cmp	r1, r5
 800b8ec:	d9d9      	bls.n	800b8a2 <_malloc_r+0x1a>
 800b8ee:	2400      	movs	r4, #0
 800b8f0:	230c      	movs	r3, #12
 800b8f2:	4620      	mov	r0, r4
 800b8f4:	6033      	str	r3, [r6, #0]
 800b8f6:	b003      	add	sp, #12
 800b8f8:	e8bd 8ff0 	ldmia.w	sp!, {r4, r5, r6, r7, r8, r9, sl, fp, pc}
 800b8fc:	ea5f 2c55 	movs.w	ip, r5, lsr #9
 800b900:	f000 8089 	beq.w	800ba16 <_malloc_r+0x18e>
 800b904:	f1bc 0f04 	cmp.w	ip, #4
 800b908:	f200 8160 	bhi.w	800bbcc <_malloc_r+0x344>
 800b90c:	ea4f 1c95 	mov.w	ip, r5, lsr #6
 800b910:	f10c 0c38 	add.w	ip, ip, #56	; 0x38
 800b914:	ea4f 014c 	mov.w	r1, ip, lsl #1
 800b918:	4fa6      	ldr	r7, [pc, #664]	; (800bbb4 <_malloc_r+0x32c>)
 800b91a:	eb07 0181 	add.w	r1, r7, r1, lsl #2
 800b91e:	68cc      	ldr	r4, [r1, #12]
 800b920:	42a1      	cmp	r1, r4
 800b922:	d105      	bne.n	800b930 <_malloc_r+0xa8>
 800b924:	e00c      	b.n	800b940 <_malloc_r+0xb8>
 800b926:	2b00      	cmp	r3, #0
 800b928:	da79      	bge.n	800ba1e <_malloc_r+0x196>
 800b92a:	68e4      	ldr	r4, [r4, #12]
 800b92c:	42a1      	cmp	r1, r4
 800b92e:	d007      	beq.n	800b940 <_malloc_r+0xb8>
 800b930:	6862      	ldr	r2, [r4, #4]
 800b932:	f022 0203 	bic.w	r2, r2, #3
 800b936:	1b53      	subs	r3, r2, r5
 800b938:	2b0f      	cmp	r3, #15
 800b93a:	ddf4      	ble.n	800b926 <_malloc_r+0x9e>
 800b93c:	f10c 3cff 	add.w	ip, ip, #4294967295
 800b940:	f10c 0c01 	add.w	ip, ip, #1
 800b944:	4b9b      	ldr	r3, [pc, #620]	; (800bbb4 <_malloc_r+0x32c>)
 800b946:	693c      	ldr	r4, [r7, #16]
 800b948:	f103 0e08 	add.w	lr, r3, #8
 800b94c:	4574      	cmp	r4, lr
 800b94e:	f000 817e 	beq.w	800bc4e <_malloc_r+0x3c6>
 800b952:	6861      	ldr	r1, [r4, #4]
 800b954:	f021 0103 	bic.w	r1, r1, #3
 800b958:	1b4a      	subs	r2, r1, r5
 800b95a:	2a0f      	cmp	r2, #15
 800b95c:	f300 8164 	bgt.w	800bc28 <_malloc_r+0x3a0>
 800b960:	2a00      	cmp	r2, #0
 800b962:	f8c3 e014 	str.w	lr, [r3, #20]
 800b966:	f8c3 e010 	str.w	lr, [r3, #16]
 800b96a:	da69      	bge.n	800ba40 <_malloc_r+0x1b8>
 800b96c:	f5b1 7f00 	cmp.w	r1, #512	; 0x200
 800b970:	f080 813a 	bcs.w	800bbe8 <_malloc_r+0x360>
 800b974:	08c9      	lsrs	r1, r1, #3
 800b976:	108a      	asrs	r2, r1, #2
 800b978:	f04f 0801 	mov.w	r8, #1
 800b97c:	fa08 f802 	lsl.w	r8, r8, r2
 800b980:	eb03 01c1 	add.w	r1, r3, r1, lsl #3
 800b984:	685a      	ldr	r2, [r3, #4]
 800b986:	6888      	ldr	r0, [r1, #8]
 800b988:	ea48 0202 	orr.w	r2, r8, r2
 800b98c:	60a0      	str	r0, [r4, #8]
 800b98e:	60e1      	str	r1, [r4, #12]
 800b990:	605a      	str	r2, [r3, #4]
 800b992:	608c      	str	r4, [r1, #8]
 800b994:	60c4      	str	r4, [r0, #12]
 800b996:	ea4f 03ac 	mov.w	r3, ip, asr #2
 800b99a:	2001      	movs	r0, #1
 800b99c:	4098      	lsls	r0, r3
 800b99e:	4290      	cmp	r0, r2
 800b9a0:	d85b      	bhi.n	800ba5a <_malloc_r+0x1d2>
 800b9a2:	4202      	tst	r2, r0
 800b9a4:	d106      	bne.n	800b9b4 <_malloc_r+0x12c>
 800b9a6:	f02c 0c03 	bic.w	ip, ip, #3
 800b9aa:	0040      	lsls	r0, r0, #1
 800b9ac:	4202      	tst	r2, r0
 800b9ae:	f10c 0c04 	add.w	ip, ip, #4
 800b9b2:	d0fa      	beq.n	800b9aa <_malloc_r+0x122>
 800b9b4:	eb07 08cc 	add.w	r8, r7, ip, lsl #3
 800b9b8:	4644      	mov	r4, r8
 800b9ba:	46e1      	mov	r9, ip
 800b9bc:	68e3      	ldr	r3, [r4, #12]
 800b9be:	429c      	cmp	r4, r3
 800b9c0:	d107      	bne.n	800b9d2 <_malloc_r+0x14a>
 800b9c2:	e146      	b.n	800bc52 <_malloc_r+0x3ca>
 800b9c4:	2a00      	cmp	r2, #0
 800b9c6:	f280 8157 	bge.w	800bc78 <_malloc_r+0x3f0>
 800b9ca:	68db      	ldr	r3, [r3, #12]
 800b9cc:	429c      	cmp	r4, r3
 800b9ce:	f000 8140 	beq.w	800bc52 <_malloc_r+0x3ca>
 800b9d2:	6859      	ldr	r1, [r3, #4]
 800b9d4:	f021 0103 	bic.w	r1, r1, #3
 800b9d8:	1b4a      	subs	r2, r1, r5
 800b9da:	2a0f      	cmp	r2, #15
 800b9dc:	ddf2      	ble.n	800b9c4 <_malloc_r+0x13c>
 800b9de:	461c      	mov	r4, r3
 800b9e0:	f854 cf08 	ldr.w	ip, [r4, #8]!
 800b9e4:	68d9      	ldr	r1, [r3, #12]
 800b9e6:	f045 0901 	orr.w	r9, r5, #1
 800b9ea:	f042 0801 	orr.w	r8, r2, #1
 800b9ee:	441d      	add	r5, r3
 800b9f0:	f8c3 9004 	str.w	r9, [r3, #4]
 800b9f4:	4630      	mov	r0, r6
 800b9f6:	f8cc 100c 	str.w	r1, [ip, #12]
 800b9fa:	f8c1 c008 	str.w	ip, [r1, #8]
 800b9fe:	617d      	str	r5, [r7, #20]
 800ba00:	613d      	str	r5, [r7, #16]
 800ba02:	f8c5 e00c 	str.w	lr, [r5, #12]
 800ba06:	f8c5 e008 	str.w	lr, [r5, #8]
 800ba0a:	f8c5 8004 	str.w	r8, [r5, #4]
 800ba0e:	50aa      	str	r2, [r5, r2]
 800ba10:	f000 f9d8 	bl	800bdc4 <__malloc_unlock>
 800ba14:	e764      	b.n	800b8e0 <_malloc_r+0x58>
 800ba16:	217e      	movs	r1, #126	; 0x7e
 800ba18:	f04f 0c3f 	mov.w	ip, #63	; 0x3f
 800ba1c:	e77c      	b.n	800b918 <_malloc_r+0x90>
 800ba1e:	4422      	add	r2, r4
 800ba20:	6850      	ldr	r0, [r2, #4]
 800ba22:	68e3      	ldr	r3, [r4, #12]
 800ba24:	68a1      	ldr	r1, [r4, #8]
 800ba26:	f040 0501 	orr.w	r5, r0, #1
 800ba2a:	60cb      	str	r3, [r1, #12]
 800ba2c:	4630      	mov	r0, r6
 800ba2e:	6099      	str	r1, [r3, #8]
 800ba30:	6055      	str	r5, [r2, #4]
 800ba32:	f000 f9c7 	bl	800bdc4 <__malloc_unlock>
 800ba36:	3408      	adds	r4, #8
 800ba38:	4620      	mov	r0, r4
 800ba3a:	b003      	add	sp, #12
 800ba3c:	e8bd 8ff0 	ldmia.w	sp!, {r4, r5, r6, r7, r8, r9, sl, fp, pc}
 800ba40:	4421      	add	r1, r4
 800ba42:	684b      	ldr	r3, [r1, #4]
 800ba44:	4630      	mov	r0, r6
 800ba46:	f043 0301 	orr.w	r3, r3, #1
 800ba4a:	604b      	str	r3, [r1, #4]
 800ba4c:	f000 f9ba 	bl	800bdc4 <__malloc_unlock>
 800ba50:	3408      	adds	r4, #8
 800ba52:	4620      	mov	r0, r4
 800ba54:	b003      	add	sp, #12
 800ba56:	e8bd 8ff0 	ldmia.w	sp!, {r4, r5, r6, r7, r8, r9, sl, fp, pc}
 800ba5a:	68bc      	ldr	r4, [r7, #8]
 800ba5c:	6863      	ldr	r3, [r4, #4]
 800ba5e:	f023 0903 	bic.w	r9, r3, #3
 800ba62:	45a9      	cmp	r9, r5
 800ba64:	d304      	bcc.n	800ba70 <_malloc_r+0x1e8>
 800ba66:	ebc5 0309 	rsb	r3, r5, r9
 800ba6a:	2b0f      	cmp	r3, #15
 800ba6c:	f300 8091 	bgt.w	800bb92 <_malloc_r+0x30a>
 800ba70:	4b51      	ldr	r3, [pc, #324]	; (800bbb8 <_malloc_r+0x330>)
 800ba72:	4a52      	ldr	r2, [pc, #328]	; (800bbbc <_malloc_r+0x334>)
 800ba74:	6819      	ldr	r1, [r3, #0]
 800ba76:	6813      	ldr	r3, [r2, #0]
 800ba78:	eb05 0a01 	add.w	sl, r5, r1
 800ba7c:	3301      	adds	r3, #1
 800ba7e:	eb04 0b09 	add.w	fp, r4, r9
 800ba82:	f000 8161 	beq.w	800bd48 <_malloc_r+0x4c0>
 800ba86:	f50a 5a80 	add.w	sl, sl, #4096	; 0x1000
 800ba8a:	f10a 0a0f 	add.w	sl, sl, #15
 800ba8e:	f42a 6a7f 	bic.w	sl, sl, #4080	; 0xff0
 800ba92:	f02a 0a0f 	bic.w	sl, sl, #15
 800ba96:	4630      	mov	r0, r6
 800ba98:	4651      	mov	r1, sl
 800ba9a:	9201      	str	r2, [sp, #4]
 800ba9c:	f000 f994 	bl	800bdc8 <_sbrk_r>
 800baa0:	f1b0 3fff 	cmp.w	r0, #4294967295
 800baa4:	4680      	mov	r8, r0
 800baa6:	9a01      	ldr	r2, [sp, #4]
 800baa8:	f000 8101 	beq.w	800bcae <_malloc_r+0x426>
 800baac:	4583      	cmp	fp, r0
 800baae:	f200 80fb 	bhi.w	800bca8 <_malloc_r+0x420>
 800bab2:	f8df c114 	ldr.w	ip, [pc, #276]	; 800bbc8 <_malloc_r+0x340>
 800bab6:	45c3      	cmp	fp, r8
 800bab8:	f8dc 3000 	ldr.w	r3, [ip]
 800babc:	4453      	add	r3, sl
 800babe:	f8cc 3000 	str.w	r3, [ip]
 800bac2:	f000 814a 	beq.w	800bd5a <_malloc_r+0x4d2>
 800bac6:	6812      	ldr	r2, [r2, #0]
 800bac8:	493c      	ldr	r1, [pc, #240]	; (800bbbc <_malloc_r+0x334>)
 800baca:	3201      	adds	r2, #1
 800bacc:	bf1b      	ittet	ne
 800bace:	ebcb 0b08 	rsbne	fp, fp, r8
 800bad2:	445b      	addne	r3, fp
 800bad4:	f8c1 8000 	streq.w	r8, [r1]
 800bad8:	f8cc 3000 	strne.w	r3, [ip]
 800badc:	f018 0307 	ands.w	r3, r8, #7
 800bae0:	f000 8114 	beq.w	800bd0c <_malloc_r+0x484>
 800bae4:	f1c3 0208 	rsb	r2, r3, #8
 800bae8:	f5c3 5380 	rsb	r3, r3, #4096	; 0x1000
 800baec:	4490      	add	r8, r2
 800baee:	3308      	adds	r3, #8
 800baf0:	44c2      	add	sl, r8
 800baf2:	f3ca 0a0b 	ubfx	sl, sl, #0, #12
 800baf6:	ebca 0a03 	rsb	sl, sl, r3
 800bafa:	4651      	mov	r1, sl
 800bafc:	4630      	mov	r0, r6
 800bafe:	f8cd c004 	str.w	ip, [sp, #4]
 800bb02:	f000 f961 	bl	800bdc8 <_sbrk_r>
 800bb06:	1c43      	adds	r3, r0, #1
 800bb08:	f8dd c004 	ldr.w	ip, [sp, #4]
 800bb0c:	f000 8135 	beq.w	800bd7a <_malloc_r+0x4f2>
 800bb10:	ebc8 0200 	rsb	r2, r8, r0
 800bb14:	4452      	add	r2, sl
 800bb16:	f042 0201 	orr.w	r2, r2, #1
 800bb1a:	f8dc 3000 	ldr.w	r3, [ip]
 800bb1e:	42bc      	cmp	r4, r7
 800bb20:	4453      	add	r3, sl
 800bb22:	f8c7 8008 	str.w	r8, [r7, #8]
 800bb26:	f8cc 3000 	str.w	r3, [ip]
 800bb2a:	f8c8 2004 	str.w	r2, [r8, #4]
 800bb2e:	f8df a098 	ldr.w	sl, [pc, #152]	; 800bbc8 <_malloc_r+0x340>
 800bb32:	d015      	beq.n	800bb60 <_malloc_r+0x2d8>
 800bb34:	f1b9 0f0f 	cmp.w	r9, #15
 800bb38:	f240 80eb 	bls.w	800bd12 <_malloc_r+0x48a>
 800bb3c:	6861      	ldr	r1, [r4, #4]
 800bb3e:	f1a9 020c 	sub.w	r2, r9, #12
 800bb42:	f022 0207 	bic.w	r2, r2, #7
 800bb46:	f001 0101 	and.w	r1, r1, #1
 800bb4a:	ea42 0e01 	orr.w	lr, r2, r1
 800bb4e:	2005      	movs	r0, #5
 800bb50:	18a1      	adds	r1, r4, r2
 800bb52:	2a0f      	cmp	r2, #15
 800bb54:	f8c4 e004 	str.w	lr, [r4, #4]
 800bb58:	6048      	str	r0, [r1, #4]
 800bb5a:	6088      	str	r0, [r1, #8]
 800bb5c:	f200 8111 	bhi.w	800bd82 <_malloc_r+0x4fa>
 800bb60:	4a17      	ldr	r2, [pc, #92]	; (800bbc0 <_malloc_r+0x338>)
 800bb62:	68bc      	ldr	r4, [r7, #8]
 800bb64:	6811      	ldr	r1, [r2, #0]
 800bb66:	428b      	cmp	r3, r1
 800bb68:	bf88      	it	hi
 800bb6a:	6013      	strhi	r3, [r2, #0]
 800bb6c:	4a15      	ldr	r2, [pc, #84]	; (800bbc4 <_malloc_r+0x33c>)
 800bb6e:	6811      	ldr	r1, [r2, #0]
 800bb70:	428b      	cmp	r3, r1
 800bb72:	bf88      	it	hi
 800bb74:	6013      	strhi	r3, [r2, #0]
 800bb76:	6862      	ldr	r2, [r4, #4]
 800bb78:	f022 0203 	bic.w	r2, r2, #3
 800bb7c:	4295      	cmp	r5, r2
 800bb7e:	ebc5 0302 	rsb	r3, r5, r2
 800bb82:	d801      	bhi.n	800bb88 <_malloc_r+0x300>
 800bb84:	2b0f      	cmp	r3, #15
 800bb86:	dc04      	bgt.n	800bb92 <_malloc_r+0x30a>
 800bb88:	4630      	mov	r0, r6
 800bb8a:	f000 f91b 	bl	800bdc4 <__malloc_unlock>
 800bb8e:	2400      	movs	r4, #0
 800bb90:	e6a6      	b.n	800b8e0 <_malloc_r+0x58>
 800bb92:	f045 0201 	orr.w	r2, r5, #1
 800bb96:	f043 0301 	orr.w	r3, r3, #1
 800bb9a:	4425      	add	r5, r4
 800bb9c:	6062      	str	r2, [r4, #4]
 800bb9e:	4630      	mov	r0, r6
 800bba0:	60bd      	str	r5, [r7, #8]
 800bba2:	606b      	str	r3, [r5, #4]
 800bba4:	f000 f90e 	bl	800bdc4 <__malloc_unlock>
 800bba8:	3408      	adds	r4, #8
 800bbaa:	4620      	mov	r0, r4
 800bbac:	b003      	add	sp, #12
 800bbae:	e8bd 8ff0 	ldmia.w	sp!, {r4, r5, r6, r7, r8, r9, sl, fp, pc}
 800bbb2:	bf00      	nop
 800bbb4:	2000056c 	.word	0x2000056c
 800bbb8:	20000eec 	.word	0x20000eec
 800bbbc:	20000978 	.word	0x20000978
 800bbc0:	20000ee8 	.word	0x20000ee8
 800bbc4:	20000ee4 	.word	0x20000ee4
 800bbc8:	20000ef0 	.word	0x20000ef0
 800bbcc:	f1bc 0f14 	cmp.w	ip, #20
 800bbd0:	d961      	bls.n	800bc96 <_malloc_r+0x40e>
 800bbd2:	f1bc 0f54 	cmp.w	ip, #84	; 0x54
 800bbd6:	f200 808f 	bhi.w	800bcf8 <_malloc_r+0x470>
 800bbda:	ea4f 3c15 	mov.w	ip, r5, lsr #12
 800bbde:	f10c 0c6e 	add.w	ip, ip, #110	; 0x6e
 800bbe2:	ea4f 014c 	mov.w	r1, ip, lsl #1
 800bbe6:	e697      	b.n	800b918 <_malloc_r+0x90>
 800bbe8:	0a4b      	lsrs	r3, r1, #9
 800bbea:	2b04      	cmp	r3, #4
 800bbec:	d958      	bls.n	800bca0 <_malloc_r+0x418>
 800bbee:	2b14      	cmp	r3, #20
 800bbf0:	f200 80ad 	bhi.w	800bd4e <_malloc_r+0x4c6>
 800bbf4:	f103 025b 	add.w	r2, r3, #91	; 0x5b
 800bbf8:	0050      	lsls	r0, r2, #1
 800bbfa:	eb07 0080 	add.w	r0, r7, r0, lsl #2
 800bbfe:	6883      	ldr	r3, [r0, #8]
 800bc00:	f8df 81b8 	ldr.w	r8, [pc, #440]	; 800bdbc <_malloc_r+0x534>
 800bc04:	4283      	cmp	r3, r0
 800bc06:	f000 808a 	beq.w	800bd1e <_malloc_r+0x496>
 800bc0a:	685a      	ldr	r2, [r3, #4]
 800bc0c:	f022 0203 	bic.w	r2, r2, #3
 800bc10:	4291      	cmp	r1, r2
 800bc12:	d202      	bcs.n	800bc1a <_malloc_r+0x392>
 800bc14:	689b      	ldr	r3, [r3, #8]
 800bc16:	4298      	cmp	r0, r3
 800bc18:	d1f7      	bne.n	800bc0a <_malloc_r+0x382>
 800bc1a:	68d9      	ldr	r1, [r3, #12]
 800bc1c:	687a      	ldr	r2, [r7, #4]
 800bc1e:	60e1      	str	r1, [r4, #12]
 800bc20:	60a3      	str	r3, [r4, #8]
 800bc22:	608c      	str	r4, [r1, #8]
 800bc24:	60dc      	str	r4, [r3, #12]
 800bc26:	e6b6      	b.n	800b996 <_malloc_r+0x10e>
 800bc28:	f045 0701 	orr.w	r7, r5, #1
 800bc2c:	f042 0101 	orr.w	r1, r2, #1
 800bc30:	4425      	add	r5, r4
 800bc32:	6067      	str	r7, [r4, #4]
 800bc34:	4630      	mov	r0, r6
 800bc36:	615d      	str	r5, [r3, #20]
 800bc38:	611d      	str	r5, [r3, #16]
 800bc3a:	f8c5 e00c 	str.w	lr, [r5, #12]
 800bc3e:	f8c5 e008 	str.w	lr, [r5, #8]
 800bc42:	6069      	str	r1, [r5, #4]
 800bc44:	50aa      	str	r2, [r5, r2]
 800bc46:	3408      	adds	r4, #8
 800bc48:	f000 f8bc 	bl	800bdc4 <__malloc_unlock>
 800bc4c:	e648      	b.n	800b8e0 <_malloc_r+0x58>
 800bc4e:	685a      	ldr	r2, [r3, #4]
 800bc50:	e6a1      	b.n	800b996 <_malloc_r+0x10e>
 800bc52:	f109 0901 	add.w	r9, r9, #1
 800bc56:	f019 0f03 	tst.w	r9, #3
 800bc5a:	f104 0408 	add.w	r4, r4, #8
 800bc5e:	f47f aead 	bne.w	800b9bc <_malloc_r+0x134>
 800bc62:	e02d      	b.n	800bcc0 <_malloc_r+0x438>
 800bc64:	f104 0308 	add.w	r3, r4, #8
 800bc68:	6964      	ldr	r4, [r4, #20]
 800bc6a:	42a3      	cmp	r3, r4
 800bc6c:	bf08      	it	eq
 800bc6e:	f10c 0c02 	addeq.w	ip, ip, #2
 800bc72:	f43f ae67 	beq.w	800b944 <_malloc_r+0xbc>
 800bc76:	e623      	b.n	800b8c0 <_malloc_r+0x38>
 800bc78:	4419      	add	r1, r3
 800bc7a:	6848      	ldr	r0, [r1, #4]
 800bc7c:	461c      	mov	r4, r3
 800bc7e:	f854 2f08 	ldr.w	r2, [r4, #8]!
 800bc82:	68db      	ldr	r3, [r3, #12]
 800bc84:	f040 0501 	orr.w	r5, r0, #1
 800bc88:	604d      	str	r5, [r1, #4]
 800bc8a:	4630      	mov	r0, r6
 800bc8c:	60d3      	str	r3, [r2, #12]
 800bc8e:	609a      	str	r2, [r3, #8]
 800bc90:	f000 f898 	bl	800bdc4 <__malloc_unlock>
 800bc94:	e624      	b.n	800b8e0 <_malloc_r+0x58>
 800bc96:	f10c 0c5b 	add.w	ip, ip, #91	; 0x5b
 800bc9a:	ea4f 014c 	mov.w	r1, ip, lsl #1
 800bc9e:	e63b      	b.n	800b918 <_malloc_r+0x90>
 800bca0:	098a      	lsrs	r2, r1, #6
 800bca2:	3238      	adds	r2, #56	; 0x38
 800bca4:	0050      	lsls	r0, r2, #1
 800bca6:	e7a8      	b.n	800bbfa <_malloc_r+0x372>
 800bca8:	42bc      	cmp	r4, r7
 800bcaa:	f43f af02 	beq.w	800bab2 <_malloc_r+0x22a>
 800bcae:	68bc      	ldr	r4, [r7, #8]
 800bcb0:	6862      	ldr	r2, [r4, #4]
 800bcb2:	f022 0203 	bic.w	r2, r2, #3
 800bcb6:	e761      	b.n	800bb7c <_malloc_r+0x2f4>
 800bcb8:	f8d8 8000 	ldr.w	r8, [r8]
 800bcbc:	4598      	cmp	r8, r3
 800bcbe:	d17a      	bne.n	800bdb6 <_malloc_r+0x52e>
 800bcc0:	f01c 0f03 	tst.w	ip, #3
 800bcc4:	f1a8 0308 	sub.w	r3, r8, #8
 800bcc8:	f10c 3cff 	add.w	ip, ip, #4294967295
 800bccc:	d1f4      	bne.n	800bcb8 <_malloc_r+0x430>
 800bcce:	687b      	ldr	r3, [r7, #4]
 800bcd0:	ea23 0300 	bic.w	r3, r3, r0
 800bcd4:	607b      	str	r3, [r7, #4]
 800bcd6:	0040      	lsls	r0, r0, #1
 800bcd8:	4298      	cmp	r0, r3
 800bcda:	f63f aebe 	bhi.w	800ba5a <_malloc_r+0x1d2>
 800bcde:	2800      	cmp	r0, #0
 800bce0:	f43f aebb 	beq.w	800ba5a <_malloc_r+0x1d2>
 800bce4:	4203      	tst	r3, r0
 800bce6:	46cc      	mov	ip, r9
 800bce8:	f47f ae64 	bne.w	800b9b4 <_malloc_r+0x12c>
 800bcec:	0040      	lsls	r0, r0, #1
 800bcee:	4203      	tst	r3, r0
 800bcf0:	f10c 0c04 	add.w	ip, ip, #4
 800bcf4:	d0fa      	beq.n	800bcec <_malloc_r+0x464>
 800bcf6:	e65d      	b.n	800b9b4 <_malloc_r+0x12c>
 800bcf8:	f5bc 7faa 	cmp.w	ip, #340	; 0x154
 800bcfc:	d819      	bhi.n	800bd32 <_malloc_r+0x4aa>
 800bcfe:	ea4f 3cd5 	mov.w	ip, r5, lsr #15
 800bd02:	f10c 0c77 	add.w	ip, ip, #119	; 0x77
 800bd06:	ea4f 014c 	mov.w	r1, ip, lsl #1
 800bd0a:	e605      	b.n	800b918 <_malloc_r+0x90>
 800bd0c:	f44f 5380 	mov.w	r3, #4096	; 0x1000
 800bd10:	e6ee      	b.n	800baf0 <_malloc_r+0x268>
 800bd12:	2301      	movs	r3, #1
 800bd14:	f8c8 3004 	str.w	r3, [r8, #4]
 800bd18:	4644      	mov	r4, r8
 800bd1a:	2200      	movs	r2, #0
 800bd1c:	e72e      	b.n	800bb7c <_malloc_r+0x2f4>
 800bd1e:	1092      	asrs	r2, r2, #2
 800bd20:	2001      	movs	r0, #1
 800bd22:	4090      	lsls	r0, r2
 800bd24:	f8d8 2004 	ldr.w	r2, [r8, #4]
 800bd28:	4619      	mov	r1, r3
 800bd2a:	4302      	orrs	r2, r0
 800bd2c:	f8c8 2004 	str.w	r2, [r8, #4]
 800bd30:	e775      	b.n	800bc1e <_malloc_r+0x396>
 800bd32:	f240 5354 	movw	r3, #1364	; 0x554
 800bd36:	459c      	cmp	ip, r3
 800bd38:	d81b      	bhi.n	800bd72 <_malloc_r+0x4ea>
 800bd3a:	ea4f 4c95 	mov.w	ip, r5, lsr #18
 800bd3e:	f10c 0c7c 	add.w	ip, ip, #124	; 0x7c
 800bd42:	ea4f 014c 	mov.w	r1, ip, lsl #1
 800bd46:	e5e7      	b.n	800b918 <_malloc_r+0x90>
 800bd48:	f10a 0a10 	add.w	sl, sl, #16
 800bd4c:	e6a3      	b.n	800ba96 <_malloc_r+0x20e>
 800bd4e:	2b54      	cmp	r3, #84	; 0x54
 800bd50:	d81f      	bhi.n	800bd92 <_malloc_r+0x50a>
 800bd52:	0b0a      	lsrs	r2, r1, #12
 800bd54:	326e      	adds	r2, #110	; 0x6e
 800bd56:	0050      	lsls	r0, r2, #1
 800bd58:	e74f      	b.n	800bbfa <_malloc_r+0x372>
 800bd5a:	f3cb 010b 	ubfx	r1, fp, #0, #12
 800bd5e:	2900      	cmp	r1, #0
 800bd60:	f47f aeb1 	bne.w	800bac6 <_malloc_r+0x23e>
 800bd64:	eb0a 0109 	add.w	r1, sl, r9
 800bd68:	68ba      	ldr	r2, [r7, #8]
 800bd6a:	f041 0101 	orr.w	r1, r1, #1
 800bd6e:	6051      	str	r1, [r2, #4]
 800bd70:	e6f6      	b.n	800bb60 <_malloc_r+0x2d8>
 800bd72:	21fc      	movs	r1, #252	; 0xfc
 800bd74:	f04f 0c7e 	mov.w	ip, #126	; 0x7e
 800bd78:	e5ce      	b.n	800b918 <_malloc_r+0x90>
 800bd7a:	2201      	movs	r2, #1
 800bd7c:	f04f 0a00 	mov.w	sl, #0
 800bd80:	e6cb      	b.n	800bb1a <_malloc_r+0x292>
 800bd82:	f104 0108 	add.w	r1, r4, #8
 800bd86:	4630      	mov	r0, r6
 800bd88:	f7ff fcb2 	bl	800b6f0 <_free_r>
 800bd8c:	f8da 3000 	ldr.w	r3, [sl]
 800bd90:	e6e6      	b.n	800bb60 <_malloc_r+0x2d8>
 800bd92:	f5b3 7faa 	cmp.w	r3, #340	; 0x154
 800bd96:	d803      	bhi.n	800bda0 <_malloc_r+0x518>
 800bd98:	0bca      	lsrs	r2, r1, #15
 800bd9a:	3277      	adds	r2, #119	; 0x77
 800bd9c:	0050      	lsls	r0, r2, #1
 800bd9e:	e72c      	b.n	800bbfa <_malloc_r+0x372>
 800bda0:	f240 5254 	movw	r2, #1364	; 0x554
 800bda4:	4293      	cmp	r3, r2
 800bda6:	d803      	bhi.n	800bdb0 <_malloc_r+0x528>
 800bda8:	0c8a      	lsrs	r2, r1, #18
 800bdaa:	327c      	adds	r2, #124	; 0x7c
 800bdac:	0050      	lsls	r0, r2, #1
 800bdae:	e724      	b.n	800bbfa <_malloc_r+0x372>
 800bdb0:	20fc      	movs	r0, #252	; 0xfc
 800bdb2:	227e      	movs	r2, #126	; 0x7e
 800bdb4:	e721      	b.n	800bbfa <_malloc_r+0x372>
 800bdb6:	687b      	ldr	r3, [r7, #4]
 800bdb8:	e78d      	b.n	800bcd6 <_malloc_r+0x44e>
 800bdba:	bf00      	nop
 800bdbc:	2000056c 	.word	0x2000056c

0800bdc0 <__malloc_lock>:
 800bdc0:	4770      	bx	lr
 800bdc2:	bf00      	nop

0800bdc4 <__malloc_unlock>:
 800bdc4:	4770      	bx	lr
 800bdc6:	bf00      	nop

0800bdc8 <_sbrk_r>:
 800bdc8:	b538      	push	{r3, r4, r5, lr}
 800bdca:	4c07      	ldr	r4, [pc, #28]	; (800bde8 <_sbrk_r+0x20>)
 800bdcc:	2300      	movs	r3, #0
 800bdce:	4605      	mov	r5, r0
 800bdd0:	4608      	mov	r0, r1
 800bdd2:	6023      	str	r3, [r4, #0]
 800bdd4:	f7fb ffd0 	bl	8007d78 <_sbrk>
 800bdd8:	1c43      	adds	r3, r0, #1
 800bdda:	d000      	beq.n	800bdde <_sbrk_r+0x16>
 800bddc:	bd38      	pop	{r3, r4, r5, pc}
 800bdde:	6823      	ldr	r3, [r4, #0]
 800bde0:	2b00      	cmp	r3, #0
 800bde2:	d0fb      	beq.n	800bddc <_sbrk_r+0x14>
 800bde4:	602b      	str	r3, [r5, #0]
 800bde6:	bd38      	pop	{r3, r4, r5, pc}
 800bde8:	200058d8 	.word	0x200058d8

0800bdec <_svfprintf_r>:
 800bdec:	e92d 4ff0 	stmdb	sp!, {r4, r5, r6, r7, r8, r9, sl, fp, lr}
 800bdf0:	b0c9      	sub	sp, #292	; 0x124
 800bdf2:	9310      	str	r3, [sp, #64]	; 0x40
 800bdf4:	910c      	str	r1, [sp, #48]	; 0x30
 800bdf6:	4691      	mov	r9, r2
 800bdf8:	900d      	str	r0, [sp, #52]	; 0x34
 800bdfa:	f002 fa1d 	bl	800e238 <_localeconv_r>
 800bdfe:	6800      	ldr	r0, [r0, #0]
 800be00:	9015      	str	r0, [sp, #84]	; 0x54
 800be02:	f7ff fbbb 	bl	800b57c <strlen>
 800be06:	9c0c      	ldr	r4, [sp, #48]	; 0x30
 800be08:	9018      	str	r0, [sp, #96]	; 0x60
 800be0a:	89a3      	ldrh	r3, [r4, #12]
 800be0c:	061e      	lsls	r6, r3, #24
 800be0e:	d503      	bpl.n	800be18 <_svfprintf_r+0x2c>
 800be10:	6923      	ldr	r3, [r4, #16]
 800be12:	2b00      	cmp	r3, #0
 800be14:	f001 8081 	beq.w	800cf1a <_svfprintf_r+0x112e>
 800be18:	ac38      	add	r4, sp, #224	; 0xe0
 800be1a:	46a4      	mov	ip, r4
 800be1c:	9408      	str	r4, [sp, #32]
 800be1e:	942b      	str	r4, [sp, #172]	; 0xac
 800be20:	2500      	movs	r5, #0
 800be22:	2400      	movs	r4, #0
 800be24:	e9cd 4516 	strd	r4, r5, [sp, #88]	; 0x58
 800be28:	2300      	movs	r3, #0
 800be2a:	9311      	str	r3, [sp, #68]	; 0x44
 800be2c:	932d      	str	r3, [sp, #180]	; 0xb4
 800be2e:	932c      	str	r3, [sp, #176]	; 0xb0
 800be30:	931a      	str	r3, [sp, #104]	; 0x68
 800be32:	9319      	str	r3, [sp, #100]	; 0x64
 800be34:	930e      	str	r3, [sp, #56]	; 0x38
 800be36:	4666      	mov	r6, ip
 800be38:	f899 3000 	ldrb.w	r3, [r9]
 800be3c:	2b00      	cmp	r3, #0
 800be3e:	f000 80f8 	beq.w	800c032 <_svfprintf_r+0x246>
 800be42:	2b25      	cmp	r3, #37	; 0x25
 800be44:	f000 80f5 	beq.w	800c032 <_svfprintf_r+0x246>
 800be48:	f109 0201 	add.w	r2, r9, #1
 800be4c:	e001      	b.n	800be52 <_svfprintf_r+0x66>
 800be4e:	2b25      	cmp	r3, #37	; 0x25
 800be50:	d004      	beq.n	800be5c <_svfprintf_r+0x70>
 800be52:	7813      	ldrb	r3, [r2, #0]
 800be54:	4614      	mov	r4, r2
 800be56:	3201      	adds	r2, #1
 800be58:	2b00      	cmp	r3, #0
 800be5a:	d1f8      	bne.n	800be4e <_svfprintf_r+0x62>
 800be5c:	ebc9 0504 	rsb	r5, r9, r4
 800be60:	b17d      	cbz	r5, 800be82 <_svfprintf_r+0x96>
 800be62:	9b2c      	ldr	r3, [sp, #176]	; 0xb0
 800be64:	9a2d      	ldr	r2, [sp, #180]	; 0xb4
 800be66:	3301      	adds	r3, #1
 800be68:	442a      	add	r2, r5
 800be6a:	2b07      	cmp	r3, #7
 800be6c:	f8c6 9000 	str.w	r9, [r6]
 800be70:	6075      	str	r5, [r6, #4]
 800be72:	922d      	str	r2, [sp, #180]	; 0xb4
 800be74:	932c      	str	r3, [sp, #176]	; 0xb0
 800be76:	f300 80c2 	bgt.w	800bffe <_svfprintf_r+0x212>
 800be7a:	3608      	adds	r6, #8
 800be7c:	980e      	ldr	r0, [sp, #56]	; 0x38
 800be7e:	4428      	add	r0, r5
 800be80:	900e      	str	r0, [sp, #56]	; 0x38
 800be82:	7823      	ldrb	r3, [r4, #0]
 800be84:	2b00      	cmp	r3, #0
 800be86:	f000 80c2 	beq.w	800c00e <_svfprintf_r+0x222>
 800be8a:	2300      	movs	r3, #0
 800be8c:	f894 8001 	ldrb.w	r8, [r4, #1]
 800be90:	461a      	mov	r2, r3
 800be92:	f88d 308f 	strb.w	r3, [sp, #143]	; 0x8f
 800be96:	930f      	str	r3, [sp, #60]	; 0x3c
 800be98:	9309      	str	r3, [sp, #36]	; 0x24
 800be9a:	f104 0901 	add.w	r9, r4, #1
 800be9e:	f04f 34ff 	mov.w	r4, #4294967295
 800bea2:	940a      	str	r4, [sp, #40]	; 0x28
 800bea4:	f109 0901 	add.w	r9, r9, #1
 800bea8:	f1a8 0320 	sub.w	r3, r8, #32
 800beac:	2b58      	cmp	r3, #88	; 0x58
 800beae:	f200 83c5 	bhi.w	800c63c <_svfprintf_r+0x850>
 800beb2:	e8df f013 	tbh	[pc, r3, lsl #1]
 800beb6:	026a      	.short	0x026a
 800beb8:	03c303c3 	.word	0x03c303c3
 800bebc:	03c30271 	.word	0x03c30271
 800bec0:	03c303c3 	.word	0x03c303c3
 800bec4:	03c303c3 	.word	0x03c303c3
 800bec8:	031403c3 	.word	0x031403c3
 800becc:	03c30366 	.word	0x03c30366
 800bed0:	00c0009d 	.word	0x00c0009d
 800bed4:	027803c3 	.word	0x027803c3
 800bed8:	027f027f 	.word	0x027f027f
 800bedc:	027f027f 	.word	0x027f027f
 800bee0:	027f027f 	.word	0x027f027f
 800bee4:	027f027f 	.word	0x027f027f
 800bee8:	03c3027f 	.word	0x03c3027f
 800beec:	03c303c3 	.word	0x03c303c3
 800bef0:	03c303c3 	.word	0x03c303c3
 800bef4:	03c303c3 	.word	0x03c303c3
 800bef8:	03c303c3 	.word	0x03c303c3
 800befc:	029003c3 	.word	0x029003c3
 800bf00:	03c30371 	.word	0x03c30371
 800bf04:	03c30371 	.word	0x03c30371
 800bf08:	03c303c3 	.word	0x03c303c3
 800bf0c:	036a03c3 	.word	0x036a03c3
 800bf10:	03c303c3 	.word	0x03c303c3
 800bf14:	03c30078 	.word	0x03c30078
 800bf18:	03c303c3 	.word	0x03c303c3
 800bf1c:	03c303c3 	.word	0x03c303c3
 800bf20:	03c30059 	.word	0x03c30059
 800bf24:	02af03c3 	.word	0x02af03c3
 800bf28:	03c303c3 	.word	0x03c303c3
 800bf2c:	03c303c3 	.word	0x03c303c3
 800bf30:	03c303c3 	.word	0x03c303c3
 800bf34:	03c303c3 	.word	0x03c303c3
 800bf38:	03c303c3 	.word	0x03c303c3
 800bf3c:	03480337 	.word	0x03480337
 800bf40:	03710371 	.word	0x03710371
 800bf44:	02ff0371 	.word	0x02ff0371
 800bf48:	03c30348 	.word	0x03c30348
 800bf4c:	030803c3 	.word	0x030803c3
 800bf50:	02c503c3 	.word	0x02c503c3
 800bf54:	0320007c 	.word	0x0320007c
 800bf58:	03c303a3 	.word	0x03c303a3
 800bf5c:	03c302d9 	.word	0x03c302d9
 800bf60:	03c3005f 	.word	0x03c3005f
 800bf64:	00de03c3 	.word	0x00de03c3
 800bf68:	f8dd c024 	ldr.w	ip, [sp, #36]	; 0x24
 800bf6c:	f04c 0c10 	orr.w	ip, ip, #16
 800bf70:	f8cd c024 	str.w	ip, [sp, #36]	; 0x24
 800bf74:	9c09      	ldr	r4, [sp, #36]	; 0x24
 800bf76:	06a2      	lsls	r2, r4, #26
 800bf78:	f100 8354 	bmi.w	800c624 <_svfprintf_r+0x838>
 800bf7c:	9c09      	ldr	r4, [sp, #36]	; 0x24
 800bf7e:	06e3      	lsls	r3, r4, #27
 800bf80:	f100 85bd 	bmi.w	800cafe <_svfprintf_r+0xd12>
 800bf84:	f8dd c024 	ldr.w	ip, [sp, #36]	; 0x24
 800bf88:	f01c 0f40 	tst.w	ip, #64	; 0x40
 800bf8c:	f000 85b7 	beq.w	800cafe <_svfprintf_r+0xd12>
 800bf90:	f8dd c040 	ldr.w	ip, [sp, #64]	; 0x40
 800bf94:	2500      	movs	r5, #0
 800bf96:	f8bc 4000 	ldrh.w	r4, [ip]
 800bf9a:	f10c 0c04 	add.w	ip, ip, #4
 800bf9e:	2301      	movs	r3, #1
 800bfa0:	f8cd c040 	str.w	ip, [sp, #64]	; 0x40
 800bfa4:	e08c      	b.n	800c0c0 <_svfprintf_r+0x2d4>
 800bfa6:	9d09      	ldr	r5, [sp, #36]	; 0x24
 800bfa8:	f045 0510 	orr.w	r5, r5, #16
 800bfac:	9509      	str	r5, [sp, #36]	; 0x24
 800bfae:	f8dd c024 	ldr.w	ip, [sp, #36]	; 0x24
 800bfb2:	f01c 0320 	ands.w	r3, ip, #32
 800bfb6:	f040 832a 	bne.w	800c60e <_svfprintf_r+0x822>
 800bfba:	f8dd c024 	ldr.w	ip, [sp, #36]	; 0x24
 800bfbe:	f01c 0210 	ands.w	r2, ip, #16
 800bfc2:	f040 85a4 	bne.w	800cb0e <_svfprintf_r+0xd22>
 800bfc6:	f8dd c024 	ldr.w	ip, [sp, #36]	; 0x24
 800bfca:	f01c 0340 	ands.w	r3, ip, #64	; 0x40
 800bfce:	f000 859e 	beq.w	800cb0e <_svfprintf_r+0xd22>
 800bfd2:	f8dd c040 	ldr.w	ip, [sp, #64]	; 0x40
 800bfd6:	4613      	mov	r3, r2
 800bfd8:	f8bc 4000 	ldrh.w	r4, [ip]
 800bfdc:	f10c 0c04 	add.w	ip, ip, #4
 800bfe0:	2500      	movs	r5, #0
 800bfe2:	f8cd c040 	str.w	ip, [sp, #64]	; 0x40
 800bfe6:	e06b      	b.n	800c0c0 <_svfprintf_r+0x2d4>
 800bfe8:	9c0f      	ldr	r4, [sp, #60]	; 0x3c
 800bfea:	9310      	str	r3, [sp, #64]	; 0x40
 800bfec:	4264      	negs	r4, r4
 800bfee:	940f      	str	r4, [sp, #60]	; 0x3c
 800bff0:	9d09      	ldr	r5, [sp, #36]	; 0x24
 800bff2:	f045 0504 	orr.w	r5, r5, #4
 800bff6:	9509      	str	r5, [sp, #36]	; 0x24
 800bff8:	f899 8000 	ldrb.w	r8, [r9]
 800bffc:	e752      	b.n	800bea4 <_svfprintf_r+0xb8>
 800bffe:	980d      	ldr	r0, [sp, #52]	; 0x34
 800c000:	990c      	ldr	r1, [sp, #48]	; 0x30
 800c002:	aa2b      	add	r2, sp, #172	; 0xac
 800c004:	f002 fc98 	bl	800e938 <__ssprint_r>
 800c008:	b940      	cbnz	r0, 800c01c <_svfprintf_r+0x230>
 800c00a:	ae38      	add	r6, sp, #224	; 0xe0
 800c00c:	e736      	b.n	800be7c <_svfprintf_r+0x90>
 800c00e:	9b2d      	ldr	r3, [sp, #180]	; 0xb4
 800c010:	b123      	cbz	r3, 800c01c <_svfprintf_r+0x230>
 800c012:	980d      	ldr	r0, [sp, #52]	; 0x34
 800c014:	990c      	ldr	r1, [sp, #48]	; 0x30
 800c016:	aa2b      	add	r2, sp, #172	; 0xac
 800c018:	f002 fc8e 	bl	800e938 <__ssprint_r>
 800c01c:	9c0c      	ldr	r4, [sp, #48]	; 0x30
 800c01e:	980e      	ldr	r0, [sp, #56]	; 0x38
 800c020:	89a3      	ldrh	r3, [r4, #12]
 800c022:	f013 0f40 	tst.w	r3, #64	; 0x40
 800c026:	bf18      	it	ne
 800c028:	f04f 30ff 	movne.w	r0, #4294967295
 800c02c:	b049      	add	sp, #292	; 0x124
 800c02e:	e8bd 8ff0 	ldmia.w	sp!, {r4, r5, r6, r7, r8, r9, sl, fp, pc}
 800c032:	464c      	mov	r4, r9
 800c034:	e725      	b.n	800be82 <_svfprintf_r+0x96>
 800c036:	f899 8000 	ldrb.w	r8, [r9]
 800c03a:	f109 0001 	add.w	r0, r9, #1
 800c03e:	f1b8 0f2a 	cmp.w	r8, #42	; 0x2a
 800c042:	f001 810c 	beq.w	800d25e <_svfprintf_r+0x1472>
 800c046:	f1a8 0330 	sub.w	r3, r8, #48	; 0x30
 800c04a:	2b09      	cmp	r3, #9
 800c04c:	bf98      	it	ls
 800c04e:	2100      	movls	r1, #0
 800c050:	f201 806b 	bhi.w	800d12a <_svfprintf_r+0x133e>
 800c054:	f810 8b01 	ldrb.w	r8, [r0], #1
 800c058:	eb01 0181 	add.w	r1, r1, r1, lsl #2
 800c05c:	eb03 0141 	add.w	r1, r3, r1, lsl #1
 800c060:	f1a8 0330 	sub.w	r3, r8, #48	; 0x30
 800c064:	2b09      	cmp	r3, #9
 800c066:	d9f5      	bls.n	800c054 <_svfprintf_r+0x268>
 800c068:	ea41 71e1 	orr.w	r1, r1, r1, asr #31
 800c06c:	910a      	str	r1, [sp, #40]	; 0x28
 800c06e:	4681      	mov	r9, r0
 800c070:	e71a      	b.n	800bea8 <_svfprintf_r+0xbc>
 800c072:	9d09      	ldr	r5, [sp, #36]	; 0x24
 800c074:	4ca1      	ldr	r4, [pc, #644]	; (800c2fc <_svfprintf_r+0x510>)
 800c076:	06af      	lsls	r7, r5, #26
 800c078:	941a      	str	r4, [sp, #104]	; 0x68
 800c07a:	f88d 208f 	strb.w	r2, [sp, #143]	; 0x8f
 800c07e:	f140 81d1 	bpl.w	800c424 <_svfprintf_r+0x638>
 800c082:	f8dd c040 	ldr.w	ip, [sp, #64]	; 0x40
 800c086:	f10c 0307 	add.w	r3, ip, #7
 800c08a:	f023 0307 	bic.w	r3, r3, #7
 800c08e:	f103 0408 	add.w	r4, r3, #8
 800c092:	9410      	str	r4, [sp, #64]	; 0x40
 800c094:	e9d3 4500 	ldrd	r4, r5, [r3]
 800c098:	f8dd c024 	ldr.w	ip, [sp, #36]	; 0x24
 800c09c:	f01c 0f01 	tst.w	ip, #1
 800c0a0:	f000 8462 	beq.w	800c968 <_svfprintf_r+0xb7c>
 800c0a4:	ea54 0005 	orrs.w	r0, r4, r5
 800c0a8:	f000 845e 	beq.w	800c968 <_svfprintf_r+0xb7c>
 800c0ac:	2330      	movs	r3, #48	; 0x30
 800c0ae:	f04c 0c02 	orr.w	ip, ip, #2
 800c0b2:	f88d 3090 	strb.w	r3, [sp, #144]	; 0x90
 800c0b6:	f88d 8091 	strb.w	r8, [sp, #145]	; 0x91
 800c0ba:	f8cd c024 	str.w	ip, [sp, #36]	; 0x24
 800c0be:	2302      	movs	r3, #2
 800c0c0:	f04f 0a00 	mov.w	sl, #0
 800c0c4:	f88d a08f 	strb.w	sl, [sp, #143]	; 0x8f
 800c0c8:	990a      	ldr	r1, [sp, #40]	; 0x28
 800c0ca:	2900      	cmp	r1, #0
 800c0cc:	db05      	blt.n	800c0da <_svfprintf_r+0x2ee>
 800c0ce:	f8dd c024 	ldr.w	ip, [sp, #36]	; 0x24
 800c0d2:	f02c 0c80 	bic.w	ip, ip, #128	; 0x80
 800c0d6:	f8cd c024 	str.w	ip, [sp, #36]	; 0x24
 800c0da:	ea54 0005 	orrs.w	r0, r4, r5
 800c0de:	f040 82c5 	bne.w	800c66c <_svfprintf_r+0x880>
 800c0e2:	990a      	ldr	r1, [sp, #40]	; 0x28
 800c0e4:	2900      	cmp	r1, #0
 800c0e6:	f040 82c1 	bne.w	800c66c <_svfprintf_r+0x880>
 800c0ea:	2b00      	cmp	r3, #0
 800c0ec:	f040 8438 	bne.w	800c960 <_svfprintf_r+0xb74>
 800c0f0:	f8dd c024 	ldr.w	ip, [sp, #36]	; 0x24
 800c0f4:	f01c 0f01 	tst.w	ip, #1
 800c0f8:	f000 8432 	beq.w	800c960 <_svfprintf_r+0xb74>
 800c0fc:	af48      	add	r7, sp, #288	; 0x120
 800c0fe:	2330      	movs	r3, #48	; 0x30
 800c100:	9d08      	ldr	r5, [sp, #32]
 800c102:	f807 3d41 	strb.w	r3, [r7, #-65]!
 800c106:	1bec      	subs	r4, r5, r7
 800c108:	f8dd c028 	ldr.w	ip, [sp, #40]	; 0x28
 800c10c:	2500      	movs	r5, #0
 800c10e:	4564      	cmp	r4, ip
 800c110:	bfa8      	it	ge
 800c112:	46a4      	movge	ip, r4
 800c114:	f8cd c02c 	str.w	ip, [sp, #44]	; 0x2c
 800c118:	9514      	str	r5, [sp, #80]	; 0x50
 800c11a:	f1ba 0f00 	cmp.w	sl, #0
 800c11e:	d002      	beq.n	800c126 <_svfprintf_r+0x33a>
 800c120:	9d0b      	ldr	r5, [sp, #44]	; 0x2c
 800c122:	3501      	adds	r5, #1
 800c124:	950b      	str	r5, [sp, #44]	; 0x2c
 800c126:	9b09      	ldr	r3, [sp, #36]	; 0x24
 800c128:	f013 0302 	ands.w	r3, r3, #2
 800c12c:	9312      	str	r3, [sp, #72]	; 0x48
 800c12e:	d002      	beq.n	800c136 <_svfprintf_r+0x34a>
 800c130:	9d0b      	ldr	r5, [sp, #44]	; 0x2c
 800c132:	3502      	adds	r5, #2
 800c134:	950b      	str	r5, [sp, #44]	; 0x2c
 800c136:	f8dd c024 	ldr.w	ip, [sp, #36]	; 0x24
 800c13a:	f01c 0c84 	ands.w	ip, ip, #132	; 0x84
 800c13e:	f8cd c04c 	str.w	ip, [sp, #76]	; 0x4c
 800c142:	f040 8290 	bne.w	800c666 <_svfprintf_r+0x87a>
 800c146:	9d0f      	ldr	r5, [sp, #60]	; 0x3c
 800c148:	f8dd c02c 	ldr.w	ip, [sp, #44]	; 0x2c
 800c14c:	ebcc 0b05 	rsb	fp, ip, r5
 800c150:	f1bb 0f00 	cmp.w	fp, #0
 800c154:	f340 8287 	ble.w	800c666 <_svfprintf_r+0x87a>
 800c158:	f1bb 0f10 	cmp.w	fp, #16
 800c15c:	992d      	ldr	r1, [sp, #180]	; 0xb4
 800c15e:	9a2c      	ldr	r2, [sp, #176]	; 0xb0
 800c160:	f8df a1a0 	ldr.w	sl, [pc, #416]	; 800c304 <_svfprintf_r+0x518>
 800c164:	dd2c      	ble.n	800c1c0 <_svfprintf_r+0x3d4>
 800c166:	971b      	str	r7, [sp, #108]	; 0x6c
 800c168:	4630      	mov	r0, r6
 800c16a:	4657      	mov	r7, sl
 800c16c:	2510      	movs	r5, #16
 800c16e:	46ca      	mov	sl, r9
 800c170:	9e0c      	ldr	r6, [sp, #48]	; 0x30
 800c172:	46a1      	mov	r9, r4
 800c174:	9c0d      	ldr	r4, [sp, #52]	; 0x34
 800c176:	e006      	b.n	800c186 <_svfprintf_r+0x39a>
 800c178:	f1ab 0b10 	sub.w	fp, fp, #16
 800c17c:	f1bb 0f10 	cmp.w	fp, #16
 800c180:	f100 0008 	add.w	r0, r0, #8
 800c184:	dd17      	ble.n	800c1b6 <_svfprintf_r+0x3ca>
 800c186:	3201      	adds	r2, #1
 800c188:	3110      	adds	r1, #16
 800c18a:	2a07      	cmp	r2, #7
 800c18c:	912d      	str	r1, [sp, #180]	; 0xb4
 800c18e:	922c      	str	r2, [sp, #176]	; 0xb0
 800c190:	6007      	str	r7, [r0, #0]
 800c192:	6045      	str	r5, [r0, #4]
 800c194:	ddf0      	ble.n	800c178 <_svfprintf_r+0x38c>
 800c196:	4620      	mov	r0, r4
 800c198:	4631      	mov	r1, r6
 800c19a:	aa2b      	add	r2, sp, #172	; 0xac
 800c19c:	f002 fbcc 	bl	800e938 <__ssprint_r>
 800c1a0:	2800      	cmp	r0, #0
 800c1a2:	f47f af3b 	bne.w	800c01c <_svfprintf_r+0x230>
 800c1a6:	f1ab 0b10 	sub.w	fp, fp, #16
 800c1aa:	f1bb 0f10 	cmp.w	fp, #16
 800c1ae:	992d      	ldr	r1, [sp, #180]	; 0xb4
 800c1b0:	9a2c      	ldr	r2, [sp, #176]	; 0xb0
 800c1b2:	a838      	add	r0, sp, #224	; 0xe0
 800c1b4:	dce7      	bgt.n	800c186 <_svfprintf_r+0x39a>
 800c1b6:	464c      	mov	r4, r9
 800c1b8:	46d1      	mov	r9, sl
 800c1ba:	46ba      	mov	sl, r7
 800c1bc:	9f1b      	ldr	r7, [sp, #108]	; 0x6c
 800c1be:	4606      	mov	r6, r0
 800c1c0:	3201      	adds	r2, #1
 800c1c2:	eb0b 0c01 	add.w	ip, fp, r1
 800c1c6:	2a07      	cmp	r2, #7
 800c1c8:	f8cd c0b4 	str.w	ip, [sp, #180]	; 0xb4
 800c1cc:	922c      	str	r2, [sp, #176]	; 0xb0
 800c1ce:	e886 0c00 	stmia.w	r6, {sl, fp}
 800c1d2:	f300 841a 	bgt.w	800ca0a <_svfprintf_r+0xc1e>
 800c1d6:	f89d a08f 	ldrb.w	sl, [sp, #143]	; 0x8f
 800c1da:	3608      	adds	r6, #8
 800c1dc:	f1ba 0f00 	cmp.w	sl, #0
 800c1e0:	d00f      	beq.n	800c202 <_svfprintf_r+0x416>
 800c1e2:	9b2c      	ldr	r3, [sp, #176]	; 0xb0
 800c1e4:	f10c 0c01 	add.w	ip, ip, #1
 800c1e8:	3301      	adds	r3, #1
 800c1ea:	f10d 018f 	add.w	r1, sp, #143	; 0x8f
 800c1ee:	2201      	movs	r2, #1
 800c1f0:	2b07      	cmp	r3, #7
 800c1f2:	f8cd c0b4 	str.w	ip, [sp, #180]	; 0xb4
 800c1f6:	932c      	str	r3, [sp, #176]	; 0xb0
 800c1f8:	e886 0006 	stmia.w	r6, {r1, r2}
 800c1fc:	f300 83a4 	bgt.w	800c948 <_svfprintf_r+0xb5c>
 800c200:	3608      	adds	r6, #8
 800c202:	9b12      	ldr	r3, [sp, #72]	; 0x48
 800c204:	b173      	cbz	r3, 800c224 <_svfprintf_r+0x438>
 800c206:	9b2c      	ldr	r3, [sp, #176]	; 0xb0
 800c208:	f10c 0c02 	add.w	ip, ip, #2
 800c20c:	3301      	adds	r3, #1
 800c20e:	a924      	add	r1, sp, #144	; 0x90
 800c210:	2202      	movs	r2, #2
 800c212:	2b07      	cmp	r3, #7
 800c214:	f8cd c0b4 	str.w	ip, [sp, #180]	; 0xb4
 800c218:	932c      	str	r3, [sp, #176]	; 0xb0
 800c21a:	e886 0006 	stmia.w	r6, {r1, r2}
 800c21e:	f300 8387 	bgt.w	800c930 <_svfprintf_r+0xb44>
 800c222:	3608      	adds	r6, #8
 800c224:	9d13      	ldr	r5, [sp, #76]	; 0x4c
 800c226:	2d80      	cmp	r5, #128	; 0x80
 800c228:	f000 82ca 	beq.w	800c7c0 <_svfprintf_r+0x9d4>
 800c22c:	9d0a      	ldr	r5, [sp, #40]	; 0x28
 800c22e:	ebc4 0a05 	rsb	sl, r4, r5
 800c232:	f1ba 0f00 	cmp.w	sl, #0
 800c236:	dd3b      	ble.n	800c2b0 <_svfprintf_r+0x4c4>
 800c238:	f1ba 0f10 	cmp.w	sl, #16
 800c23c:	9b2c      	ldr	r3, [sp, #176]	; 0xb0
 800c23e:	4d30      	ldr	r5, [pc, #192]	; (800c300 <_svfprintf_r+0x514>)
 800c240:	dd2b      	ble.n	800c29a <_svfprintf_r+0x4ae>
 800c242:	940a      	str	r4, [sp, #40]	; 0x28
 800c244:	4632      	mov	r2, r6
 800c246:	f04f 0b10 	mov.w	fp, #16
 800c24a:	462e      	mov	r6, r5
 800c24c:	4661      	mov	r1, ip
 800c24e:	9c0d      	ldr	r4, [sp, #52]	; 0x34
 800c250:	9d0c      	ldr	r5, [sp, #48]	; 0x30
 800c252:	e006      	b.n	800c262 <_svfprintf_r+0x476>
 800c254:	f1aa 0a10 	sub.w	sl, sl, #16
 800c258:	f1ba 0f10 	cmp.w	sl, #16
 800c25c:	f102 0208 	add.w	r2, r2, #8
 800c260:	dd17      	ble.n	800c292 <_svfprintf_r+0x4a6>
 800c262:	3301      	adds	r3, #1
 800c264:	3110      	adds	r1, #16
 800c266:	2b07      	cmp	r3, #7
 800c268:	912d      	str	r1, [sp, #180]	; 0xb4
 800c26a:	932c      	str	r3, [sp, #176]	; 0xb0
 800c26c:	e882 0840 	stmia.w	r2, {r6, fp}
 800c270:	ddf0      	ble.n	800c254 <_svfprintf_r+0x468>
 800c272:	4620      	mov	r0, r4
 800c274:	4629      	mov	r1, r5
 800c276:	aa2b      	add	r2, sp, #172	; 0xac
 800c278:	f002 fb5e 	bl	800e938 <__ssprint_r>
 800c27c:	2800      	cmp	r0, #0
 800c27e:	f47f aecd 	bne.w	800c01c <_svfprintf_r+0x230>
 800c282:	f1aa 0a10 	sub.w	sl, sl, #16
 800c286:	f1ba 0f10 	cmp.w	sl, #16
 800c28a:	992d      	ldr	r1, [sp, #180]	; 0xb4
 800c28c:	9b2c      	ldr	r3, [sp, #176]	; 0xb0
 800c28e:	aa38      	add	r2, sp, #224	; 0xe0
 800c290:	dce7      	bgt.n	800c262 <_svfprintf_r+0x476>
 800c292:	9c0a      	ldr	r4, [sp, #40]	; 0x28
 800c294:	4635      	mov	r5, r6
 800c296:	468c      	mov	ip, r1
 800c298:	4616      	mov	r6, r2
 800c29a:	3301      	adds	r3, #1
 800c29c:	44d4      	add	ip, sl
 800c29e:	2b07      	cmp	r3, #7
 800c2a0:	f8cd c0b4 	str.w	ip, [sp, #180]	; 0xb4
 800c2a4:	932c      	str	r3, [sp, #176]	; 0xb0
 800c2a6:	e886 0420 	stmia.w	r6, {r5, sl}
 800c2aa:	f300 8335 	bgt.w	800c918 <_svfprintf_r+0xb2c>
 800c2ae:	3608      	adds	r6, #8
 800c2b0:	9d09      	ldr	r5, [sp, #36]	; 0x24
 800c2b2:	05ed      	lsls	r5, r5, #23
 800c2b4:	f100 8224 	bmi.w	800c700 <_svfprintf_r+0x914>
 800c2b8:	9b2c      	ldr	r3, [sp, #176]	; 0xb0
 800c2ba:	44a4      	add	ip, r4
 800c2bc:	3301      	adds	r3, #1
 800c2be:	2b07      	cmp	r3, #7
 800c2c0:	f8cd c0b4 	str.w	ip, [sp, #180]	; 0xb4
 800c2c4:	6037      	str	r7, [r6, #0]
 800c2c6:	6074      	str	r4, [r6, #4]
 800c2c8:	932c      	str	r3, [sp, #176]	; 0xb0
 800c2ca:	f300 830f 	bgt.w	800c8ec <_svfprintf_r+0xb00>
 800c2ce:	3608      	adds	r6, #8
 800c2d0:	9c09      	ldr	r4, [sp, #36]	; 0x24
 800c2d2:	0763      	lsls	r3, r4, #29
 800c2d4:	d549      	bpl.n	800c36a <_svfprintf_r+0x57e>
 800c2d6:	9d0f      	ldr	r5, [sp, #60]	; 0x3c
 800c2d8:	980b      	ldr	r0, [sp, #44]	; 0x2c
 800c2da:	1a2c      	subs	r4, r5, r0
 800c2dc:	2c00      	cmp	r4, #0
 800c2de:	dd44      	ble.n	800c36a <_svfprintf_r+0x57e>
 800c2e0:	2c10      	cmp	r4, #16
 800c2e2:	9b2c      	ldr	r3, [sp, #176]	; 0xb0
 800c2e4:	f8df a01c 	ldr.w	sl, [pc, #28]	; 800c304 <_svfprintf_r+0x518>
 800c2e8:	dd2b      	ble.n	800c342 <_svfprintf_r+0x556>
 800c2ea:	4657      	mov	r7, sl
 800c2ec:	2510      	movs	r5, #16
 800c2ee:	4662      	mov	r2, ip
 800c2f0:	f8dd 8030 	ldr.w	r8, [sp, #48]	; 0x30
 800c2f4:	f8dd a034 	ldr.w	sl, [sp, #52]	; 0x34
 800c2f8:	e00b      	b.n	800c312 <_svfprintf_r+0x526>
 800c2fa:	bf00      	nop
 800c2fc:	0800fae4 	.word	0x0800fae4
 800c300:	0800fab0 	.word	0x0800fab0
 800c304:	0800fb04 	.word	0x0800fb04
 800c308:	3c10      	subs	r4, #16
 800c30a:	2c10      	cmp	r4, #16
 800c30c:	f106 0608 	add.w	r6, r6, #8
 800c310:	dd15      	ble.n	800c33e <_svfprintf_r+0x552>
 800c312:	3301      	adds	r3, #1
 800c314:	3210      	adds	r2, #16
 800c316:	2b07      	cmp	r3, #7
 800c318:	922d      	str	r2, [sp, #180]	; 0xb4
 800c31a:	932c      	str	r3, [sp, #176]	; 0xb0
 800c31c:	6037      	str	r7, [r6, #0]
 800c31e:	6075      	str	r5, [r6, #4]
 800c320:	ddf2      	ble.n	800c308 <_svfprintf_r+0x51c>
 800c322:	4650      	mov	r0, sl
 800c324:	4641      	mov	r1, r8
 800c326:	aa2b      	add	r2, sp, #172	; 0xac
 800c328:	f002 fb06 	bl	800e938 <__ssprint_r>
 800c32c:	2800      	cmp	r0, #0
 800c32e:	f47f ae75 	bne.w	800c01c <_svfprintf_r+0x230>
 800c332:	3c10      	subs	r4, #16
 800c334:	2c10      	cmp	r4, #16
 800c336:	9a2d      	ldr	r2, [sp, #180]	; 0xb4
 800c338:	9b2c      	ldr	r3, [sp, #176]	; 0xb0
 800c33a:	ae38      	add	r6, sp, #224	; 0xe0
 800c33c:	dce9      	bgt.n	800c312 <_svfprintf_r+0x526>
 800c33e:	4694      	mov	ip, r2
 800c340:	46ba      	mov	sl, r7
 800c342:	3301      	adds	r3, #1
 800c344:	44a4      	add	ip, r4
 800c346:	2b07      	cmp	r3, #7
 800c348:	f8cd c0b4 	str.w	ip, [sp, #180]	; 0xb4
 800c34c:	932c      	str	r3, [sp, #176]	; 0xb0
 800c34e:	f8c6 a000 	str.w	sl, [r6]
 800c352:	6074      	str	r4, [r6, #4]
 800c354:	dd09      	ble.n	800c36a <_svfprintf_r+0x57e>
 800c356:	980d      	ldr	r0, [sp, #52]	; 0x34
 800c358:	990c      	ldr	r1, [sp, #48]	; 0x30
 800c35a:	aa2b      	add	r2, sp, #172	; 0xac
 800c35c:	f002 faec 	bl	800e938 <__ssprint_r>
 800c360:	2800      	cmp	r0, #0
 800c362:	f47f ae5b 	bne.w	800c01c <_svfprintf_r+0x230>
 800c366:	f8dd c0b4 	ldr.w	ip, [sp, #180]	; 0xb4
 800c36a:	9c0e      	ldr	r4, [sp, #56]	; 0x38
 800c36c:	980b      	ldr	r0, [sp, #44]	; 0x2c
 800c36e:	9d0f      	ldr	r5, [sp, #60]	; 0x3c
 800c370:	42a8      	cmp	r0, r5
 800c372:	bfac      	ite	ge
 800c374:	1824      	addge	r4, r4, r0
 800c376:	1964      	addlt	r4, r4, r5
 800c378:	940e      	str	r4, [sp, #56]	; 0x38
 800c37a:	f1bc 0f00 	cmp.w	ip, #0
 800c37e:	f040 82c1 	bne.w	800c904 <_svfprintf_r+0xb18>
 800c382:	2300      	movs	r3, #0
 800c384:	932c      	str	r3, [sp, #176]	; 0xb0
 800c386:	ae38      	add	r6, sp, #224	; 0xe0
 800c388:	e556      	b.n	800be38 <_svfprintf_r+0x4c>
 800c38a:	f899 8000 	ldrb.w	r8, [r9]
 800c38e:	2a00      	cmp	r2, #0
 800c390:	f47f ad88 	bne.w	800bea4 <_svfprintf_r+0xb8>
 800c394:	2220      	movs	r2, #32
 800c396:	e585      	b.n	800bea4 <_svfprintf_r+0xb8>
 800c398:	9d09      	ldr	r5, [sp, #36]	; 0x24
 800c39a:	f045 0501 	orr.w	r5, r5, #1
 800c39e:	9509      	str	r5, [sp, #36]	; 0x24
 800c3a0:	f899 8000 	ldrb.w	r8, [r9]
 800c3a4:	e57e      	b.n	800bea4 <_svfprintf_r+0xb8>
 800c3a6:	9d09      	ldr	r5, [sp, #36]	; 0x24
 800c3a8:	f045 0580 	orr.w	r5, r5, #128	; 0x80
 800c3ac:	9509      	str	r5, [sp, #36]	; 0x24
 800c3ae:	f899 8000 	ldrb.w	r8, [r9]
 800c3b2:	e577      	b.n	800bea4 <_svfprintf_r+0xb8>
 800c3b4:	2400      	movs	r4, #0
 800c3b6:	f1a8 0330 	sub.w	r3, r8, #48	; 0x30
 800c3ba:	940f      	str	r4, [sp, #60]	; 0x3c
 800c3bc:	4621      	mov	r1, r4
 800c3be:	f819 8b01 	ldrb.w	r8, [r9], #1
 800c3c2:	eb01 0181 	add.w	r1, r1, r1, lsl #2
 800c3c6:	eb03 0141 	add.w	r1, r3, r1, lsl #1
 800c3ca:	f1a8 0330 	sub.w	r3, r8, #48	; 0x30
 800c3ce:	2b09      	cmp	r3, #9
 800c3d0:	d9f5      	bls.n	800c3be <_svfprintf_r+0x5d2>
 800c3d2:	910f      	str	r1, [sp, #60]	; 0x3c
 800c3d4:	e568      	b.n	800bea8 <_svfprintf_r+0xbc>
 800c3d6:	f8dd c024 	ldr.w	ip, [sp, #36]	; 0x24
 800c3da:	f88d 208f 	strb.w	r2, [sp, #143]	; 0x8f
 800c3de:	f04c 0c10 	orr.w	ip, ip, #16
 800c3e2:	f8cd c024 	str.w	ip, [sp, #36]	; 0x24
 800c3e6:	9c09      	ldr	r4, [sp, #36]	; 0x24
 800c3e8:	06a5      	lsls	r5, r4, #26
 800c3ea:	f140 80b2 	bpl.w	800c552 <_svfprintf_r+0x766>
 800c3ee:	9d10      	ldr	r5, [sp, #64]	; 0x40
 800c3f0:	1de9      	adds	r1, r5, #7
 800c3f2:	f021 0107 	bic.w	r1, r1, #7
 800c3f6:	e9d1 2300 	ldrd	r2, r3, [r1]
 800c3fa:	3108      	adds	r1, #8
 800c3fc:	9110      	str	r1, [sp, #64]	; 0x40
 800c3fe:	4614      	mov	r4, r2
 800c400:	461d      	mov	r5, r3
 800c402:	2a00      	cmp	r2, #0
 800c404:	f173 0c00 	sbcs.w	ip, r3, #0
 800c408:	f2c0 8394 	blt.w	800cb34 <_svfprintf_r+0xd48>
 800c40c:	f89d a08f 	ldrb.w	sl, [sp, #143]	; 0x8f
 800c410:	2301      	movs	r3, #1
 800c412:	e659      	b.n	800c0c8 <_svfprintf_r+0x2dc>
 800c414:	9d09      	ldr	r5, [sp, #36]	; 0x24
 800c416:	4cb6      	ldr	r4, [pc, #728]	; (800c6f0 <_svfprintf_r+0x904>)
 800c418:	06af      	lsls	r7, r5, #26
 800c41a:	f88d 208f 	strb.w	r2, [sp, #143]	; 0x8f
 800c41e:	941a      	str	r4, [sp, #104]	; 0x68
 800c420:	f53f ae2f 	bmi.w	800c082 <_svfprintf_r+0x296>
 800c424:	9d09      	ldr	r5, [sp, #36]	; 0x24
 800c426:	06ed      	lsls	r5, r5, #27
 800c428:	f140 8443 	bpl.w	800ccb2 <_svfprintf_r+0xec6>
 800c42c:	f8dd c040 	ldr.w	ip, [sp, #64]	; 0x40
 800c430:	2500      	movs	r5, #0
 800c432:	f8dc 4000 	ldr.w	r4, [ip]
 800c436:	f10c 0c04 	add.w	ip, ip, #4
 800c43a:	f8cd c040 	str.w	ip, [sp, #64]	; 0x40
 800c43e:	e62b      	b.n	800c098 <_svfprintf_r+0x2ac>
 800c440:	f8dd c024 	ldr.w	ip, [sp, #36]	; 0x24
 800c444:	f88d 208f 	strb.w	r2, [sp, #143]	; 0x8f
 800c448:	f01c 0f20 	tst.w	ip, #32
 800c44c:	f000 8440 	beq.w	800ccd0 <_svfprintf_r+0xee4>
 800c450:	9c10      	ldr	r4, [sp, #64]	; 0x40
 800c452:	6821      	ldr	r1, [r4, #0]
 800c454:	9c0e      	ldr	r4, [sp, #56]	; 0x38
 800c456:	17e5      	asrs	r5, r4, #31
 800c458:	462b      	mov	r3, r5
 800c45a:	9d10      	ldr	r5, [sp, #64]	; 0x40
 800c45c:	4622      	mov	r2, r4
 800c45e:	3504      	adds	r5, #4
 800c460:	9510      	str	r5, [sp, #64]	; 0x40
 800c462:	e9c1 2300 	strd	r2, r3, [r1]
 800c466:	e4e7      	b.n	800be38 <_svfprintf_r+0x4c>
 800c468:	9c10      	ldr	r4, [sp, #64]	; 0x40
 800c46a:	f04f 0a00 	mov.w	sl, #0
 800c46e:	6827      	ldr	r7, [r4, #0]
 800c470:	f88d a08f 	strb.w	sl, [sp, #143]	; 0x8f
 800c474:	1d25      	adds	r5, r4, #4
 800c476:	2f00      	cmp	r7, #0
 800c478:	f000 85e9 	beq.w	800d04e <_svfprintf_r+0x1262>
 800c47c:	9c0a      	ldr	r4, [sp, #40]	; 0x28
 800c47e:	4638      	mov	r0, r7
 800c480:	2c00      	cmp	r4, #0
 800c482:	f2c0 859b 	blt.w	800cfbc <_svfprintf_r+0x11d0>
 800c486:	4651      	mov	r1, sl
 800c488:	4622      	mov	r2, r4
 800c48a:	f001 fed9 	bl	800e240 <memchr>
 800c48e:	2800      	cmp	r0, #0
 800c490:	f000 8613 	beq.w	800d0ba <_svfprintf_r+0x12ce>
 800c494:	9c0a      	ldr	r4, [sp, #40]	; 0x28
 800c496:	1bc0      	subs	r0, r0, r7
 800c498:	42a0      	cmp	r0, r4
 800c49a:	bfb8      	it	lt
 800c49c:	4604      	movlt	r4, r0
 800c49e:	9510      	str	r5, [sp, #64]	; 0x40
 800c4a0:	ea24 75e4 	bic.w	r5, r4, r4, asr #31
 800c4a4:	f8cd a028 	str.w	sl, [sp, #40]	; 0x28
 800c4a8:	f8cd a050 	str.w	sl, [sp, #80]	; 0x50
 800c4ac:	950b      	str	r5, [sp, #44]	; 0x2c
 800c4ae:	f89d a08f 	ldrb.w	sl, [sp, #143]	; 0x8f
 800c4b2:	e632      	b.n	800c11a <_svfprintf_r+0x32e>
 800c4b4:	f8dd c024 	ldr.w	ip, [sp, #36]	; 0x24
 800c4b8:	f04c 0c40 	orr.w	ip, ip, #64	; 0x40
 800c4bc:	f8cd c024 	str.w	ip, [sp, #36]	; 0x24
 800c4c0:	f899 8000 	ldrb.w	r8, [r9]
 800c4c4:	e4ee      	b.n	800bea4 <_svfprintf_r+0xb8>
 800c4c6:	f899 8000 	ldrb.w	r8, [r9]
 800c4ca:	464b      	mov	r3, r9
 800c4cc:	f1b8 0f6c 	cmp.w	r8, #108	; 0x6c
 800c4d0:	f000 847f 	beq.w	800cdd2 <_svfprintf_r+0xfe6>
 800c4d4:	9d09      	ldr	r5, [sp, #36]	; 0x24
 800c4d6:	f045 0510 	orr.w	r5, r5, #16
 800c4da:	9509      	str	r5, [sp, #36]	; 0x24
 800c4dc:	e4e2      	b.n	800bea4 <_svfprintf_r+0xb8>
 800c4de:	9c10      	ldr	r4, [sp, #64]	; 0x40
 800c4e0:	9d10      	ldr	r5, [sp, #64]	; 0x40
 800c4e2:	6824      	ldr	r4, [r4, #0]
 800c4e4:	1d2b      	adds	r3, r5, #4
 800c4e6:	2c00      	cmp	r4, #0
 800c4e8:	940f      	str	r4, [sp, #60]	; 0x3c
 800c4ea:	f6ff ad7d 	blt.w	800bfe8 <_svfprintf_r+0x1fc>
 800c4ee:	9310      	str	r3, [sp, #64]	; 0x40
 800c4f0:	f899 8000 	ldrb.w	r8, [r9]
 800c4f4:	e4d6      	b.n	800bea4 <_svfprintf_r+0xb8>
 800c4f6:	9b10      	ldr	r3, [sp, #64]	; 0x40
 800c4f8:	f8dd c024 	ldr.w	ip, [sp, #36]	; 0x24
 800c4fc:	9d10      	ldr	r5, [sp, #64]	; 0x40
 800c4fe:	487d      	ldr	r0, [pc, #500]	; (800c6f4 <_svfprintf_r+0x908>)
 800c500:	3504      	adds	r5, #4
 800c502:	681c      	ldr	r4, [r3, #0]
 800c504:	f04f 0878 	mov.w	r8, #120	; 0x78
 800c508:	2330      	movs	r3, #48	; 0x30
 800c50a:	f04c 0c02 	orr.w	ip, ip, #2
 800c50e:	9510      	str	r5, [sp, #64]	; 0x40
 800c510:	f88d 3090 	strb.w	r3, [sp, #144]	; 0x90
 800c514:	f8cd c024 	str.w	ip, [sp, #36]	; 0x24
 800c518:	2500      	movs	r5, #0
 800c51a:	f88d 8091 	strb.w	r8, [sp, #145]	; 0x91
 800c51e:	901a      	str	r0, [sp, #104]	; 0x68
 800c520:	2302      	movs	r3, #2
 800c522:	e5cd      	b.n	800c0c0 <_svfprintf_r+0x2d4>
 800c524:	9b10      	ldr	r3, [sp, #64]	; 0x40
 800c526:	9d10      	ldr	r5, [sp, #64]	; 0x40
 800c528:	681a      	ldr	r2, [r3, #0]
 800c52a:	2401      	movs	r4, #1
 800c52c:	2300      	movs	r3, #0
 800c52e:	3504      	adds	r5, #4
 800c530:	469a      	mov	sl, r3
 800c532:	940b      	str	r4, [sp, #44]	; 0x2c
 800c534:	f88d 20b8 	strb.w	r2, [sp, #184]	; 0xb8
 800c538:	9510      	str	r5, [sp, #64]	; 0x40
 800c53a:	f88d 308f 	strb.w	r3, [sp, #143]	; 0x8f
 800c53e:	930a      	str	r3, [sp, #40]	; 0x28
 800c540:	9314      	str	r3, [sp, #80]	; 0x50
 800c542:	af2e      	add	r7, sp, #184	; 0xb8
 800c544:	e5ef      	b.n	800c126 <_svfprintf_r+0x33a>
 800c546:	9c09      	ldr	r4, [sp, #36]	; 0x24
 800c548:	f88d 208f 	strb.w	r2, [sp, #143]	; 0x8f
 800c54c:	06a5      	lsls	r5, r4, #26
 800c54e:	f53f af4e 	bmi.w	800c3ee <_svfprintf_r+0x602>
 800c552:	f8dd c024 	ldr.w	ip, [sp, #36]	; 0x24
 800c556:	f01c 0f10 	tst.w	ip, #16
 800c55a:	f040 82df 	bne.w	800cb1c <_svfprintf_r+0xd30>
 800c55e:	f8dd c024 	ldr.w	ip, [sp, #36]	; 0x24
 800c562:	f01c 0f40 	tst.w	ip, #64	; 0x40
 800c566:	f000 82d9 	beq.w	800cb1c <_svfprintf_r+0xd30>
 800c56a:	f8dd c040 	ldr.w	ip, [sp, #64]	; 0x40
 800c56e:	f9bc 4000 	ldrsh.w	r4, [ip]
 800c572:	f10c 0c04 	add.w	ip, ip, #4
 800c576:	17e5      	asrs	r5, r4, #31
 800c578:	4622      	mov	r2, r4
 800c57a:	462b      	mov	r3, r5
 800c57c:	f8cd c040 	str.w	ip, [sp, #64]	; 0x40
 800c580:	e73f      	b.n	800c402 <_svfprintf_r+0x616>
 800c582:	f899 8000 	ldrb.w	r8, [r9]
 800c586:	222b      	movs	r2, #43	; 0x2b
 800c588:	e48c      	b.n	800bea4 <_svfprintf_r+0xb8>
 800c58a:	9d09      	ldr	r5, [sp, #36]	; 0x24
 800c58c:	f045 0508 	orr.w	r5, r5, #8
 800c590:	9509      	str	r5, [sp, #36]	; 0x24
 800c592:	f899 8000 	ldrb.w	r8, [r9]
 800c596:	e485      	b.n	800bea4 <_svfprintf_r+0xb8>
 800c598:	9d10      	ldr	r5, [sp, #64]	; 0x40
 800c59a:	f88d 208f 	strb.w	r2, [sp, #143]	; 0x8f
 800c59e:	1deb      	adds	r3, r5, #7
 800c5a0:	f023 0307 	bic.w	r3, r3, #7
 800c5a4:	f103 0c08 	add.w	ip, r3, #8
 800c5a8:	f8cd c040 	str.w	ip, [sp, #64]	; 0x40
 800c5ac:	e9d3 4500 	ldrd	r4, r5, [r3]
 800c5b0:	e9cd 4516 	strd	r4, r5, [sp, #88]	; 0x58
 800c5b4:	e9dd 0116 	ldrd	r0, r1, [sp, #88]	; 0x58
 800c5b8:	f002 f996 	bl	800e8e8 <__fpclassifyd>
 800c5bc:	2801      	cmp	r0, #1
 800c5be:	e9dd 0116 	ldrd	r0, r1, [sp, #88]	; 0x58
 800c5c2:	f040 835c 	bne.w	800cc7e <_svfprintf_r+0xe92>
 800c5c6:	2200      	movs	r2, #0
 800c5c8:	2300      	movs	r3, #0
 800c5ca:	f7f8 fa37 	bl	8004a3c <__aeabi_dcmplt>
 800c5ce:	2800      	cmp	r0, #0
 800c5d0:	f040 8563 	bne.w	800d09a <_svfprintf_r+0x12ae>
 800c5d4:	f89d a08f 	ldrb.w	sl, [sp, #143]	; 0x8f
 800c5d8:	2503      	movs	r5, #3
 800c5da:	950b      	str	r5, [sp, #44]	; 0x2c
 800c5dc:	9d09      	ldr	r5, [sp, #36]	; 0x24
 800c5de:	4f46      	ldr	r7, [pc, #280]	; (800c6f8 <_svfprintf_r+0x90c>)
 800c5e0:	f025 0580 	bic.w	r5, r5, #128	; 0x80
 800c5e4:	4b45      	ldr	r3, [pc, #276]	; (800c6fc <_svfprintf_r+0x910>)
 800c5e6:	2400      	movs	r4, #0
 800c5e8:	9509      	str	r5, [sp, #36]	; 0x24
 800c5ea:	2500      	movs	r5, #0
 800c5ec:	940a      	str	r4, [sp, #40]	; 0x28
 800c5ee:	f1b8 0f47 	cmp.w	r8, #71	; 0x47
 800c5f2:	bfd8      	it	le
 800c5f4:	461f      	movle	r7, r3
 800c5f6:	2403      	movs	r4, #3
 800c5f8:	9514      	str	r5, [sp, #80]	; 0x50
 800c5fa:	e58e      	b.n	800c11a <_svfprintf_r+0x32e>
 800c5fc:	f8dd c024 	ldr.w	ip, [sp, #36]	; 0x24
 800c600:	f04c 0c20 	orr.w	ip, ip, #32
 800c604:	f8cd c024 	str.w	ip, [sp, #36]	; 0x24
 800c608:	f899 8000 	ldrb.w	r8, [r9]
 800c60c:	e44a      	b.n	800bea4 <_svfprintf_r+0xb8>
 800c60e:	9c10      	ldr	r4, [sp, #64]	; 0x40
 800c610:	1de3      	adds	r3, r4, #7
 800c612:	f023 0307 	bic.w	r3, r3, #7
 800c616:	f103 0508 	add.w	r5, r3, #8
 800c61a:	9510      	str	r5, [sp, #64]	; 0x40
 800c61c:	e9d3 4500 	ldrd	r4, r5, [r3]
 800c620:	2300      	movs	r3, #0
 800c622:	e54d      	b.n	800c0c0 <_svfprintf_r+0x2d4>
 800c624:	9d10      	ldr	r5, [sp, #64]	; 0x40
 800c626:	1deb      	adds	r3, r5, #7
 800c628:	f023 0307 	bic.w	r3, r3, #7
 800c62c:	f103 0c08 	add.w	ip, r3, #8
 800c630:	e9d3 4500 	ldrd	r4, r5, [r3]
 800c634:	f8cd c040 	str.w	ip, [sp, #64]	; 0x40
 800c638:	2301      	movs	r3, #1
 800c63a:	e541      	b.n	800c0c0 <_svfprintf_r+0x2d4>
 800c63c:	f88d 208f 	strb.w	r2, [sp, #143]	; 0x8f
 800c640:	f1b8 0f00 	cmp.w	r8, #0
 800c644:	f43f ace3 	beq.w	800c00e <_svfprintf_r+0x222>
 800c648:	2300      	movs	r3, #0
 800c64a:	f04f 0c01 	mov.w	ip, #1
 800c64e:	469a      	mov	sl, r3
 800c650:	f8cd c02c 	str.w	ip, [sp, #44]	; 0x2c
 800c654:	f88d 80b8 	strb.w	r8, [sp, #184]	; 0xb8
 800c658:	f88d 308f 	strb.w	r3, [sp, #143]	; 0x8f
 800c65c:	930a      	str	r3, [sp, #40]	; 0x28
 800c65e:	9314      	str	r3, [sp, #80]	; 0x50
 800c660:	4664      	mov	r4, ip
 800c662:	af2e      	add	r7, sp, #184	; 0xb8
 800c664:	e55f      	b.n	800c126 <_svfprintf_r+0x33a>
 800c666:	f8dd c0b4 	ldr.w	ip, [sp, #180]	; 0xb4
 800c66a:	e5b7      	b.n	800c1dc <_svfprintf_r+0x3f0>
 800c66c:	2b01      	cmp	r3, #1
 800c66e:	f000 80ec 	beq.w	800c84a <_svfprintf_r+0xa5e>
 800c672:	2b02      	cmp	r3, #2
 800c674:	f10d 03df 	add.w	r3, sp, #223	; 0xdf
 800c678:	d118      	bne.n	800c6ac <_svfprintf_r+0x8c0>
 800c67a:	f8dd c068 	ldr.w	ip, [sp, #104]	; 0x68
 800c67e:	4619      	mov	r1, r3
 800c680:	f004 000f 	and.w	r0, r4, #15
 800c684:	0922      	lsrs	r2, r4, #4
 800c686:	f81c 0000 	ldrb.w	r0, [ip, r0]
 800c68a:	ea42 7205 	orr.w	r2, r2, r5, lsl #28
 800c68e:	092b      	lsrs	r3, r5, #4
 800c690:	7008      	strb	r0, [r1, #0]
 800c692:	ea52 0003 	orrs.w	r0, r2, r3
 800c696:	460f      	mov	r7, r1
 800c698:	4614      	mov	r4, r2
 800c69a:	461d      	mov	r5, r3
 800c69c:	f101 31ff 	add.w	r1, r1, #4294967295
 800c6a0:	d1ee      	bne.n	800c680 <_svfprintf_r+0x894>
 800c6a2:	9d08      	ldr	r5, [sp, #32]
 800c6a4:	e9cd 231e 	strd	r2, r3, [sp, #120]	; 0x78
 800c6a8:	1bec      	subs	r4, r5, r7
 800c6aa:	e52d      	b.n	800c108 <_svfprintf_r+0x31c>
 800c6ac:	08e0      	lsrs	r0, r4, #3
 800c6ae:	ea40 7045 	orr.w	r0, r0, r5, lsl #29
 800c6b2:	f004 0207 	and.w	r2, r4, #7
 800c6b6:	08e9      	lsrs	r1, r5, #3
 800c6b8:	3230      	adds	r2, #48	; 0x30
 800c6ba:	ea50 0c01 	orrs.w	ip, r0, r1
 800c6be:	461f      	mov	r7, r3
 800c6c0:	701a      	strb	r2, [r3, #0]
 800c6c2:	4604      	mov	r4, r0
 800c6c4:	460d      	mov	r5, r1
 800c6c6:	f103 33ff 	add.w	r3, r3, #4294967295
 800c6ca:	d1ef      	bne.n	800c6ac <_svfprintf_r+0x8c0>
 800c6cc:	9c09      	ldr	r4, [sp, #36]	; 0x24
 800c6ce:	e9cd 011c 	strd	r0, r1, [sp, #112]	; 0x70
 800c6d2:	07e0      	lsls	r0, r4, #31
 800c6d4:	4639      	mov	r1, r7
 800c6d6:	f140 80c1 	bpl.w	800c85c <_svfprintf_r+0xa70>
 800c6da:	2a30      	cmp	r2, #48	; 0x30
 800c6dc:	f000 80be 	beq.w	800c85c <_svfprintf_r+0xa70>
 800c6e0:	9d08      	ldr	r5, [sp, #32]
 800c6e2:	461f      	mov	r7, r3
 800c6e4:	2330      	movs	r3, #48	; 0x30
 800c6e6:	1bec      	subs	r4, r5, r7
 800c6e8:	f801 3c01 	strb.w	r3, [r1, #-1]
 800c6ec:	e50c      	b.n	800c108 <_svfprintf_r+0x31c>
 800c6ee:	bf00      	nop
 800c6f0:	0800fad0 	.word	0x0800fad0
 800c6f4:	0800fae4 	.word	0x0800fae4
 800c6f8:	0800fac4 	.word	0x0800fac4
 800c6fc:	0800fac0 	.word	0x0800fac0
 800c700:	f1b8 0f65 	cmp.w	r8, #101	; 0x65
 800c704:	f340 80ad 	ble.w	800c862 <_svfprintf_r+0xa76>
 800c708:	e9dd 0116 	ldrd	r0, r1, [sp, #88]	; 0x58
 800c70c:	2200      	movs	r2, #0
 800c70e:	2300      	movs	r3, #0
 800c710:	f8cd c01c 	str.w	ip, [sp, #28]
 800c714:	f7f8 f988 	bl	8004a28 <__aeabi_dcmpeq>
 800c718:	f8dd c01c 	ldr.w	ip, [sp, #28]
 800c71c:	2800      	cmp	r0, #0
 800c71e:	f000 8126 	beq.w	800c96e <_svfprintf_r+0xb82>
 800c722:	9b2c      	ldr	r3, [sp, #176]	; 0xb0
 800c724:	49aa      	ldr	r1, [pc, #680]	; (800c9d0 <_svfprintf_r+0xbe4>)
 800c726:	3301      	adds	r3, #1
 800c728:	f10c 0c01 	add.w	ip, ip, #1
 800c72c:	2201      	movs	r2, #1
 800c72e:	2b07      	cmp	r3, #7
 800c730:	f8cd c0b4 	str.w	ip, [sp, #180]	; 0xb4
 800c734:	932c      	str	r3, [sp, #176]	; 0xb0
 800c736:	e886 0006 	stmia.w	r6, {r1, r2}
 800c73a:	f300 82ed 	bgt.w	800cd18 <_svfprintf_r+0xf2c>
 800c73e:	3608      	adds	r6, #8
 800c740:	9b25      	ldr	r3, [sp, #148]	; 0x94
 800c742:	9c11      	ldr	r4, [sp, #68]	; 0x44
 800c744:	42a3      	cmp	r3, r4
 800c746:	db03      	blt.n	800c750 <_svfprintf_r+0x964>
 800c748:	9d09      	ldr	r5, [sp, #36]	; 0x24
 800c74a:	07ec      	lsls	r4, r5, #31
 800c74c:	f57f adc0 	bpl.w	800c2d0 <_svfprintf_r+0x4e4>
 800c750:	9b2c      	ldr	r3, [sp, #176]	; 0xb0
 800c752:	9c18      	ldr	r4, [sp, #96]	; 0x60
 800c754:	3301      	adds	r3, #1
 800c756:	9d15      	ldr	r5, [sp, #84]	; 0x54
 800c758:	44a4      	add	ip, r4
 800c75a:	2b07      	cmp	r3, #7
 800c75c:	f8cd c0b4 	str.w	ip, [sp, #180]	; 0xb4
 800c760:	6035      	str	r5, [r6, #0]
 800c762:	6074      	str	r4, [r6, #4]
 800c764:	932c      	str	r3, [sp, #176]	; 0xb0
 800c766:	f300 833e 	bgt.w	800cde6 <_svfprintf_r+0xffa>
 800c76a:	3608      	adds	r6, #8
 800c76c:	9d11      	ldr	r5, [sp, #68]	; 0x44
 800c76e:	1e6c      	subs	r4, r5, #1
 800c770:	2c00      	cmp	r4, #0
 800c772:	f77f adad 	ble.w	800c2d0 <_svfprintf_r+0x4e4>
 800c776:	2c10      	cmp	r4, #16
 800c778:	9b2c      	ldr	r3, [sp, #176]	; 0xb0
 800c77a:	4d96      	ldr	r5, [pc, #600]	; (800c9d4 <_svfprintf_r+0xbe8>)
 800c77c:	f340 8197 	ble.w	800caae <_svfprintf_r+0xcc2>
 800c780:	2710      	movs	r7, #16
 800c782:	4662      	mov	r2, ip
 800c784:	f8dd 8034 	ldr.w	r8, [sp, #52]	; 0x34
 800c788:	f8dd a030 	ldr.w	sl, [sp, #48]	; 0x30
 800c78c:	e004      	b.n	800c798 <_svfprintf_r+0x9ac>
 800c78e:	3608      	adds	r6, #8
 800c790:	3c10      	subs	r4, #16
 800c792:	2c10      	cmp	r4, #16
 800c794:	f340 818a 	ble.w	800caac <_svfprintf_r+0xcc0>
 800c798:	3301      	adds	r3, #1
 800c79a:	3210      	adds	r2, #16
 800c79c:	2b07      	cmp	r3, #7
 800c79e:	922d      	str	r2, [sp, #180]	; 0xb4
 800c7a0:	932c      	str	r3, [sp, #176]	; 0xb0
 800c7a2:	e886 00a0 	stmia.w	r6, {r5, r7}
 800c7a6:	ddf2      	ble.n	800c78e <_svfprintf_r+0x9a2>
 800c7a8:	4640      	mov	r0, r8
 800c7aa:	4651      	mov	r1, sl
 800c7ac:	aa2b      	add	r2, sp, #172	; 0xac
 800c7ae:	f002 f8c3 	bl	800e938 <__ssprint_r>
 800c7b2:	2800      	cmp	r0, #0
 800c7b4:	f47f ac32 	bne.w	800c01c <_svfprintf_r+0x230>
 800c7b8:	9a2d      	ldr	r2, [sp, #180]	; 0xb4
 800c7ba:	9b2c      	ldr	r3, [sp, #176]	; 0xb0
 800c7bc:	ae38      	add	r6, sp, #224	; 0xe0
 800c7be:	e7e7      	b.n	800c790 <_svfprintf_r+0x9a4>
 800c7c0:	9d0f      	ldr	r5, [sp, #60]	; 0x3c
 800c7c2:	980b      	ldr	r0, [sp, #44]	; 0x2c
 800c7c4:	ebc0 0a05 	rsb	sl, r0, r5
 800c7c8:	f1ba 0f00 	cmp.w	sl, #0
 800c7cc:	f77f ad2e 	ble.w	800c22c <_svfprintf_r+0x440>
 800c7d0:	f1ba 0f10 	cmp.w	sl, #16
 800c7d4:	9b2c      	ldr	r3, [sp, #176]	; 0xb0
 800c7d6:	4d7f      	ldr	r5, [pc, #508]	; (800c9d4 <_svfprintf_r+0xbe8>)
 800c7d8:	dd2b      	ble.n	800c832 <_svfprintf_r+0xa46>
 800c7da:	9412      	str	r4, [sp, #72]	; 0x48
 800c7dc:	4632      	mov	r2, r6
 800c7de:	f04f 0b10 	mov.w	fp, #16
 800c7e2:	462e      	mov	r6, r5
 800c7e4:	4661      	mov	r1, ip
 800c7e6:	9c0d      	ldr	r4, [sp, #52]	; 0x34
 800c7e8:	9d0c      	ldr	r5, [sp, #48]	; 0x30
 800c7ea:	e006      	b.n	800c7fa <_svfprintf_r+0xa0e>
 800c7ec:	f1aa 0a10 	sub.w	sl, sl, #16
 800c7f0:	f1ba 0f10 	cmp.w	sl, #16
 800c7f4:	f102 0208 	add.w	r2, r2, #8
 800c7f8:	dd17      	ble.n	800c82a <_svfprintf_r+0xa3e>
 800c7fa:	3301      	adds	r3, #1
 800c7fc:	3110      	adds	r1, #16
 800c7fe:	2b07      	cmp	r3, #7
 800c800:	912d      	str	r1, [sp, #180]	; 0xb4
 800c802:	932c      	str	r3, [sp, #176]	; 0xb0
 800c804:	e882 0840 	stmia.w	r2, {r6, fp}
 800c808:	ddf0      	ble.n	800c7ec <_svfprintf_r+0xa00>
 800c80a:	4620      	mov	r0, r4
 800c80c:	4629      	mov	r1, r5
 800c80e:	aa2b      	add	r2, sp, #172	; 0xac
 800c810:	f002 f892 	bl	800e938 <__ssprint_r>
 800c814:	2800      	cmp	r0, #0
 800c816:	f47f ac01 	bne.w	800c01c <_svfprintf_r+0x230>
 800c81a:	f1aa 0a10 	sub.w	sl, sl, #16
 800c81e:	f1ba 0f10 	cmp.w	sl, #16
 800c822:	992d      	ldr	r1, [sp, #180]	; 0xb4
 800c824:	9b2c      	ldr	r3, [sp, #176]	; 0xb0
 800c826:	aa38      	add	r2, sp, #224	; 0xe0
 800c828:	dce7      	bgt.n	800c7fa <_svfprintf_r+0xa0e>
 800c82a:	9c12      	ldr	r4, [sp, #72]	; 0x48
 800c82c:	4635      	mov	r5, r6
 800c82e:	468c      	mov	ip, r1
 800c830:	4616      	mov	r6, r2
 800c832:	3301      	adds	r3, #1
 800c834:	44d4      	add	ip, sl
 800c836:	2b07      	cmp	r3, #7
 800c838:	f8cd c0b4 	str.w	ip, [sp, #180]	; 0xb4
 800c83c:	932c      	str	r3, [sp, #176]	; 0xb0
 800c83e:	e886 0420 	stmia.w	r6, {r5, sl}
 800c842:	f300 820f 	bgt.w	800cc64 <_svfprintf_r+0xe78>
 800c846:	3608      	adds	r6, #8
 800c848:	e4f0      	b.n	800c22c <_svfprintf_r+0x440>
 800c84a:	2d00      	cmp	r5, #0
 800c84c:	bf08      	it	eq
 800c84e:	2c0a      	cmpeq	r4, #10
 800c850:	f080 8138 	bcs.w	800cac4 <_svfprintf_r+0xcd8>
 800c854:	3430      	adds	r4, #48	; 0x30
 800c856:	af48      	add	r7, sp, #288	; 0x120
 800c858:	f807 4d41 	strb.w	r4, [r7, #-65]!
 800c85c:	9d08      	ldr	r5, [sp, #32]
 800c85e:	1bec      	subs	r4, r5, r7
 800c860:	e452      	b.n	800c108 <_svfprintf_r+0x31c>
 800c862:	9c11      	ldr	r4, [sp, #68]	; 0x44
 800c864:	2c01      	cmp	r4, #1
 800c866:	9c2c      	ldr	r4, [sp, #176]	; 0xb0
 800c868:	f340 81d2 	ble.w	800cc10 <_svfprintf_r+0xe24>
 800c86c:	3401      	adds	r4, #1
 800c86e:	f10c 0301 	add.w	r3, ip, #1
 800c872:	2201      	movs	r2, #1
 800c874:	2c07      	cmp	r4, #7
 800c876:	932d      	str	r3, [sp, #180]	; 0xb4
 800c878:	6037      	str	r7, [r6, #0]
 800c87a:	942c      	str	r4, [sp, #176]	; 0xb0
 800c87c:	6072      	str	r2, [r6, #4]
 800c87e:	f300 81d8 	bgt.w	800cc32 <_svfprintf_r+0xe46>
 800c882:	3608      	adds	r6, #8
 800c884:	9d15      	ldr	r5, [sp, #84]	; 0x54
 800c886:	f8dd 8060 	ldr.w	r8, [sp, #96]	; 0x60
 800c88a:	3401      	adds	r4, #1
 800c88c:	6035      	str	r5, [r6, #0]
 800c88e:	9d18      	ldr	r5, [sp, #96]	; 0x60
 800c890:	4498      	add	r8, r3
 800c892:	2c07      	cmp	r4, #7
 800c894:	f8cd 80b4 	str.w	r8, [sp, #180]	; 0xb4
 800c898:	942c      	str	r4, [sp, #176]	; 0xb0
 800c89a:	6075      	str	r5, [r6, #4]
 800c89c:	f300 81d5 	bgt.w	800cc4a <_svfprintf_r+0xe5e>
 800c8a0:	3608      	adds	r6, #8
 800c8a2:	e9dd 0116 	ldrd	r0, r1, [sp, #88]	; 0x58
 800c8a6:	2200      	movs	r2, #0
 800c8a8:	2300      	movs	r3, #0
 800c8aa:	f7f8 f8bd 	bl	8004a28 <__aeabi_dcmpeq>
 800c8ae:	9d11      	ldr	r5, [sp, #68]	; 0x44
 800c8b0:	2800      	cmp	r0, #0
 800c8b2:	f040 80b9 	bne.w	800ca28 <_svfprintf_r+0xc3c>
 800c8b6:	1e6b      	subs	r3, r5, #1
 800c8b8:	3401      	adds	r4, #1
 800c8ba:	3701      	adds	r7, #1
 800c8bc:	4498      	add	r8, r3
 800c8be:	2c07      	cmp	r4, #7
 800c8c0:	942c      	str	r4, [sp, #176]	; 0xb0
 800c8c2:	f8cd 80b4 	str.w	r8, [sp, #180]	; 0xb4
 800c8c6:	6037      	str	r7, [r6, #0]
 800c8c8:	6073      	str	r3, [r6, #4]
 800c8ca:	f300 80e2 	bgt.w	800ca92 <_svfprintf_r+0xca6>
 800c8ce:	3608      	adds	r6, #8
 800c8d0:	f8dd c064 	ldr.w	ip, [sp, #100]	; 0x64
 800c8d4:	3401      	adds	r4, #1
 800c8d6:	9d19      	ldr	r5, [sp, #100]	; 0x64
 800c8d8:	44c4      	add	ip, r8
 800c8da:	ab27      	add	r3, sp, #156	; 0x9c
 800c8dc:	2c07      	cmp	r4, #7
 800c8de:	f8cd c0b4 	str.w	ip, [sp, #180]	; 0xb4
 800c8e2:	942c      	str	r4, [sp, #176]	; 0xb0
 800c8e4:	e886 0028 	stmia.w	r6, {r3, r5}
 800c8e8:	f77f acf1 	ble.w	800c2ce <_svfprintf_r+0x4e2>
 800c8ec:	980d      	ldr	r0, [sp, #52]	; 0x34
 800c8ee:	990c      	ldr	r1, [sp, #48]	; 0x30
 800c8f0:	aa2b      	add	r2, sp, #172	; 0xac
 800c8f2:	f002 f821 	bl	800e938 <__ssprint_r>
 800c8f6:	2800      	cmp	r0, #0
 800c8f8:	f47f ab90 	bne.w	800c01c <_svfprintf_r+0x230>
 800c8fc:	f8dd c0b4 	ldr.w	ip, [sp, #180]	; 0xb4
 800c900:	ae38      	add	r6, sp, #224	; 0xe0
 800c902:	e4e5      	b.n	800c2d0 <_svfprintf_r+0x4e4>
 800c904:	980d      	ldr	r0, [sp, #52]	; 0x34
 800c906:	990c      	ldr	r1, [sp, #48]	; 0x30
 800c908:	aa2b      	add	r2, sp, #172	; 0xac
 800c90a:	f002 f815 	bl	800e938 <__ssprint_r>
 800c90e:	2800      	cmp	r0, #0
 800c910:	f43f ad37 	beq.w	800c382 <_svfprintf_r+0x596>
 800c914:	f7ff bb82 	b.w	800c01c <_svfprintf_r+0x230>
 800c918:	980d      	ldr	r0, [sp, #52]	; 0x34
 800c91a:	990c      	ldr	r1, [sp, #48]	; 0x30
 800c91c:	aa2b      	add	r2, sp, #172	; 0xac
 800c91e:	f002 f80b 	bl	800e938 <__ssprint_r>
 800c922:	2800      	cmp	r0, #0
 800c924:	f47f ab7a 	bne.w	800c01c <_svfprintf_r+0x230>
 800c928:	f8dd c0b4 	ldr.w	ip, [sp, #180]	; 0xb4
 800c92c:	ae38      	add	r6, sp, #224	; 0xe0
 800c92e:	e4bf      	b.n	800c2b0 <_svfprintf_r+0x4c4>
 800c930:	980d      	ldr	r0, [sp, #52]	; 0x34
 800c932:	990c      	ldr	r1, [sp, #48]	; 0x30
 800c934:	aa2b      	add	r2, sp, #172	; 0xac
 800c936:	f001 ffff 	bl	800e938 <__ssprint_r>
 800c93a:	2800      	cmp	r0, #0
 800c93c:	f47f ab6e 	bne.w	800c01c <_svfprintf_r+0x230>
 800c940:	f8dd c0b4 	ldr.w	ip, [sp, #180]	; 0xb4
 800c944:	ae38      	add	r6, sp, #224	; 0xe0
 800c946:	e46d      	b.n	800c224 <_svfprintf_r+0x438>
 800c948:	980d      	ldr	r0, [sp, #52]	; 0x34
 800c94a:	990c      	ldr	r1, [sp, #48]	; 0x30
 800c94c:	aa2b      	add	r2, sp, #172	; 0xac
 800c94e:	f001 fff3 	bl	800e938 <__ssprint_r>
 800c952:	2800      	cmp	r0, #0
 800c954:	f47f ab62 	bne.w	800c01c <_svfprintf_r+0x230>
 800c958:	f8dd c0b4 	ldr.w	ip, [sp, #180]	; 0xb4
 800c95c:	ae38      	add	r6, sp, #224	; 0xe0
 800c95e:	e450      	b.n	800c202 <_svfprintf_r+0x416>
 800c960:	9c0a      	ldr	r4, [sp, #40]	; 0x28
 800c962:	af38      	add	r7, sp, #224	; 0xe0
 800c964:	f7ff bbd0 	b.w	800c108 <_svfprintf_r+0x31c>
 800c968:	2302      	movs	r3, #2
 800c96a:	f7ff bba9 	b.w	800c0c0 <_svfprintf_r+0x2d4>
 800c96e:	9b25      	ldr	r3, [sp, #148]	; 0x94
 800c970:	2b00      	cmp	r3, #0
 800c972:	f340 81dd 	ble.w	800cd30 <_svfprintf_r+0xf44>
 800c976:	9c11      	ldr	r4, [sp, #68]	; 0x44
 800c978:	9d14      	ldr	r5, [sp, #80]	; 0x50
 800c97a:	f8dd a044 	ldr.w	sl, [sp, #68]	; 0x44
 800c97e:	42ac      	cmp	r4, r5
 800c980:	bfa8      	it	ge
 800c982:	462c      	movge	r4, r5
 800c984:	2c00      	cmp	r4, #0
 800c986:	44ba      	add	sl, r7
 800c988:	dd0b      	ble.n	800c9a2 <_svfprintf_r+0xbb6>
 800c98a:	9b2c      	ldr	r3, [sp, #176]	; 0xb0
 800c98c:	44a4      	add	ip, r4
 800c98e:	3301      	adds	r3, #1
 800c990:	2b07      	cmp	r3, #7
 800c992:	f8cd c0b4 	str.w	ip, [sp, #180]	; 0xb4
 800c996:	6037      	str	r7, [r6, #0]
 800c998:	6074      	str	r4, [r6, #4]
 800c99a:	932c      	str	r3, [sp, #176]	; 0xb0
 800c99c:	f300 831e 	bgt.w	800cfdc <_svfprintf_r+0x11f0>
 800c9a0:	3608      	adds	r6, #8
 800c9a2:	9d14      	ldr	r5, [sp, #80]	; 0x50
 800c9a4:	ea24 74e4 	bic.w	r4, r4, r4, asr #31
 800c9a8:	1b2c      	subs	r4, r5, r4
 800c9aa:	2c00      	cmp	r4, #0
 800c9ac:	f340 80d7 	ble.w	800cb5e <_svfprintf_r+0xd72>
 800c9b0:	2c10      	cmp	r4, #16
 800c9b2:	9b2c      	ldr	r3, [sp, #176]	; 0xb0
 800c9b4:	4d07      	ldr	r5, [pc, #28]	; (800c9d4 <_svfprintf_r+0xbe8>)
 800c9b6:	f340 81a3 	ble.w	800cd00 <_svfprintf_r+0xf14>
 800c9ba:	970a      	str	r7, [sp, #40]	; 0x28
 800c9bc:	f04f 0810 	mov.w	r8, #16
 800c9c0:	462f      	mov	r7, r5
 800c9c2:	4662      	mov	r2, ip
 800c9c4:	4625      	mov	r5, r4
 800c9c6:	f8dd b034 	ldr.w	fp, [sp, #52]	; 0x34
 800c9ca:	9c0c      	ldr	r4, [sp, #48]	; 0x30
 800c9cc:	e009      	b.n	800c9e2 <_svfprintf_r+0xbf6>
 800c9ce:	bf00      	nop
 800c9d0:	0800fb00 	.word	0x0800fb00
 800c9d4:	0800fab0 	.word	0x0800fab0
 800c9d8:	3608      	adds	r6, #8
 800c9da:	3d10      	subs	r5, #16
 800c9dc:	2d10      	cmp	r5, #16
 800c9de:	f340 818b 	ble.w	800ccf8 <_svfprintf_r+0xf0c>
 800c9e2:	3301      	adds	r3, #1
 800c9e4:	3210      	adds	r2, #16
 800c9e6:	2b07      	cmp	r3, #7
 800c9e8:	922d      	str	r2, [sp, #180]	; 0xb4
 800c9ea:	932c      	str	r3, [sp, #176]	; 0xb0
 800c9ec:	e886 0180 	stmia.w	r6, {r7, r8}
 800c9f0:	ddf2      	ble.n	800c9d8 <_svfprintf_r+0xbec>
 800c9f2:	4658      	mov	r0, fp
 800c9f4:	4621      	mov	r1, r4
 800c9f6:	aa2b      	add	r2, sp, #172	; 0xac
 800c9f8:	f001 ff9e 	bl	800e938 <__ssprint_r>
 800c9fc:	2800      	cmp	r0, #0
 800c9fe:	f47f ab0d 	bne.w	800c01c <_svfprintf_r+0x230>
 800ca02:	9a2d      	ldr	r2, [sp, #180]	; 0xb4
 800ca04:	9b2c      	ldr	r3, [sp, #176]	; 0xb0
 800ca06:	ae38      	add	r6, sp, #224	; 0xe0
 800ca08:	e7e7      	b.n	800c9da <_svfprintf_r+0xbee>
 800ca0a:	980d      	ldr	r0, [sp, #52]	; 0x34
 800ca0c:	990c      	ldr	r1, [sp, #48]	; 0x30
 800ca0e:	aa2b      	add	r2, sp, #172	; 0xac
 800ca10:	f001 ff92 	bl	800e938 <__ssprint_r>
 800ca14:	2800      	cmp	r0, #0
 800ca16:	f47f ab01 	bne.w	800c01c <_svfprintf_r+0x230>
 800ca1a:	f89d a08f 	ldrb.w	sl, [sp, #143]	; 0x8f
 800ca1e:	f8dd c0b4 	ldr.w	ip, [sp, #180]	; 0xb4
 800ca22:	ae38      	add	r6, sp, #224	; 0xe0
 800ca24:	f7ff bbda 	b.w	800c1dc <_svfprintf_r+0x3f0>
 800ca28:	1e6f      	subs	r7, r5, #1
 800ca2a:	2f00      	cmp	r7, #0
 800ca2c:	f77f af50 	ble.w	800c8d0 <_svfprintf_r+0xae4>
 800ca30:	2f10      	cmp	r7, #16
 800ca32:	4dae      	ldr	r5, [pc, #696]	; (800ccec <_svfprintf_r+0xf00>)
 800ca34:	dd23      	ble.n	800ca7e <_svfprintf_r+0xc92>
 800ca36:	4643      	mov	r3, r8
 800ca38:	f04f 0a10 	mov.w	sl, #16
 800ca3c:	f8dd 8034 	ldr.w	r8, [sp, #52]	; 0x34
 800ca40:	f8dd b030 	ldr.w	fp, [sp, #48]	; 0x30
 800ca44:	e004      	b.n	800ca50 <_svfprintf_r+0xc64>
 800ca46:	3f10      	subs	r7, #16
 800ca48:	2f10      	cmp	r7, #16
 800ca4a:	f106 0608 	add.w	r6, r6, #8
 800ca4e:	dd15      	ble.n	800ca7c <_svfprintf_r+0xc90>
 800ca50:	3401      	adds	r4, #1
 800ca52:	3310      	adds	r3, #16
 800ca54:	2c07      	cmp	r4, #7
 800ca56:	932d      	str	r3, [sp, #180]	; 0xb4
 800ca58:	942c      	str	r4, [sp, #176]	; 0xb0
 800ca5a:	e886 0420 	stmia.w	r6, {r5, sl}
 800ca5e:	ddf2      	ble.n	800ca46 <_svfprintf_r+0xc5a>
 800ca60:	4640      	mov	r0, r8
 800ca62:	4659      	mov	r1, fp
 800ca64:	aa2b      	add	r2, sp, #172	; 0xac
 800ca66:	f001 ff67 	bl	800e938 <__ssprint_r>
 800ca6a:	2800      	cmp	r0, #0
 800ca6c:	f47f aad6 	bne.w	800c01c <_svfprintf_r+0x230>
 800ca70:	3f10      	subs	r7, #16
 800ca72:	2f10      	cmp	r7, #16
 800ca74:	9b2d      	ldr	r3, [sp, #180]	; 0xb4
 800ca76:	9c2c      	ldr	r4, [sp, #176]	; 0xb0
 800ca78:	ae38      	add	r6, sp, #224	; 0xe0
 800ca7a:	dce9      	bgt.n	800ca50 <_svfprintf_r+0xc64>
 800ca7c:	4698      	mov	r8, r3
 800ca7e:	3401      	adds	r4, #1
 800ca80:	44b8      	add	r8, r7
 800ca82:	2c07      	cmp	r4, #7
 800ca84:	f8cd 80b4 	str.w	r8, [sp, #180]	; 0xb4
 800ca88:	942c      	str	r4, [sp, #176]	; 0xb0
 800ca8a:	e886 00a0 	stmia.w	r6, {r5, r7}
 800ca8e:	f77f af1e 	ble.w	800c8ce <_svfprintf_r+0xae2>
 800ca92:	980d      	ldr	r0, [sp, #52]	; 0x34
 800ca94:	990c      	ldr	r1, [sp, #48]	; 0x30
 800ca96:	aa2b      	add	r2, sp, #172	; 0xac
 800ca98:	f001 ff4e 	bl	800e938 <__ssprint_r>
 800ca9c:	2800      	cmp	r0, #0
 800ca9e:	f47f aabd 	bne.w	800c01c <_svfprintf_r+0x230>
 800caa2:	f8dd 80b4 	ldr.w	r8, [sp, #180]	; 0xb4
 800caa6:	9c2c      	ldr	r4, [sp, #176]	; 0xb0
 800caa8:	ae38      	add	r6, sp, #224	; 0xe0
 800caaa:	e711      	b.n	800c8d0 <_svfprintf_r+0xae4>
 800caac:	4694      	mov	ip, r2
 800caae:	3301      	adds	r3, #1
 800cab0:	44a4      	add	ip, r4
 800cab2:	2b07      	cmp	r3, #7
 800cab4:	f8cd c0b4 	str.w	ip, [sp, #180]	; 0xb4
 800cab8:	932c      	str	r3, [sp, #176]	; 0xb0
 800caba:	6035      	str	r5, [r6, #0]
 800cabc:	6074      	str	r4, [r6, #4]
 800cabe:	f77f ac06 	ble.w	800c2ce <_svfprintf_r+0x4e2>
 800cac2:	e713      	b.n	800c8ec <_svfprintf_r+0xb00>
 800cac4:	f10d 0bdf 	add.w	fp, sp, #223	; 0xdf
 800cac8:	4620      	mov	r0, r4
 800caca:	4629      	mov	r1, r5
 800cacc:	220a      	movs	r2, #10
 800cace:	2300      	movs	r3, #0
 800cad0:	f7f8 fbc4 	bl	800525c <__aeabi_uldivmod>
 800cad4:	3230      	adds	r2, #48	; 0x30
 800cad6:	f88b 2000 	strb.w	r2, [fp]
 800cada:	4620      	mov	r0, r4
 800cadc:	4629      	mov	r1, r5
 800cade:	220a      	movs	r2, #10
 800cae0:	2300      	movs	r3, #0
 800cae2:	f7f8 fbbb 	bl	800525c <__aeabi_uldivmod>
 800cae6:	4604      	mov	r4, r0
 800cae8:	460d      	mov	r5, r1
 800caea:	ea54 0c05 	orrs.w	ip, r4, r5
 800caee:	465f      	mov	r7, fp
 800caf0:	f10b 3bff 	add.w	fp, fp, #4294967295
 800caf4:	d1e8      	bne.n	800cac8 <_svfprintf_r+0xcdc>
 800caf6:	9d08      	ldr	r5, [sp, #32]
 800caf8:	1bec      	subs	r4, r5, r7
 800cafa:	f7ff bb05 	b.w	800c108 <_svfprintf_r+0x31c>
 800cafe:	9d10      	ldr	r5, [sp, #64]	; 0x40
 800cb00:	2301      	movs	r3, #1
 800cb02:	682c      	ldr	r4, [r5, #0]
 800cb04:	3504      	adds	r5, #4
 800cb06:	9510      	str	r5, [sp, #64]	; 0x40
 800cb08:	2500      	movs	r5, #0
 800cb0a:	f7ff bad9 	b.w	800c0c0 <_svfprintf_r+0x2d4>
 800cb0e:	9d10      	ldr	r5, [sp, #64]	; 0x40
 800cb10:	682c      	ldr	r4, [r5, #0]
 800cb12:	3504      	adds	r5, #4
 800cb14:	9510      	str	r5, [sp, #64]	; 0x40
 800cb16:	2500      	movs	r5, #0
 800cb18:	f7ff bad2 	b.w	800c0c0 <_svfprintf_r+0x2d4>
 800cb1c:	9d10      	ldr	r5, [sp, #64]	; 0x40
 800cb1e:	682c      	ldr	r4, [r5, #0]
 800cb20:	3504      	adds	r5, #4
 800cb22:	9510      	str	r5, [sp, #64]	; 0x40
 800cb24:	17e5      	asrs	r5, r4, #31
 800cb26:	4622      	mov	r2, r4
 800cb28:	462b      	mov	r3, r5
 800cb2a:	2a00      	cmp	r2, #0
 800cb2c:	f173 0c00 	sbcs.w	ip, r3, #0
 800cb30:	f6bf ac6c 	bge.w	800c40c <_svfprintf_r+0x620>
 800cb34:	f04f 0a2d 	mov.w	sl, #45	; 0x2d
 800cb38:	4264      	negs	r4, r4
 800cb3a:	eb65 0545 	sbc.w	r5, r5, r5, lsl #1
 800cb3e:	f88d a08f 	strb.w	sl, [sp, #143]	; 0x8f
 800cb42:	2301      	movs	r3, #1
 800cb44:	f7ff bac0 	b.w	800c0c8 <_svfprintf_r+0x2dc>
 800cb48:	980d      	ldr	r0, [sp, #52]	; 0x34
 800cb4a:	990c      	ldr	r1, [sp, #48]	; 0x30
 800cb4c:	aa2b      	add	r2, sp, #172	; 0xac
 800cb4e:	f001 fef3 	bl	800e938 <__ssprint_r>
 800cb52:	2800      	cmp	r0, #0
 800cb54:	f47f aa62 	bne.w	800c01c <_svfprintf_r+0x230>
 800cb58:	f8dd c0b4 	ldr.w	ip, [sp, #180]	; 0xb4
 800cb5c:	ae38      	add	r6, sp, #224	; 0xe0
 800cb5e:	9d14      	ldr	r5, [sp, #80]	; 0x50
 800cb60:	9c25      	ldr	r4, [sp, #148]	; 0x94
 800cb62:	442f      	add	r7, r5
 800cb64:	9d11      	ldr	r5, [sp, #68]	; 0x44
 800cb66:	42ac      	cmp	r4, r5
 800cb68:	db42      	blt.n	800cbf0 <_svfprintf_r+0xe04>
 800cb6a:	9d09      	ldr	r5, [sp, #36]	; 0x24
 800cb6c:	07e9      	lsls	r1, r5, #31
 800cb6e:	d43f      	bmi.n	800cbf0 <_svfprintf_r+0xe04>
 800cb70:	9811      	ldr	r0, [sp, #68]	; 0x44
 800cb72:	ebc7 050a 	rsb	r5, r7, sl
 800cb76:	1b04      	subs	r4, r0, r4
 800cb78:	42ac      	cmp	r4, r5
 800cb7a:	bfb8      	it	lt
 800cb7c:	4625      	movlt	r5, r4
 800cb7e:	2d00      	cmp	r5, #0
 800cb80:	dd0b      	ble.n	800cb9a <_svfprintf_r+0xdae>
 800cb82:	9b2c      	ldr	r3, [sp, #176]	; 0xb0
 800cb84:	44ac      	add	ip, r5
 800cb86:	3301      	adds	r3, #1
 800cb88:	2b07      	cmp	r3, #7
 800cb8a:	f8cd c0b4 	str.w	ip, [sp, #180]	; 0xb4
 800cb8e:	6037      	str	r7, [r6, #0]
 800cb90:	6075      	str	r5, [r6, #4]
 800cb92:	932c      	str	r3, [sp, #176]	; 0xb0
 800cb94:	f300 824c 	bgt.w	800d030 <_svfprintf_r+0x1244>
 800cb98:	3608      	adds	r6, #8
 800cb9a:	ea25 75e5 	bic.w	r5, r5, r5, asr #31
 800cb9e:	1b64      	subs	r4, r4, r5
 800cba0:	2c00      	cmp	r4, #0
 800cba2:	f77f ab95 	ble.w	800c2d0 <_svfprintf_r+0x4e4>
 800cba6:	2c10      	cmp	r4, #16
 800cba8:	9b2c      	ldr	r3, [sp, #176]	; 0xb0
 800cbaa:	4d50      	ldr	r5, [pc, #320]	; (800ccec <_svfprintf_r+0xf00>)
 800cbac:	f77f af7f 	ble.w	800caae <_svfprintf_r+0xcc2>
 800cbb0:	2710      	movs	r7, #16
 800cbb2:	4662      	mov	r2, ip
 800cbb4:	f8dd 8034 	ldr.w	r8, [sp, #52]	; 0x34
 800cbb8:	f8dd a030 	ldr.w	sl, [sp, #48]	; 0x30
 800cbbc:	e004      	b.n	800cbc8 <_svfprintf_r+0xddc>
 800cbbe:	3608      	adds	r6, #8
 800cbc0:	3c10      	subs	r4, #16
 800cbc2:	2c10      	cmp	r4, #16
 800cbc4:	f77f af72 	ble.w	800caac <_svfprintf_r+0xcc0>
 800cbc8:	3301      	adds	r3, #1
 800cbca:	3210      	adds	r2, #16
 800cbcc:	2b07      	cmp	r3, #7
 800cbce:	922d      	str	r2, [sp, #180]	; 0xb4
 800cbd0:	932c      	str	r3, [sp, #176]	; 0xb0
 800cbd2:	e886 00a0 	stmia.w	r6, {r5, r7}
 800cbd6:	ddf2      	ble.n	800cbbe <_svfprintf_r+0xdd2>
 800cbd8:	4640      	mov	r0, r8
 800cbda:	4651      	mov	r1, sl
 800cbdc:	aa2b      	add	r2, sp, #172	; 0xac
 800cbde:	f001 feab 	bl	800e938 <__ssprint_r>
 800cbe2:	2800      	cmp	r0, #0
 800cbe4:	f47f aa1a 	bne.w	800c01c <_svfprintf_r+0x230>
 800cbe8:	9a2d      	ldr	r2, [sp, #180]	; 0xb4
 800cbea:	9b2c      	ldr	r3, [sp, #176]	; 0xb0
 800cbec:	ae38      	add	r6, sp, #224	; 0xe0
 800cbee:	e7e7      	b.n	800cbc0 <_svfprintf_r+0xdd4>
 800cbf0:	9d18      	ldr	r5, [sp, #96]	; 0x60
 800cbf2:	9b2c      	ldr	r3, [sp, #176]	; 0xb0
 800cbf4:	44ac      	add	ip, r5
 800cbf6:	9d15      	ldr	r5, [sp, #84]	; 0x54
 800cbf8:	3301      	adds	r3, #1
 800cbfa:	6035      	str	r5, [r6, #0]
 800cbfc:	9d18      	ldr	r5, [sp, #96]	; 0x60
 800cbfe:	2b07      	cmp	r3, #7
 800cc00:	f8cd c0b4 	str.w	ip, [sp, #180]	; 0xb4
 800cc04:	6075      	str	r5, [r6, #4]
 800cc06:	932c      	str	r3, [sp, #176]	; 0xb0
 800cc08:	f300 81f4 	bgt.w	800cff4 <_svfprintf_r+0x1208>
 800cc0c:	3608      	adds	r6, #8
 800cc0e:	e7af      	b.n	800cb70 <_svfprintf_r+0xd84>
 800cc10:	9d09      	ldr	r5, [sp, #36]	; 0x24
 800cc12:	07ea      	lsls	r2, r5, #31
 800cc14:	f53f ae2a 	bmi.w	800c86c <_svfprintf_r+0xa80>
 800cc18:	3401      	adds	r4, #1
 800cc1a:	f10c 0801 	add.w	r8, ip, #1
 800cc1e:	2301      	movs	r3, #1
 800cc20:	2c07      	cmp	r4, #7
 800cc22:	f8cd 80b4 	str.w	r8, [sp, #180]	; 0xb4
 800cc26:	942c      	str	r4, [sp, #176]	; 0xb0
 800cc28:	6037      	str	r7, [r6, #0]
 800cc2a:	6073      	str	r3, [r6, #4]
 800cc2c:	f77f ae4f 	ble.w	800c8ce <_svfprintf_r+0xae2>
 800cc30:	e72f      	b.n	800ca92 <_svfprintf_r+0xca6>
 800cc32:	980d      	ldr	r0, [sp, #52]	; 0x34
 800cc34:	990c      	ldr	r1, [sp, #48]	; 0x30
 800cc36:	aa2b      	add	r2, sp, #172	; 0xac
 800cc38:	f001 fe7e 	bl	800e938 <__ssprint_r>
 800cc3c:	2800      	cmp	r0, #0
 800cc3e:	f47f a9ed 	bne.w	800c01c <_svfprintf_r+0x230>
 800cc42:	9b2d      	ldr	r3, [sp, #180]	; 0xb4
 800cc44:	9c2c      	ldr	r4, [sp, #176]	; 0xb0
 800cc46:	ae38      	add	r6, sp, #224	; 0xe0
 800cc48:	e61c      	b.n	800c884 <_svfprintf_r+0xa98>
 800cc4a:	980d      	ldr	r0, [sp, #52]	; 0x34
 800cc4c:	990c      	ldr	r1, [sp, #48]	; 0x30
 800cc4e:	aa2b      	add	r2, sp, #172	; 0xac
 800cc50:	f001 fe72 	bl	800e938 <__ssprint_r>
 800cc54:	2800      	cmp	r0, #0
 800cc56:	f47f a9e1 	bne.w	800c01c <_svfprintf_r+0x230>
 800cc5a:	f8dd 80b4 	ldr.w	r8, [sp, #180]	; 0xb4
 800cc5e:	9c2c      	ldr	r4, [sp, #176]	; 0xb0
 800cc60:	ae38      	add	r6, sp, #224	; 0xe0
 800cc62:	e61e      	b.n	800c8a2 <_svfprintf_r+0xab6>
 800cc64:	980d      	ldr	r0, [sp, #52]	; 0x34
 800cc66:	990c      	ldr	r1, [sp, #48]	; 0x30
 800cc68:	aa2b      	add	r2, sp, #172	; 0xac
 800cc6a:	f001 fe65 	bl	800e938 <__ssprint_r>
 800cc6e:	2800      	cmp	r0, #0
 800cc70:	f47f a9d4 	bne.w	800c01c <_svfprintf_r+0x230>
 800cc74:	f8dd c0b4 	ldr.w	ip, [sp, #180]	; 0xb4
 800cc78:	ae38      	add	r6, sp, #224	; 0xe0
 800cc7a:	f7ff bad7 	b.w	800c22c <_svfprintf_r+0x440>
 800cc7e:	f001 fe33 	bl	800e8e8 <__fpclassifyd>
 800cc82:	2800      	cmp	r0, #0
 800cc84:	f040 80bb 	bne.w	800cdfe <_svfprintf_r+0x1012>
 800cc88:	9c09      	ldr	r4, [sp, #36]	; 0x24
 800cc8a:	4f19      	ldr	r7, [pc, #100]	; (800ccf0 <_svfprintf_r+0xf04>)
 800cc8c:	4b19      	ldr	r3, [pc, #100]	; (800ccf4 <_svfprintf_r+0xf08>)
 800cc8e:	f04f 0c03 	mov.w	ip, #3
 800cc92:	f024 0480 	bic.w	r4, r4, #128	; 0x80
 800cc96:	9409      	str	r4, [sp, #36]	; 0x24
 800cc98:	900a      	str	r0, [sp, #40]	; 0x28
 800cc9a:	f8cd c02c 	str.w	ip, [sp, #44]	; 0x2c
 800cc9e:	9014      	str	r0, [sp, #80]	; 0x50
 800cca0:	f1b8 0f47 	cmp.w	r8, #71	; 0x47
 800cca4:	bfd8      	it	le
 800cca6:	461f      	movle	r7, r3
 800cca8:	4664      	mov	r4, ip
 800ccaa:	f89d a08f 	ldrb.w	sl, [sp, #143]	; 0x8f
 800ccae:	f7ff ba34 	b.w	800c11a <_svfprintf_r+0x32e>
 800ccb2:	9c09      	ldr	r4, [sp, #36]	; 0x24
 800ccb4:	0664      	lsls	r4, r4, #25
 800ccb6:	f140 8150 	bpl.w	800cf5a <_svfprintf_r+0x116e>
 800ccba:	f8dd c040 	ldr.w	ip, [sp, #64]	; 0x40
 800ccbe:	2500      	movs	r5, #0
 800ccc0:	f8bc 4000 	ldrh.w	r4, [ip]
 800ccc4:	f10c 0c04 	add.w	ip, ip, #4
 800ccc8:	f8cd c040 	str.w	ip, [sp, #64]	; 0x40
 800cccc:	f7ff b9e4 	b.w	800c098 <_svfprintf_r+0x2ac>
 800ccd0:	f8dd c024 	ldr.w	ip, [sp, #36]	; 0x24
 800ccd4:	f01c 0f10 	tst.w	ip, #16
 800ccd8:	f000 8146 	beq.w	800cf68 <_svfprintf_r+0x117c>
 800ccdc:	9c10      	ldr	r4, [sp, #64]	; 0x40
 800ccde:	9d0e      	ldr	r5, [sp, #56]	; 0x38
 800cce0:	6823      	ldr	r3, [r4, #0]
 800cce2:	3404      	adds	r4, #4
 800cce4:	9410      	str	r4, [sp, #64]	; 0x40
 800cce6:	601d      	str	r5, [r3, #0]
 800cce8:	f7ff b8a6 	b.w	800be38 <_svfprintf_r+0x4c>
 800ccec:	0800fab0 	.word	0x0800fab0
 800ccf0:	0800facc 	.word	0x0800facc
 800ccf4:	0800fac8 	.word	0x0800fac8
 800ccf8:	462c      	mov	r4, r5
 800ccfa:	463d      	mov	r5, r7
 800ccfc:	9f0a      	ldr	r7, [sp, #40]	; 0x28
 800ccfe:	4694      	mov	ip, r2
 800cd00:	3301      	adds	r3, #1
 800cd02:	44a4      	add	ip, r4
 800cd04:	2b07      	cmp	r3, #7
 800cd06:	f8cd c0b4 	str.w	ip, [sp, #180]	; 0xb4
 800cd0a:	932c      	str	r3, [sp, #176]	; 0xb0
 800cd0c:	6035      	str	r5, [r6, #0]
 800cd0e:	6074      	str	r4, [r6, #4]
 800cd10:	f73f af1a 	bgt.w	800cb48 <_svfprintf_r+0xd5c>
 800cd14:	3608      	adds	r6, #8
 800cd16:	e722      	b.n	800cb5e <_svfprintf_r+0xd72>
 800cd18:	980d      	ldr	r0, [sp, #52]	; 0x34
 800cd1a:	990c      	ldr	r1, [sp, #48]	; 0x30
 800cd1c:	aa2b      	add	r2, sp, #172	; 0xac
 800cd1e:	f001 fe0b 	bl	800e938 <__ssprint_r>
 800cd22:	2800      	cmp	r0, #0
 800cd24:	f47f a97a 	bne.w	800c01c <_svfprintf_r+0x230>
 800cd28:	f8dd c0b4 	ldr.w	ip, [sp, #180]	; 0xb4
 800cd2c:	ae38      	add	r6, sp, #224	; 0xe0
 800cd2e:	e507      	b.n	800c740 <_svfprintf_r+0x954>
 800cd30:	9a2c      	ldr	r2, [sp, #176]	; 0xb0
 800cd32:	49b7      	ldr	r1, [pc, #732]	; (800d010 <_svfprintf_r+0x1224>)
 800cd34:	3201      	adds	r2, #1
 800cd36:	f10c 0c01 	add.w	ip, ip, #1
 800cd3a:	2001      	movs	r0, #1
 800cd3c:	2a07      	cmp	r2, #7
 800cd3e:	f8cd c0b4 	str.w	ip, [sp, #180]	; 0xb4
 800cd42:	922c      	str	r2, [sp, #176]	; 0xb0
 800cd44:	6031      	str	r1, [r6, #0]
 800cd46:	6070      	str	r0, [r6, #4]
 800cd48:	f300 80f7 	bgt.w	800cf3a <_svfprintf_r+0x114e>
 800cd4c:	3608      	adds	r6, #8
 800cd4e:	461c      	mov	r4, r3
 800cd50:	b92c      	cbnz	r4, 800cd5e <_svfprintf_r+0xf72>
 800cd52:	9d11      	ldr	r5, [sp, #68]	; 0x44
 800cd54:	b91d      	cbnz	r5, 800cd5e <_svfprintf_r+0xf72>
 800cd56:	9d09      	ldr	r5, [sp, #36]	; 0x24
 800cd58:	07e8      	lsls	r0, r5, #31
 800cd5a:	f57f aab9 	bpl.w	800c2d0 <_svfprintf_r+0x4e4>
 800cd5e:	9b2c      	ldr	r3, [sp, #176]	; 0xb0
 800cd60:	9d15      	ldr	r5, [sp, #84]	; 0x54
 800cd62:	9918      	ldr	r1, [sp, #96]	; 0x60
 800cd64:	3301      	adds	r3, #1
 800cd66:	6035      	str	r5, [r6, #0]
 800cd68:	9d18      	ldr	r5, [sp, #96]	; 0x60
 800cd6a:	4461      	add	r1, ip
 800cd6c:	2b07      	cmp	r3, #7
 800cd6e:	912d      	str	r1, [sp, #180]	; 0xb4
 800cd70:	6075      	str	r5, [r6, #4]
 800cd72:	932c      	str	r3, [sp, #176]	; 0xb0
 800cd74:	f300 81de 	bgt.w	800d134 <_svfprintf_r+0x1348>
 800cd78:	f106 0208 	add.w	r2, r6, #8
 800cd7c:	4264      	negs	r4, r4
 800cd7e:	2c00      	cmp	r4, #0
 800cd80:	f340 810b 	ble.w	800cf9a <_svfprintf_r+0x11ae>
 800cd84:	2c10      	cmp	r4, #16
 800cd86:	4da3      	ldr	r5, [pc, #652]	; (800d014 <_svfprintf_r+0x1228>)
 800cd88:	f340 8148 	ble.w	800d01c <_svfprintf_r+0x1230>
 800cd8c:	46a3      	mov	fp, r4
 800cd8e:	2610      	movs	r6, #16
 800cd90:	460c      	mov	r4, r1
 800cd92:	f8dd 8034 	ldr.w	r8, [sp, #52]	; 0x34
 800cd96:	f8dd a030 	ldr.w	sl, [sp, #48]	; 0x30
 800cd9a:	e006      	b.n	800cdaa <_svfprintf_r+0xfbe>
 800cd9c:	3208      	adds	r2, #8
 800cd9e:	f1ab 0b10 	sub.w	fp, fp, #16
 800cda2:	f1bb 0f10 	cmp.w	fp, #16
 800cda6:	f340 8137 	ble.w	800d018 <_svfprintf_r+0x122c>
 800cdaa:	3301      	adds	r3, #1
 800cdac:	3410      	adds	r4, #16
 800cdae:	2b07      	cmp	r3, #7
 800cdb0:	942d      	str	r4, [sp, #180]	; 0xb4
 800cdb2:	932c      	str	r3, [sp, #176]	; 0xb0
 800cdb4:	e882 0060 	stmia.w	r2, {r5, r6}
 800cdb8:	ddf0      	ble.n	800cd9c <_svfprintf_r+0xfb0>
 800cdba:	4640      	mov	r0, r8
 800cdbc:	4651      	mov	r1, sl
 800cdbe:	aa2b      	add	r2, sp, #172	; 0xac
 800cdc0:	f001 fdba 	bl	800e938 <__ssprint_r>
 800cdc4:	2800      	cmp	r0, #0
 800cdc6:	f47f a929 	bne.w	800c01c <_svfprintf_r+0x230>
 800cdca:	9c2d      	ldr	r4, [sp, #180]	; 0xb4
 800cdcc:	9b2c      	ldr	r3, [sp, #176]	; 0xb0
 800cdce:	aa38      	add	r2, sp, #224	; 0xe0
 800cdd0:	e7e5      	b.n	800cd9e <_svfprintf_r+0xfb2>
 800cdd2:	9c09      	ldr	r4, [sp, #36]	; 0x24
 800cdd4:	f109 0901 	add.w	r9, r9, #1
 800cdd8:	f044 0420 	orr.w	r4, r4, #32
 800cddc:	9409      	str	r4, [sp, #36]	; 0x24
 800cdde:	f893 8001 	ldrb.w	r8, [r3, #1]
 800cde2:	f7ff b85f 	b.w	800bea4 <_svfprintf_r+0xb8>
 800cde6:	980d      	ldr	r0, [sp, #52]	; 0x34
 800cde8:	990c      	ldr	r1, [sp, #48]	; 0x30
 800cdea:	aa2b      	add	r2, sp, #172	; 0xac
 800cdec:	f001 fda4 	bl	800e938 <__ssprint_r>
 800cdf0:	2800      	cmp	r0, #0
 800cdf2:	f47f a913 	bne.w	800c01c <_svfprintf_r+0x230>
 800cdf6:	f8dd c0b4 	ldr.w	ip, [sp, #180]	; 0xb4
 800cdfa:	ae38      	add	r6, sp, #224	; 0xe0
 800cdfc:	e4b6      	b.n	800c76c <_svfprintf_r+0x980>
 800cdfe:	9d0a      	ldr	r5, [sp, #40]	; 0x28
 800ce00:	f028 0a20 	bic.w	sl, r8, #32
 800ce04:	3501      	adds	r5, #1
 800ce06:	f000 80a5 	beq.w	800cf54 <_svfprintf_r+0x1168>
 800ce0a:	f1ba 0f47 	cmp.w	sl, #71	; 0x47
 800ce0e:	d104      	bne.n	800ce1a <_svfprintf_r+0x102e>
 800ce10:	9d0a      	ldr	r5, [sp, #40]	; 0x28
 800ce12:	2d00      	cmp	r5, #0
 800ce14:	bf08      	it	eq
 800ce16:	2501      	moveq	r5, #1
 800ce18:	950a      	str	r5, [sp, #40]	; 0x28
 800ce1a:	f8dd c024 	ldr.w	ip, [sp, #36]	; 0x24
 800ce1e:	e9dd 2316 	ldrd	r2, r3, [sp, #88]	; 0x58
 800ce22:	f44c 7c80 	orr.w	ip, ip, #256	; 0x100
 800ce26:	2b00      	cmp	r3, #0
 800ce28:	f8cd c048 	str.w	ip, [sp, #72]	; 0x48
 800ce2c:	f2c0 819c 	blt.w	800d168 <_svfprintf_r+0x137c>
 800ce30:	e9dd 4516 	ldrd	r4, r5, [sp, #88]	; 0x58
 800ce34:	e9cd 4520 	strd	r4, r5, [sp, #128]	; 0x80
 800ce38:	f04f 0b00 	mov.w	fp, #0
 800ce3c:	f1b8 0f66 	cmp.w	r8, #102	; 0x66
 800ce40:	f000 819b 	beq.w	800d17a <_svfprintf_r+0x138e>
 800ce44:	f1b8 0f46 	cmp.w	r8, #70	; 0x46
 800ce48:	f000 81a9 	beq.w	800d19e <_svfprintf_r+0x13b2>
 800ce4c:	f1ba 0f45 	cmp.w	sl, #69	; 0x45
 800ce50:	bf0a      	itet	eq
 800ce52:	9c0a      	ldreq	r4, [sp, #40]	; 0x28
 800ce54:	9d0a      	ldrne	r5, [sp, #40]	; 0x28
 800ce56:	1c65      	addeq	r5, r4, #1
 800ce58:	2002      	movs	r0, #2
 800ce5a:	a925      	add	r1, sp, #148	; 0x94
 800ce5c:	aa26      	add	r2, sp, #152	; 0x98
 800ce5e:	ab29      	add	r3, sp, #164	; 0xa4
 800ce60:	e88d 0021 	stmia.w	sp, {r0, r5}
 800ce64:	9203      	str	r2, [sp, #12]
 800ce66:	9304      	str	r3, [sp, #16]
 800ce68:	9102      	str	r1, [sp, #8]
 800ce6a:	980d      	ldr	r0, [sp, #52]	; 0x34
 800ce6c:	e9dd 2320 	ldrd	r2, r3, [sp, #128]	; 0x80
 800ce70:	f000 fac6 	bl	800d400 <_dtoa_r>
 800ce74:	f1b8 0f67 	cmp.w	r8, #103	; 0x67
 800ce78:	4607      	mov	r7, r0
 800ce7a:	d002      	beq.n	800ce82 <_svfprintf_r+0x1096>
 800ce7c:	f1b8 0f47 	cmp.w	r8, #71	; 0x47
 800ce80:	d105      	bne.n	800ce8e <_svfprintf_r+0x10a2>
 800ce82:	f8dd c024 	ldr.w	ip, [sp, #36]	; 0x24
 800ce86:	f01c 0f01 	tst.w	ip, #1
 800ce8a:	f000 819c 	beq.w	800d1c6 <_svfprintf_r+0x13da>
 800ce8e:	f1ba 0f46 	cmp.w	sl, #70	; 0x46
 800ce92:	eb07 0405 	add.w	r4, r7, r5
 800ce96:	f000 811c 	beq.w	800d0d2 <_svfprintf_r+0x12e6>
 800ce9a:	e9dd 0120 	ldrd	r0, r1, [sp, #128]	; 0x80
 800ce9e:	2200      	movs	r2, #0
 800cea0:	2300      	movs	r3, #0
 800cea2:	f7f7 fdc1 	bl	8004a28 <__aeabi_dcmpeq>
 800cea6:	2800      	cmp	r0, #0
 800cea8:	f040 8105 	bne.w	800d0b6 <_svfprintf_r+0x12ca>
 800ceac:	9b29      	ldr	r3, [sp, #164]	; 0xa4
 800ceae:	429c      	cmp	r4, r3
 800ceb0:	d906      	bls.n	800cec0 <_svfprintf_r+0x10d4>
 800ceb2:	2130      	movs	r1, #48	; 0x30
 800ceb4:	1c5a      	adds	r2, r3, #1
 800ceb6:	9229      	str	r2, [sp, #164]	; 0xa4
 800ceb8:	7019      	strb	r1, [r3, #0]
 800ceba:	9b29      	ldr	r3, [sp, #164]	; 0xa4
 800cebc:	429c      	cmp	r4, r3
 800cebe:	d8f9      	bhi.n	800ceb4 <_svfprintf_r+0x10c8>
 800cec0:	1bdb      	subs	r3, r3, r7
 800cec2:	f1ba 0f47 	cmp.w	sl, #71	; 0x47
 800cec6:	9311      	str	r3, [sp, #68]	; 0x44
 800cec8:	f000 80ed 	beq.w	800d0a6 <_svfprintf_r+0x12ba>
 800cecc:	f1b8 0f65 	cmp.w	r8, #101	; 0x65
 800ced0:	f340 81f2 	ble.w	800d2b8 <_svfprintf_r+0x14cc>
 800ced4:	f1b8 0f66 	cmp.w	r8, #102	; 0x66
 800ced8:	f000 8168 	beq.w	800d1ac <_svfprintf_r+0x13c0>
 800cedc:	9c25      	ldr	r4, [sp, #148]	; 0x94
 800cede:	9414      	str	r4, [sp, #80]	; 0x50
 800cee0:	9c11      	ldr	r4, [sp, #68]	; 0x44
 800cee2:	9d14      	ldr	r5, [sp, #80]	; 0x50
 800cee4:	42ac      	cmp	r4, r5
 800cee6:	f300 8132 	bgt.w	800d14e <_svfprintf_r+0x1362>
 800ceea:	f8dd c024 	ldr.w	ip, [sp, #36]	; 0x24
 800ceee:	f01c 0f01 	tst.w	ip, #1
 800cef2:	f040 81ad 	bne.w	800d250 <_svfprintf_r+0x1464>
 800cef6:	ea25 73e5 	bic.w	r3, r5, r5, asr #31
 800cefa:	462c      	mov	r4, r5
 800cefc:	f04f 0867 	mov.w	r8, #103	; 0x67
 800cf00:	f1bb 0f00 	cmp.w	fp, #0
 800cf04:	f040 80b2 	bne.w	800d06c <_svfprintf_r+0x1280>
 800cf08:	9d12      	ldr	r5, [sp, #72]	; 0x48
 800cf0a:	930b      	str	r3, [sp, #44]	; 0x2c
 800cf0c:	9509      	str	r5, [sp, #36]	; 0x24
 800cf0e:	f8cd b028 	str.w	fp, [sp, #40]	; 0x28
 800cf12:	f89d a08f 	ldrb.w	sl, [sp, #143]	; 0x8f
 800cf16:	f7ff b900 	b.w	800c11a <_svfprintf_r+0x32e>
 800cf1a:	980d      	ldr	r0, [sp, #52]	; 0x34
 800cf1c:	2140      	movs	r1, #64	; 0x40
 800cf1e:	f7fe fcb3 	bl	800b888 <_malloc_r>
 800cf22:	6020      	str	r0, [r4, #0]
 800cf24:	6120      	str	r0, [r4, #16]
 800cf26:	2800      	cmp	r0, #0
 800cf28:	f000 81bf 	beq.w	800d2aa <_svfprintf_r+0x14be>
 800cf2c:	f8dd c030 	ldr.w	ip, [sp, #48]	; 0x30
 800cf30:	2340      	movs	r3, #64	; 0x40
 800cf32:	f8cc 3014 	str.w	r3, [ip, #20]
 800cf36:	f7fe bf6f 	b.w	800be18 <_svfprintf_r+0x2c>
 800cf3a:	980d      	ldr	r0, [sp, #52]	; 0x34
 800cf3c:	990c      	ldr	r1, [sp, #48]	; 0x30
 800cf3e:	aa2b      	add	r2, sp, #172	; 0xac
 800cf40:	f001 fcfa 	bl	800e938 <__ssprint_r>
 800cf44:	2800      	cmp	r0, #0
 800cf46:	f47f a869 	bne.w	800c01c <_svfprintf_r+0x230>
 800cf4a:	9c25      	ldr	r4, [sp, #148]	; 0x94
 800cf4c:	f8dd c0b4 	ldr.w	ip, [sp, #180]	; 0xb4
 800cf50:	ae38      	add	r6, sp, #224	; 0xe0
 800cf52:	e6fd      	b.n	800cd50 <_svfprintf_r+0xf64>
 800cf54:	2406      	movs	r4, #6
 800cf56:	940a      	str	r4, [sp, #40]	; 0x28
 800cf58:	e75f      	b.n	800ce1a <_svfprintf_r+0x102e>
 800cf5a:	9d10      	ldr	r5, [sp, #64]	; 0x40
 800cf5c:	682c      	ldr	r4, [r5, #0]
 800cf5e:	3504      	adds	r5, #4
 800cf60:	9510      	str	r5, [sp, #64]	; 0x40
 800cf62:	2500      	movs	r5, #0
 800cf64:	f7ff b898 	b.w	800c098 <_svfprintf_r+0x2ac>
 800cf68:	f8dd c024 	ldr.w	ip, [sp, #36]	; 0x24
 800cf6c:	f01c 0f40 	tst.w	ip, #64	; 0x40
 800cf70:	f000 8087 	beq.w	800d082 <_svfprintf_r+0x1296>
 800cf74:	9c10      	ldr	r4, [sp, #64]	; 0x40
 800cf76:	9d0e      	ldr	r5, [sp, #56]	; 0x38
 800cf78:	6823      	ldr	r3, [r4, #0]
 800cf7a:	3404      	adds	r4, #4
 800cf7c:	9410      	str	r4, [sp, #64]	; 0x40
 800cf7e:	801d      	strh	r5, [r3, #0]
 800cf80:	f7fe bf5a 	b.w	800be38 <_svfprintf_r+0x4c>
 800cf84:	980d      	ldr	r0, [sp, #52]	; 0x34
 800cf86:	990c      	ldr	r1, [sp, #48]	; 0x30
 800cf88:	aa2b      	add	r2, sp, #172	; 0xac
 800cf8a:	f001 fcd5 	bl	800e938 <__ssprint_r>
 800cf8e:	2800      	cmp	r0, #0
 800cf90:	f47f a844 	bne.w	800c01c <_svfprintf_r+0x230>
 800cf94:	992d      	ldr	r1, [sp, #180]	; 0xb4
 800cf96:	9b2c      	ldr	r3, [sp, #176]	; 0xb0
 800cf98:	aa38      	add	r2, sp, #224	; 0xe0
 800cf9a:	f8dd c044 	ldr.w	ip, [sp, #68]	; 0x44
 800cf9e:	3301      	adds	r3, #1
 800cfa0:	9c11      	ldr	r4, [sp, #68]	; 0x44
 800cfa2:	448c      	add	ip, r1
 800cfa4:	2b07      	cmp	r3, #7
 800cfa6:	f8cd c0b4 	str.w	ip, [sp, #180]	; 0xb4
 800cfaa:	932c      	str	r3, [sp, #176]	; 0xb0
 800cfac:	6017      	str	r7, [r2, #0]
 800cfae:	6054      	str	r4, [r2, #4]
 800cfb0:	f73f ac9c 	bgt.w	800c8ec <_svfprintf_r+0xb00>
 800cfb4:	f102 0608 	add.w	r6, r2, #8
 800cfb8:	f7ff b98a 	b.w	800c2d0 <_svfprintf_r+0x4e4>
 800cfbc:	f8cd a028 	str.w	sl, [sp, #40]	; 0x28
 800cfc0:	f7fe fadc 	bl	800b57c <strlen>
 800cfc4:	9510      	str	r5, [sp, #64]	; 0x40
 800cfc6:	9d0a      	ldr	r5, [sp, #40]	; 0x28
 800cfc8:	ea20 7ce0 	bic.w	ip, r0, r0, asr #31
 800cfcc:	4604      	mov	r4, r0
 800cfce:	f8cd c02c 	str.w	ip, [sp, #44]	; 0x2c
 800cfd2:	9514      	str	r5, [sp, #80]	; 0x50
 800cfd4:	f89d a08f 	ldrb.w	sl, [sp, #143]	; 0x8f
 800cfd8:	f7ff b89f 	b.w	800c11a <_svfprintf_r+0x32e>
 800cfdc:	980d      	ldr	r0, [sp, #52]	; 0x34
 800cfde:	990c      	ldr	r1, [sp, #48]	; 0x30
 800cfe0:	aa2b      	add	r2, sp, #172	; 0xac
 800cfe2:	f001 fca9 	bl	800e938 <__ssprint_r>
 800cfe6:	2800      	cmp	r0, #0
 800cfe8:	f47f a818 	bne.w	800c01c <_svfprintf_r+0x230>
 800cfec:	f8dd c0b4 	ldr.w	ip, [sp, #180]	; 0xb4
 800cff0:	ae38      	add	r6, sp, #224	; 0xe0
 800cff2:	e4d6      	b.n	800c9a2 <_svfprintf_r+0xbb6>
 800cff4:	980d      	ldr	r0, [sp, #52]	; 0x34
 800cff6:	990c      	ldr	r1, [sp, #48]	; 0x30
 800cff8:	aa2b      	add	r2, sp, #172	; 0xac
 800cffa:	f001 fc9d 	bl	800e938 <__ssprint_r>
 800cffe:	2800      	cmp	r0, #0
 800d000:	f47f a80c 	bne.w	800c01c <_svfprintf_r+0x230>
 800d004:	9c25      	ldr	r4, [sp, #148]	; 0x94
 800d006:	f8dd c0b4 	ldr.w	ip, [sp, #180]	; 0xb4
 800d00a:	ae38      	add	r6, sp, #224	; 0xe0
 800d00c:	e5b0      	b.n	800cb70 <_svfprintf_r+0xd84>
 800d00e:	bf00      	nop
 800d010:	0800fb00 	.word	0x0800fb00
 800d014:	0800fab0 	.word	0x0800fab0
 800d018:	4621      	mov	r1, r4
 800d01a:	465c      	mov	r4, fp
 800d01c:	3301      	adds	r3, #1
 800d01e:	4421      	add	r1, r4
 800d020:	2b07      	cmp	r3, #7
 800d022:	912d      	str	r1, [sp, #180]	; 0xb4
 800d024:	932c      	str	r3, [sp, #176]	; 0xb0
 800d026:	6015      	str	r5, [r2, #0]
 800d028:	6054      	str	r4, [r2, #4]
 800d02a:	dcab      	bgt.n	800cf84 <_svfprintf_r+0x1198>
 800d02c:	3208      	adds	r2, #8
 800d02e:	e7b4      	b.n	800cf9a <_svfprintf_r+0x11ae>
 800d030:	980d      	ldr	r0, [sp, #52]	; 0x34
 800d032:	990c      	ldr	r1, [sp, #48]	; 0x30
 800d034:	aa2b      	add	r2, sp, #172	; 0xac
 800d036:	f001 fc7f 	bl	800e938 <__ssprint_r>
 800d03a:	2800      	cmp	r0, #0
 800d03c:	f47e afee 	bne.w	800c01c <_svfprintf_r+0x230>
 800d040:	9c25      	ldr	r4, [sp, #148]	; 0x94
 800d042:	9911      	ldr	r1, [sp, #68]	; 0x44
 800d044:	f8dd c0b4 	ldr.w	ip, [sp, #180]	; 0xb4
 800d048:	1b0c      	subs	r4, r1, r4
 800d04a:	ae38      	add	r6, sp, #224	; 0xe0
 800d04c:	e5a5      	b.n	800cb9a <_svfprintf_r+0xdae>
 800d04e:	9c0a      	ldr	r4, [sp, #40]	; 0x28
 800d050:	46ba      	mov	sl, r7
 800d052:	2c06      	cmp	r4, #6
 800d054:	bf28      	it	cs
 800d056:	2406      	movcs	r4, #6
 800d058:	ea24 7ce4 	bic.w	ip, r4, r4, asr #31
 800d05c:	970a      	str	r7, [sp, #40]	; 0x28
 800d05e:	9714      	str	r7, [sp, #80]	; 0x50
 800d060:	9510      	str	r5, [sp, #64]	; 0x40
 800d062:	f8cd c02c 	str.w	ip, [sp, #44]	; 0x2c
 800d066:	4f97      	ldr	r7, [pc, #604]	; (800d2c4 <_svfprintf_r+0x14d8>)
 800d068:	f7ff b857 	b.w	800c11a <_svfprintf_r+0x32e>
 800d06c:	9d12      	ldr	r5, [sp, #72]	; 0x48
 800d06e:	f04f 0a2d 	mov.w	sl, #45	; 0x2d
 800d072:	9509      	str	r5, [sp, #36]	; 0x24
 800d074:	2500      	movs	r5, #0
 800d076:	930b      	str	r3, [sp, #44]	; 0x2c
 800d078:	f88d a08f 	strb.w	sl, [sp, #143]	; 0x8f
 800d07c:	950a      	str	r5, [sp, #40]	; 0x28
 800d07e:	f7ff b84f 	b.w	800c120 <_svfprintf_r+0x334>
 800d082:	f8dd c040 	ldr.w	ip, [sp, #64]	; 0x40
 800d086:	9c0e      	ldr	r4, [sp, #56]	; 0x38
 800d088:	f8dc 3000 	ldr.w	r3, [ip]
 800d08c:	f10c 0c04 	add.w	ip, ip, #4
 800d090:	f8cd c040 	str.w	ip, [sp, #64]	; 0x40
 800d094:	601c      	str	r4, [r3, #0]
 800d096:	f7fe becf 	b.w	800be38 <_svfprintf_r+0x4c>
 800d09a:	f04f 0a2d 	mov.w	sl, #45	; 0x2d
 800d09e:	f88d a08f 	strb.w	sl, [sp, #143]	; 0x8f
 800d0a2:	f7ff ba99 	b.w	800c5d8 <_svfprintf_r+0x7ec>
 800d0a6:	9b25      	ldr	r3, [sp, #148]	; 0x94
 800d0a8:	1cdc      	adds	r4, r3, #3
 800d0aa:	db19      	blt.n	800d0e0 <_svfprintf_r+0x12f4>
 800d0ac:	9c0a      	ldr	r4, [sp, #40]	; 0x28
 800d0ae:	429c      	cmp	r4, r3
 800d0b0:	db16      	blt.n	800d0e0 <_svfprintf_r+0x12f4>
 800d0b2:	9314      	str	r3, [sp, #80]	; 0x50
 800d0b4:	e714      	b.n	800cee0 <_svfprintf_r+0x10f4>
 800d0b6:	4623      	mov	r3, r4
 800d0b8:	e702      	b.n	800cec0 <_svfprintf_r+0x10d4>
 800d0ba:	ea24 7ce4 	bic.w	ip, r4, r4, asr #31
 800d0be:	f8cd c02c 	str.w	ip, [sp, #44]	; 0x2c
 800d0c2:	9c0a      	ldr	r4, [sp, #40]	; 0x28
 800d0c4:	9510      	str	r5, [sp, #64]	; 0x40
 800d0c6:	900a      	str	r0, [sp, #40]	; 0x28
 800d0c8:	9014      	str	r0, [sp, #80]	; 0x50
 800d0ca:	f89d a08f 	ldrb.w	sl, [sp, #143]	; 0x8f
 800d0ce:	f7ff b824 	b.w	800c11a <_svfprintf_r+0x32e>
 800d0d2:	783b      	ldrb	r3, [r7, #0]
 800d0d4:	2b30      	cmp	r3, #48	; 0x30
 800d0d6:	f000 80ad 	beq.w	800d234 <_svfprintf_r+0x1448>
 800d0da:	9d25      	ldr	r5, [sp, #148]	; 0x94
 800d0dc:	442c      	add	r4, r5
 800d0de:	e6dc      	b.n	800ce9a <_svfprintf_r+0x10ae>
 800d0e0:	f1a8 0802 	sub.w	r8, r8, #2
 800d0e4:	1e59      	subs	r1, r3, #1
 800d0e6:	2900      	cmp	r1, #0
 800d0e8:	9125      	str	r1, [sp, #148]	; 0x94
 800d0ea:	bfba      	itte	lt
 800d0ec:	4249      	neglt	r1, r1
 800d0ee:	232d      	movlt	r3, #45	; 0x2d
 800d0f0:	232b      	movge	r3, #43	; 0x2b
 800d0f2:	2909      	cmp	r1, #9
 800d0f4:	f88d 809c 	strb.w	r8, [sp, #156]	; 0x9c
 800d0f8:	f88d 309d 	strb.w	r3, [sp, #157]	; 0x9d
 800d0fc:	dc65      	bgt.n	800d1ca <_svfprintf_r+0x13de>
 800d0fe:	2330      	movs	r3, #48	; 0x30
 800d100:	3130      	adds	r1, #48	; 0x30
 800d102:	f88d 309e 	strb.w	r3, [sp, #158]	; 0x9e
 800d106:	f88d 109f 	strb.w	r1, [sp, #159]	; 0x9f
 800d10a:	ab28      	add	r3, sp, #160	; 0xa0
 800d10c:	9d11      	ldr	r5, [sp, #68]	; 0x44
 800d10e:	aa27      	add	r2, sp, #156	; 0x9c
 800d110:	9c11      	ldr	r4, [sp, #68]	; 0x44
 800d112:	1a9a      	subs	r2, r3, r2
 800d114:	2d01      	cmp	r5, #1
 800d116:	9219      	str	r2, [sp, #100]	; 0x64
 800d118:	4414      	add	r4, r2
 800d11a:	f340 80b7 	ble.w	800d28c <_svfprintf_r+0x14a0>
 800d11e:	3401      	adds	r4, #1
 800d120:	2500      	movs	r5, #0
 800d122:	ea24 73e4 	bic.w	r3, r4, r4, asr #31
 800d126:	9514      	str	r5, [sp, #80]	; 0x50
 800d128:	e6ea      	b.n	800cf00 <_svfprintf_r+0x1114>
 800d12a:	2400      	movs	r4, #0
 800d12c:	4681      	mov	r9, r0
 800d12e:	940a      	str	r4, [sp, #40]	; 0x28
 800d130:	f7fe beba 	b.w	800bea8 <_svfprintf_r+0xbc>
 800d134:	980d      	ldr	r0, [sp, #52]	; 0x34
 800d136:	990c      	ldr	r1, [sp, #48]	; 0x30
 800d138:	aa2b      	add	r2, sp, #172	; 0xac
 800d13a:	f001 fbfd 	bl	800e938 <__ssprint_r>
 800d13e:	2800      	cmp	r0, #0
 800d140:	f47e af6c 	bne.w	800c01c <_svfprintf_r+0x230>
 800d144:	9c25      	ldr	r4, [sp, #148]	; 0x94
 800d146:	992d      	ldr	r1, [sp, #180]	; 0xb4
 800d148:	9b2c      	ldr	r3, [sp, #176]	; 0xb0
 800d14a:	aa38      	add	r2, sp, #224	; 0xe0
 800d14c:	e616      	b.n	800cd7c <_svfprintf_r+0xf90>
 800d14e:	9c14      	ldr	r4, [sp, #80]	; 0x50
 800d150:	9d11      	ldr	r5, [sp, #68]	; 0x44
 800d152:	2c00      	cmp	r4, #0
 800d154:	bfd4      	ite	le
 800d156:	f1c4 0402 	rsble	r4, r4, #2
 800d15a:	2401      	movgt	r4, #1
 800d15c:	442c      	add	r4, r5
 800d15e:	ea24 73e4 	bic.w	r3, r4, r4, asr #31
 800d162:	f04f 0867 	mov.w	r8, #103	; 0x67
 800d166:	e6cb      	b.n	800cf00 <_svfprintf_r+0x1114>
 800d168:	9917      	ldr	r1, [sp, #92]	; 0x5c
 800d16a:	9816      	ldr	r0, [sp, #88]	; 0x58
 800d16c:	f101 4100 	add.w	r1, r1, #2147483648	; 0x80000000
 800d170:	9020      	str	r0, [sp, #128]	; 0x80
 800d172:	9121      	str	r1, [sp, #132]	; 0x84
 800d174:	f04f 0b2d 	mov.w	fp, #45	; 0x2d
 800d178:	e660      	b.n	800ce3c <_svfprintf_r+0x1050>
 800d17a:	9d0a      	ldr	r5, [sp, #40]	; 0x28
 800d17c:	2003      	movs	r0, #3
 800d17e:	a925      	add	r1, sp, #148	; 0x94
 800d180:	aa26      	add	r2, sp, #152	; 0x98
 800d182:	ab29      	add	r3, sp, #164	; 0xa4
 800d184:	9501      	str	r5, [sp, #4]
 800d186:	9000      	str	r0, [sp, #0]
 800d188:	9203      	str	r2, [sp, #12]
 800d18a:	9304      	str	r3, [sp, #16]
 800d18c:	9102      	str	r1, [sp, #8]
 800d18e:	980d      	ldr	r0, [sp, #52]	; 0x34
 800d190:	e9dd 2320 	ldrd	r2, r3, [sp, #128]	; 0x80
 800d194:	f000 f934 	bl	800d400 <_dtoa_r>
 800d198:	9d0a      	ldr	r5, [sp, #40]	; 0x28
 800d19a:	4607      	mov	r7, r0
 800d19c:	e677      	b.n	800ce8e <_svfprintf_r+0x10a2>
 800d19e:	9c0a      	ldr	r4, [sp, #40]	; 0x28
 800d1a0:	2003      	movs	r0, #3
 800d1a2:	a925      	add	r1, sp, #148	; 0x94
 800d1a4:	aa26      	add	r2, sp, #152	; 0x98
 800d1a6:	ab29      	add	r3, sp, #164	; 0xa4
 800d1a8:	9401      	str	r4, [sp, #4]
 800d1aa:	e7ec      	b.n	800d186 <_svfprintf_r+0x139a>
 800d1ac:	9d25      	ldr	r5, [sp, #148]	; 0x94
 800d1ae:	9c0a      	ldr	r4, [sp, #40]	; 0x28
 800d1b0:	2d00      	cmp	r5, #0
 800d1b2:	9514      	str	r5, [sp, #80]	; 0x50
 800d1b4:	dd63      	ble.n	800d27e <_svfprintf_r+0x1492>
 800d1b6:	bbb4      	cbnz	r4, 800d226 <_svfprintf_r+0x143a>
 800d1b8:	9d09      	ldr	r5, [sp, #36]	; 0x24
 800d1ba:	07e8      	lsls	r0, r5, #31
 800d1bc:	d433      	bmi.n	800d226 <_svfprintf_r+0x143a>
 800d1be:	9c14      	ldr	r4, [sp, #80]	; 0x50
 800d1c0:	ea24 73e4 	bic.w	r3, r4, r4, asr #31
 800d1c4:	e69c      	b.n	800cf00 <_svfprintf_r+0x1114>
 800d1c6:	9b29      	ldr	r3, [sp, #164]	; 0xa4
 800d1c8:	e67a      	b.n	800cec0 <_svfprintf_r+0x10d4>
 800d1ca:	f10d 02aa 	add.w	r2, sp, #170	; 0xaa
 800d1ce:	4d3e      	ldr	r5, [pc, #248]	; (800d2c8 <_svfprintf_r+0x14dc>)
 800d1d0:	17cb      	asrs	r3, r1, #31
 800d1d2:	fb85 5001 	smull	r5, r0, r5, r1
 800d1d6:	ebc3 00a0 	rsb	r0, r3, r0, asr #2
 800d1da:	eb00 0380 	add.w	r3, r0, r0, lsl #2
 800d1de:	eba1 0143 	sub.w	r1, r1, r3, lsl #1
 800d1e2:	2809      	cmp	r0, #9
 800d1e4:	4613      	mov	r3, r2
 800d1e6:	f101 0230 	add.w	r2, r1, #48	; 0x30
 800d1ea:	701a      	strb	r2, [r3, #0]
 800d1ec:	4601      	mov	r1, r0
 800d1ee:	f103 32ff 	add.w	r2, r3, #4294967295
 800d1f2:	dcec      	bgt.n	800d1ce <_svfprintf_r+0x13e2>
 800d1f4:	f100 0130 	add.w	r1, r0, #48	; 0x30
 800d1f8:	f10d 04ab 	add.w	r4, sp, #171	; 0xab
 800d1fc:	b2c9      	uxtb	r1, r1
 800d1fe:	4294      	cmp	r4, r2
 800d200:	f803 1c01 	strb.w	r1, [r3, #-1]
 800d204:	d95a      	bls.n	800d2bc <_svfprintf_r+0x14d0>
 800d206:	f10d 009d 	add.w	r0, sp, #157	; 0x9d
 800d20a:	461a      	mov	r2, r3
 800d20c:	e001      	b.n	800d212 <_svfprintf_r+0x1426>
 800d20e:	f812 1b01 	ldrb.w	r1, [r2], #1
 800d212:	42a2      	cmp	r2, r4
 800d214:	f800 1f01 	strb.w	r1, [r0, #1]!
 800d218:	d1f9      	bne.n	800d20e <_svfprintf_r+0x1422>
 800d21a:	f50d 7c90 	add.w	ip, sp, #288	; 0x120
 800d21e:	ebc3 034c 	rsb	r3, r3, ip, lsl #1
 800d222:	3bf6      	subs	r3, #246	; 0xf6
 800d224:	e772      	b.n	800d10c <_svfprintf_r+0x1320>
 800d226:	9d0a      	ldr	r5, [sp, #40]	; 0x28
 800d228:	1c6c      	adds	r4, r5, #1
 800d22a:	9d14      	ldr	r5, [sp, #80]	; 0x50
 800d22c:	442c      	add	r4, r5
 800d22e:	ea24 73e4 	bic.w	r3, r4, r4, asr #31
 800d232:	e665      	b.n	800cf00 <_svfprintf_r+0x1114>
 800d234:	e9dd 0120 	ldrd	r0, r1, [sp, #128]	; 0x80
 800d238:	2200      	movs	r2, #0
 800d23a:	2300      	movs	r3, #0
 800d23c:	f7f7 fbf4 	bl	8004a28 <__aeabi_dcmpeq>
 800d240:	2800      	cmp	r0, #0
 800d242:	f47f af4a 	bne.w	800d0da <_svfprintf_r+0x12ee>
 800d246:	f1c5 0501 	rsb	r5, r5, #1
 800d24a:	9525      	str	r5, [sp, #148]	; 0x94
 800d24c:	442c      	add	r4, r5
 800d24e:	e624      	b.n	800ce9a <_svfprintf_r+0x10ae>
 800d250:	9d14      	ldr	r5, [sp, #80]	; 0x50
 800d252:	f04f 0867 	mov.w	r8, #103	; 0x67
 800d256:	1c6c      	adds	r4, r5, #1
 800d258:	ea24 73e4 	bic.w	r3, r4, r4, asr #31
 800d25c:	e650      	b.n	800cf00 <_svfprintf_r+0x1114>
 800d25e:	9d10      	ldr	r5, [sp, #64]	; 0x40
 800d260:	f8dd c040 	ldr.w	ip, [sp, #64]	; 0x40
 800d264:	682d      	ldr	r5, [r5, #0]
 800d266:	f10c 0304 	add.w	r3, ip, #4
 800d26a:	2d00      	cmp	r5, #0
 800d26c:	f899 8001 	ldrb.w	r8, [r9, #1]
 800d270:	950a      	str	r5, [sp, #40]	; 0x28
 800d272:	9310      	str	r3, [sp, #64]	; 0x40
 800d274:	4681      	mov	r9, r0
 800d276:	f6be ae15 	bge.w	800bea4 <_svfprintf_r+0xb8>
 800d27a:	f7fe be10 	b.w	800be9e <_svfprintf_r+0xb2>
 800d27e:	b97c      	cbnz	r4, 800d2a0 <_svfprintf_r+0x14b4>
 800d280:	9d09      	ldr	r5, [sp, #36]	; 0x24
 800d282:	07e9      	lsls	r1, r5, #31
 800d284:	d40c      	bmi.n	800d2a0 <_svfprintf_r+0x14b4>
 800d286:	2301      	movs	r3, #1
 800d288:	461c      	mov	r4, r3
 800d28a:	e639      	b.n	800cf00 <_svfprintf_r+0x1114>
 800d28c:	f8dd c024 	ldr.w	ip, [sp, #36]	; 0x24
 800d290:	f01c 0301 	ands.w	r3, ip, #1
 800d294:	f47f af43 	bne.w	800d11e <_svfprintf_r+0x1332>
 800d298:	9314      	str	r3, [sp, #80]	; 0x50
 800d29a:	ea24 73e4 	bic.w	r3, r4, r4, asr #31
 800d29e:	e62f      	b.n	800cf00 <_svfprintf_r+0x1114>
 800d2a0:	9d0a      	ldr	r5, [sp, #40]	; 0x28
 800d2a2:	1cac      	adds	r4, r5, #2
 800d2a4:	ea24 73e4 	bic.w	r3, r4, r4, asr #31
 800d2a8:	e62a      	b.n	800cf00 <_svfprintf_r+0x1114>
 800d2aa:	9d0d      	ldr	r5, [sp, #52]	; 0x34
 800d2ac:	230c      	movs	r3, #12
 800d2ae:	602b      	str	r3, [r5, #0]
 800d2b0:	f04f 30ff 	mov.w	r0, #4294967295
 800d2b4:	f7fe beba 	b.w	800c02c <_svfprintf_r+0x240>
 800d2b8:	9b25      	ldr	r3, [sp, #148]	; 0x94
 800d2ba:	e713      	b.n	800d0e4 <_svfprintf_r+0x12f8>
 800d2bc:	f10d 039e 	add.w	r3, sp, #158	; 0x9e
 800d2c0:	e724      	b.n	800d10c <_svfprintf_r+0x1320>
 800d2c2:	bf00      	nop
 800d2c4:	0800faf8 	.word	0x0800faf8
 800d2c8:	66666667 	.word	0x66666667

0800d2cc <quorem>:
 800d2cc:	e92d 4ff0 	stmdb	sp!, {r4, r5, r6, r7, r8, r9, sl, fp, lr}
 800d2d0:	6903      	ldr	r3, [r0, #16]
 800d2d2:	690d      	ldr	r5, [r1, #16]
 800d2d4:	b083      	sub	sp, #12
 800d2d6:	429d      	cmp	r5, r3
 800d2d8:	4683      	mov	fp, r0
 800d2da:	f300 808c 	bgt.w	800d3f6 <quorem+0x12a>
 800d2de:	3d01      	subs	r5, #1
 800d2e0:	f101 0414 	add.w	r4, r1, #20
 800d2e4:	f100 0a14 	add.w	sl, r0, #20
 800d2e8:	f854 2025 	ldr.w	r2, [r4, r5, lsl #2]
 800d2ec:	f85a 3025 	ldr.w	r3, [sl, r5, lsl #2]
 800d2f0:	3201      	adds	r2, #1
 800d2f2:	fbb3 f8f2 	udiv	r8, r3, r2
 800d2f6:	00aa      	lsls	r2, r5, #2
 800d2f8:	4691      	mov	r9, r2
 800d2fa:	9200      	str	r2, [sp, #0]
 800d2fc:	4452      	add	r2, sl
 800d2fe:	44a1      	add	r9, r4
 800d300:	9201      	str	r2, [sp, #4]
 800d302:	f1b8 0f00 	cmp.w	r8, #0
 800d306:	d03e      	beq.n	800d386 <quorem+0xba>
 800d308:	2600      	movs	r6, #0
 800d30a:	4630      	mov	r0, r6
 800d30c:	4622      	mov	r2, r4
 800d30e:	4653      	mov	r3, sl
 800d310:	468c      	mov	ip, r1
 800d312:	f852 7b04 	ldr.w	r7, [r2], #4
 800d316:	6819      	ldr	r1, [r3, #0]
 800d318:	fa1f fe87 	uxth.w	lr, r7
 800d31c:	0c3f      	lsrs	r7, r7, #16
 800d31e:	fb0e 6e08 	mla	lr, lr, r8, r6
 800d322:	fb07 f608 	mul.w	r6, r7, r8
 800d326:	eb06 461e 	add.w	r6, r6, lr, lsr #16
 800d32a:	fa1f fe8e 	uxth.w	lr, lr
 800d32e:	ebce 0e00 	rsb	lr, lr, r0
 800d332:	b28f      	uxth	r7, r1
 800d334:	b2b0      	uxth	r0, r6
 800d336:	4477      	add	r7, lr
 800d338:	ebc0 4011 	rsb	r0, r0, r1, lsr #16
 800d33c:	eb00 4027 	add.w	r0, r0, r7, asr #16
 800d340:	b2bf      	uxth	r7, r7
 800d342:	ea47 4700 	orr.w	r7, r7, r0, lsl #16
 800d346:	4591      	cmp	r9, r2
 800d348:	f843 7b04 	str.w	r7, [r3], #4
 800d34c:	ea4f 4020 	mov.w	r0, r0, asr #16
 800d350:	ea4f 4616 	mov.w	r6, r6, lsr #16
 800d354:	d2dd      	bcs.n	800d312 <quorem+0x46>
 800d356:	9a00      	ldr	r2, [sp, #0]
 800d358:	4661      	mov	r1, ip
 800d35a:	f85a 3002 	ldr.w	r3, [sl, r2]
 800d35e:	b993      	cbnz	r3, 800d386 <quorem+0xba>
 800d360:	9a01      	ldr	r2, [sp, #4]
 800d362:	1f13      	subs	r3, r2, #4
 800d364:	459a      	cmp	sl, r3
 800d366:	d20c      	bcs.n	800d382 <quorem+0xb6>
 800d368:	f852 3c04 	ldr.w	r3, [r2, #-4]
 800d36c:	b94b      	cbnz	r3, 800d382 <quorem+0xb6>
 800d36e:	f1a2 0308 	sub.w	r3, r2, #8
 800d372:	e002      	b.n	800d37a <quorem+0xae>
 800d374:	681a      	ldr	r2, [r3, #0]
 800d376:	3b04      	subs	r3, #4
 800d378:	b91a      	cbnz	r2, 800d382 <quorem+0xb6>
 800d37a:	459a      	cmp	sl, r3
 800d37c:	f105 35ff 	add.w	r5, r5, #4294967295
 800d380:	d3f8      	bcc.n	800d374 <quorem+0xa8>
 800d382:	f8cb 5010 	str.w	r5, [fp, #16]
 800d386:	4658      	mov	r0, fp
 800d388:	f001 f9c0 	bl	800e70c <__mcmp>
 800d38c:	2800      	cmp	r0, #0
 800d38e:	db2e      	blt.n	800d3ee <quorem+0x122>
 800d390:	f108 0801 	add.w	r8, r8, #1
 800d394:	4653      	mov	r3, sl
 800d396:	2200      	movs	r2, #0
 800d398:	f854 6b04 	ldr.w	r6, [r4], #4
 800d39c:	6818      	ldr	r0, [r3, #0]
 800d39e:	b2b1      	uxth	r1, r6
 800d3a0:	1a51      	subs	r1, r2, r1
 800d3a2:	b287      	uxth	r7, r0
 800d3a4:	0c36      	lsrs	r6, r6, #16
 800d3a6:	4439      	add	r1, r7
 800d3a8:	ebc6 4010 	rsb	r0, r6, r0, lsr #16
 800d3ac:	eb00 4221 	add.w	r2, r0, r1, asr #16
 800d3b0:	b289      	uxth	r1, r1
 800d3b2:	ea41 4102 	orr.w	r1, r1, r2, lsl #16
 800d3b6:	45a1      	cmp	r9, r4
 800d3b8:	f843 1b04 	str.w	r1, [r3], #4
 800d3bc:	ea4f 4222 	mov.w	r2, r2, asr #16
 800d3c0:	d2ea      	bcs.n	800d398 <quorem+0xcc>
 800d3c2:	f85a 2025 	ldr.w	r2, [sl, r5, lsl #2]
 800d3c6:	eb0a 0385 	add.w	r3, sl, r5, lsl #2
 800d3ca:	b982      	cbnz	r2, 800d3ee <quorem+0x122>
 800d3cc:	1f1a      	subs	r2, r3, #4
 800d3ce:	4592      	cmp	sl, r2
 800d3d0:	d20b      	bcs.n	800d3ea <quorem+0x11e>
 800d3d2:	f853 2c04 	ldr.w	r2, [r3, #-4]
 800d3d6:	b942      	cbnz	r2, 800d3ea <quorem+0x11e>
 800d3d8:	3b08      	subs	r3, #8
 800d3da:	e002      	b.n	800d3e2 <quorem+0x116>
 800d3dc:	681a      	ldr	r2, [r3, #0]
 800d3de:	3b04      	subs	r3, #4
 800d3e0:	b91a      	cbnz	r2, 800d3ea <quorem+0x11e>
 800d3e2:	459a      	cmp	sl, r3
 800d3e4:	f105 35ff 	add.w	r5, r5, #4294967295
 800d3e8:	d3f8      	bcc.n	800d3dc <quorem+0x110>
 800d3ea:	f8cb 5010 	str.w	r5, [fp, #16]
 800d3ee:	4640      	mov	r0, r8
 800d3f0:	b003      	add	sp, #12
 800d3f2:	e8bd 8ff0 	ldmia.w	sp!, {r4, r5, r6, r7, r8, r9, sl, fp, pc}
 800d3f6:	2000      	movs	r0, #0
 800d3f8:	b003      	add	sp, #12
 800d3fa:	e8bd 8ff0 	ldmia.w	sp!, {r4, r5, r6, r7, r8, r9, sl, fp, pc}
 800d3fe:	bf00      	nop

0800d400 <_dtoa_r>:
 800d400:	e92d 4ff0 	stmdb	sp!, {r4, r5, r6, r7, r8, r9, sl, fp, lr}
 800d404:	6c01      	ldr	r1, [r0, #64]	; 0x40
 800d406:	b09b      	sub	sp, #108	; 0x6c
 800d408:	4604      	mov	r4, r0
 800d40a:	4692      	mov	sl, r2
 800d40c:	469b      	mov	fp, r3
 800d40e:	9d27      	ldr	r5, [sp, #156]	; 0x9c
 800d410:	b141      	cbz	r1, 800d424 <_dtoa_r+0x24>
 800d412:	6c43      	ldr	r3, [r0, #68]	; 0x44
 800d414:	2201      	movs	r2, #1
 800d416:	409a      	lsls	r2, r3
 800d418:	604b      	str	r3, [r1, #4]
 800d41a:	608a      	str	r2, [r1, #8]
 800d41c:	f000 ff80 	bl	800e320 <_Bfree>
 800d420:	2300      	movs	r3, #0
 800d422:	6423      	str	r3, [r4, #64]	; 0x40
 800d424:	f1bb 0f00 	cmp.w	fp, #0
 800d428:	46d9      	mov	r9, fp
 800d42a:	db33      	blt.n	800d494 <_dtoa_r+0x94>
 800d42c:	2300      	movs	r3, #0
 800d42e:	602b      	str	r3, [r5, #0]
 800d430:	4ba5      	ldr	r3, [pc, #660]	; (800d6c8 <_dtoa_r+0x2c8>)
 800d432:	461a      	mov	r2, r3
 800d434:	ea09 0303 	and.w	r3, r9, r3
 800d438:	4293      	cmp	r3, r2
 800d43a:	d014      	beq.n	800d466 <_dtoa_r+0x66>
 800d43c:	4650      	mov	r0, sl
 800d43e:	4659      	mov	r1, fp
 800d440:	2200      	movs	r2, #0
 800d442:	2300      	movs	r3, #0
 800d444:	f7f7 faf0 	bl	8004a28 <__aeabi_dcmpeq>
 800d448:	4680      	mov	r8, r0
 800d44a:	b348      	cbz	r0, 800d4a0 <_dtoa_r+0xa0>
 800d44c:	9e26      	ldr	r6, [sp, #152]	; 0x98
 800d44e:	9d28      	ldr	r5, [sp, #160]	; 0xa0
 800d450:	2301      	movs	r3, #1
 800d452:	6033      	str	r3, [r6, #0]
 800d454:	2d00      	cmp	r5, #0
 800d456:	f000 80ca 	beq.w	800d5ee <_dtoa_r+0x1ee>
 800d45a:	489c      	ldr	r0, [pc, #624]	; (800d6cc <_dtoa_r+0x2cc>)
 800d45c:	6028      	str	r0, [r5, #0]
 800d45e:	3801      	subs	r0, #1
 800d460:	b01b      	add	sp, #108	; 0x6c
 800d462:	e8bd 8ff0 	ldmia.w	sp!, {r4, r5, r6, r7, r8, r9, sl, fp, pc}
 800d466:	9d26      	ldr	r5, [sp, #152]	; 0x98
 800d468:	f242 730f 	movw	r3, #9999	; 0x270f
 800d46c:	602b      	str	r3, [r5, #0]
 800d46e:	f1ba 0f00 	cmp.w	sl, #0
 800d472:	f000 80a5 	beq.w	800d5c0 <_dtoa_r+0x1c0>
 800d476:	4896      	ldr	r0, [pc, #600]	; (800d6d0 <_dtoa_r+0x2d0>)
 800d478:	9e28      	ldr	r6, [sp, #160]	; 0xa0
 800d47a:	2e00      	cmp	r6, #0
 800d47c:	d0f0      	beq.n	800d460 <_dtoa_r+0x60>
 800d47e:	78c3      	ldrb	r3, [r0, #3]
 800d480:	2b00      	cmp	r3, #0
 800d482:	f000 80b6 	beq.w	800d5f2 <_dtoa_r+0x1f2>
 800d486:	f100 0308 	add.w	r3, r0, #8
 800d48a:	9d28      	ldr	r5, [sp, #160]	; 0xa0
 800d48c:	602b      	str	r3, [r5, #0]
 800d48e:	b01b      	add	sp, #108	; 0x6c
 800d490:	e8bd 8ff0 	ldmia.w	sp!, {r4, r5, r6, r7, r8, r9, sl, fp, pc}
 800d494:	2301      	movs	r3, #1
 800d496:	f02b 4900 	bic.w	r9, fp, #2147483648	; 0x80000000
 800d49a:	602b      	str	r3, [r5, #0]
 800d49c:	46cb      	mov	fp, r9
 800d49e:	e7c7      	b.n	800d430 <_dtoa_r+0x30>
 800d4a0:	aa19      	add	r2, sp, #100	; 0x64
 800d4a2:	ab18      	add	r3, sp, #96	; 0x60
 800d4a4:	e88d 000c 	stmia.w	sp, {r2, r3}
 800d4a8:	4620      	mov	r0, r4
 800d4aa:	4652      	mov	r2, sl
 800d4ac:	465b      	mov	r3, fp
 800d4ae:	f001 f9bd 	bl	800e82c <__d2b>
 800d4b2:	ea5f 5519 	movs.w	r5, r9, lsr #20
 800d4b6:	900a      	str	r0, [sp, #40]	; 0x28
 800d4b8:	f040 808b 	bne.w	800d5d2 <_dtoa_r+0x1d2>
 800d4bc:	9f18      	ldr	r7, [sp, #96]	; 0x60
 800d4be:	9d19      	ldr	r5, [sp, #100]	; 0x64
 800d4c0:	f46f 6382 	mvn.w	r3, #1040	; 0x410
 800d4c4:	443d      	add	r5, r7
 800d4c6:	429d      	cmp	r5, r3
 800d4c8:	f2c0 8295 	blt.w	800d9f6 <_dtoa_r+0x5f6>
 800d4cc:	331f      	adds	r3, #31
 800d4ce:	f205 4212 	addw	r2, r5, #1042	; 0x412
 800d4d2:	1b5b      	subs	r3, r3, r5
 800d4d4:	fa09 f303 	lsl.w	r3, r9, r3
 800d4d8:	fa2a f202 	lsr.w	r2, sl, r2
 800d4dc:	ea43 0002 	orr.w	r0, r3, r2
 800d4e0:	f7f6 ffc4 	bl	800446c <__aeabi_ui2d>
 800d4e4:	2601      	movs	r6, #1
 800d4e6:	3d01      	subs	r5, #1
 800d4e8:	46b8      	mov	r8, r7
 800d4ea:	f1a1 71f8 	sub.w	r1, r1, #32505856	; 0x1f00000
 800d4ee:	9616      	str	r6, [sp, #88]	; 0x58
 800d4f0:	2200      	movs	r2, #0
 800d4f2:	4b78      	ldr	r3, [pc, #480]	; (800d6d4 <_dtoa_r+0x2d4>)
 800d4f4:	f7f6 fe7c 	bl	80041f0 <__aeabi_dsub>
 800d4f8:	a36d      	add	r3, pc, #436	; (adr r3, 800d6b0 <_dtoa_r+0x2b0>)
 800d4fa:	e9d3 2300 	ldrd	r2, r3, [r3]
 800d4fe:	f7f7 f82b 	bl	8004558 <__aeabi_dmul>
 800d502:	a36d      	add	r3, pc, #436	; (adr r3, 800d6b8 <_dtoa_r+0x2b8>)
 800d504:	e9d3 2300 	ldrd	r2, r3, [r3]
 800d508:	f7f6 fe74 	bl	80041f4 <__adddf3>
 800d50c:	4606      	mov	r6, r0
 800d50e:	4628      	mov	r0, r5
 800d510:	460f      	mov	r7, r1
 800d512:	f7f6 ffbb 	bl	800448c <__aeabi_i2d>
 800d516:	a36a      	add	r3, pc, #424	; (adr r3, 800d6c0 <_dtoa_r+0x2c0>)
 800d518:	e9d3 2300 	ldrd	r2, r3, [r3]
 800d51c:	f7f7 f81c 	bl	8004558 <__aeabi_dmul>
 800d520:	4602      	mov	r2, r0
 800d522:	460b      	mov	r3, r1
 800d524:	4630      	mov	r0, r6
 800d526:	4639      	mov	r1, r7
 800d528:	f7f6 fe64 	bl	80041f4 <__adddf3>
 800d52c:	4606      	mov	r6, r0
 800d52e:	460f      	mov	r7, r1
 800d530:	f7f7 faac 	bl	8004a8c <__aeabi_d2iz>
 800d534:	4639      	mov	r1, r7
 800d536:	9007      	str	r0, [sp, #28]
 800d538:	2200      	movs	r2, #0
 800d53a:	4630      	mov	r0, r6
 800d53c:	2300      	movs	r3, #0
 800d53e:	f7f7 fa7d 	bl	8004a3c <__aeabi_dcmplt>
 800d542:	2800      	cmp	r0, #0
 800d544:	f040 8229 	bne.w	800d99a <_dtoa_r+0x59a>
 800d548:	9e07      	ldr	r6, [sp, #28]
 800d54a:	2e16      	cmp	r6, #22
 800d54c:	f200 8222 	bhi.w	800d994 <_dtoa_r+0x594>
 800d550:	4961      	ldr	r1, [pc, #388]	; (800d6d8 <_dtoa_r+0x2d8>)
 800d552:	4652      	mov	r2, sl
 800d554:	eb01 01c6 	add.w	r1, r1, r6, lsl #3
 800d558:	465b      	mov	r3, fp
 800d55a:	e9d1 0100 	ldrd	r0, r1, [r1]
 800d55e:	f7f7 fa8b 	bl	8004a78 <__aeabi_dcmpgt>
 800d562:	2800      	cmp	r0, #0
 800d564:	f000 824c 	beq.w	800da00 <_dtoa_r+0x600>
 800d568:	3e01      	subs	r6, #1
 800d56a:	9607      	str	r6, [sp, #28]
 800d56c:	2600      	movs	r6, #0
 800d56e:	960e      	str	r6, [sp, #56]	; 0x38
 800d570:	ebc5 0508 	rsb	r5, r5, r8
 800d574:	3d01      	subs	r5, #1
 800d576:	9506      	str	r5, [sp, #24]
 800d578:	f100 8226 	bmi.w	800d9c8 <_dtoa_r+0x5c8>
 800d57c:	2500      	movs	r5, #0
 800d57e:	9508      	str	r5, [sp, #32]
 800d580:	9e07      	ldr	r6, [sp, #28]
 800d582:	2e00      	cmp	r6, #0
 800d584:	f2c0 8217 	blt.w	800d9b6 <_dtoa_r+0x5b6>
 800d588:	9d06      	ldr	r5, [sp, #24]
 800d58a:	960d      	str	r6, [sp, #52]	; 0x34
 800d58c:	4435      	add	r5, r6
 800d58e:	2600      	movs	r6, #0
 800d590:	9506      	str	r5, [sp, #24]
 800d592:	960c      	str	r6, [sp, #48]	; 0x30
 800d594:	9d24      	ldr	r5, [sp, #144]	; 0x90
 800d596:	2d09      	cmp	r5, #9
 800d598:	d82d      	bhi.n	800d5f6 <_dtoa_r+0x1f6>
 800d59a:	2d05      	cmp	r5, #5
 800d59c:	bfc4      	itt	gt
 800d59e:	3d04      	subgt	r5, #4
 800d5a0:	9524      	strgt	r5, [sp, #144]	; 0x90
 800d5a2:	9e24      	ldr	r6, [sp, #144]	; 0x90
 800d5a4:	bfc8      	it	gt
 800d5a6:	2500      	movgt	r5, #0
 800d5a8:	f1a6 0302 	sub.w	r3, r6, #2
 800d5ac:	bfd8      	it	le
 800d5ae:	2501      	movle	r5, #1
 800d5b0:	2b03      	cmp	r3, #3
 800d5b2:	d822      	bhi.n	800d5fa <_dtoa_r+0x1fa>
 800d5b4:	e8df f013 	tbh	[pc, r3, lsl #1]
 800d5b8:	029e03b7 	.word	0x029e03b7
 800d5bc:	049a03c0 	.word	0x049a03c0
 800d5c0:	4a46      	ldr	r2, [pc, #280]	; (800d6dc <_dtoa_r+0x2dc>)
 800d5c2:	4b43      	ldr	r3, [pc, #268]	; (800d6d0 <_dtoa_r+0x2d0>)
 800d5c4:	f3c9 0013 	ubfx	r0, r9, #0, #20
 800d5c8:	2800      	cmp	r0, #0
 800d5ca:	bf0c      	ite	eq
 800d5cc:	4610      	moveq	r0, r2
 800d5ce:	4618      	movne	r0, r3
 800d5d0:	e752      	b.n	800d478 <_dtoa_r+0x78>
 800d5d2:	f3cb 0313 	ubfx	r3, fp, #0, #20
 800d5d6:	f043 517f 	orr.w	r1, r3, #1069547520	; 0x3fc00000
 800d5da:	f8cd 8058 	str.w	r8, [sp, #88]	; 0x58
 800d5de:	4650      	mov	r0, sl
 800d5e0:	f2a5 35ff 	subw	r5, r5, #1023	; 0x3ff
 800d5e4:	f441 1140 	orr.w	r1, r1, #3145728	; 0x300000
 800d5e8:	f8dd 8060 	ldr.w	r8, [sp, #96]	; 0x60
 800d5ec:	e780      	b.n	800d4f0 <_dtoa_r+0xf0>
 800d5ee:	483c      	ldr	r0, [pc, #240]	; (800d6e0 <_dtoa_r+0x2e0>)
 800d5f0:	e736      	b.n	800d460 <_dtoa_r+0x60>
 800d5f2:	1cc3      	adds	r3, r0, #3
 800d5f4:	e749      	b.n	800d48a <_dtoa_r+0x8a>
 800d5f6:	2500      	movs	r5, #0
 800d5f8:	9524      	str	r5, [sp, #144]	; 0x90
 800d5fa:	2500      	movs	r5, #0
 800d5fc:	6465      	str	r5, [r4, #68]	; 0x44
 800d5fe:	4629      	mov	r1, r5
 800d600:	4620      	mov	r0, r4
 800d602:	f000 fe67 	bl	800e2d4 <_Balloc>
 800d606:	f04f 39ff 	mov.w	r9, #4294967295
 800d60a:	2601      	movs	r6, #1
 800d60c:	9009      	str	r0, [sp, #36]	; 0x24
 800d60e:	9525      	str	r5, [sp, #148]	; 0x94
 800d610:	6420      	str	r0, [r4, #64]	; 0x40
 800d612:	f8cd 903c 	str.w	r9, [sp, #60]	; 0x3c
 800d616:	960b      	str	r6, [sp, #44]	; 0x2c
 800d618:	9b19      	ldr	r3, [sp, #100]	; 0x64
 800d61a:	2b00      	cmp	r3, #0
 800d61c:	f2c0 80d2 	blt.w	800d7c4 <_dtoa_r+0x3c4>
 800d620:	9e07      	ldr	r6, [sp, #28]
 800d622:	2e0e      	cmp	r6, #14
 800d624:	f300 80ce 	bgt.w	800d7c4 <_dtoa_r+0x3c4>
 800d628:	4b2b      	ldr	r3, [pc, #172]	; (800d6d8 <_dtoa_r+0x2d8>)
 800d62a:	eb03 03c6 	add.w	r3, r3, r6, lsl #3
 800d62e:	e9d3 0100 	ldrd	r0, r1, [r3]
 800d632:	e9cd 0104 	strd	r0, r1, [sp, #16]
 800d636:	9925      	ldr	r1, [sp, #148]	; 0x94
 800d638:	2900      	cmp	r1, #0
 800d63a:	f2c0 8380 	blt.w	800dd3e <_dtoa_r+0x93e>
 800d63e:	e9dd 2304 	ldrd	r2, r3, [sp, #16]
 800d642:	4659      	mov	r1, fp
 800d644:	4650      	mov	r0, sl
 800d646:	f7f7 f8b1 	bl	80047ac <__aeabi_ddiv>
 800d64a:	f7f7 fa1f 	bl	8004a8c <__aeabi_d2iz>
 800d64e:	4605      	mov	r5, r0
 800d650:	f7f6 ff1c 	bl	800448c <__aeabi_i2d>
 800d654:	e9dd 2304 	ldrd	r2, r3, [sp, #16]
 800d658:	f7f6 ff7e 	bl	8004558 <__aeabi_dmul>
 800d65c:	4602      	mov	r2, r0
 800d65e:	460b      	mov	r3, r1
 800d660:	4650      	mov	r0, sl
 800d662:	4659      	mov	r1, fp
 800d664:	f7f6 fdc4 	bl	80041f0 <__aeabi_dsub>
 800d668:	9a09      	ldr	r2, [sp, #36]	; 0x24
 800d66a:	f105 0330 	add.w	r3, r5, #48	; 0x30
 800d66e:	f1b9 0f01 	cmp.w	r9, #1
 800d672:	4606      	mov	r6, r0
 800d674:	460f      	mov	r7, r1
 800d676:	7013      	strb	r3, [r2, #0]
 800d678:	f102 0b01 	add.w	fp, r2, #1
 800d67c:	d064      	beq.n	800d748 <_dtoa_r+0x348>
 800d67e:	2200      	movs	r2, #0
 800d680:	4b18      	ldr	r3, [pc, #96]	; (800d6e4 <_dtoa_r+0x2e4>)
 800d682:	f7f6 ff69 	bl	8004558 <__aeabi_dmul>
 800d686:	2200      	movs	r2, #0
 800d688:	2300      	movs	r3, #0
 800d68a:	4606      	mov	r6, r0
 800d68c:	460f      	mov	r7, r1
 800d68e:	f7f7 f9cb 	bl	8004a28 <__aeabi_dcmpeq>
 800d692:	2800      	cmp	r0, #0
 800d694:	f040 8081 	bne.w	800d79a <_dtoa_r+0x39a>
 800d698:	f8dd 8024 	ldr.w	r8, [sp, #36]	; 0x24
 800d69c:	9d09      	ldr	r5, [sp, #36]	; 0x24
 800d69e:	44c8      	add	r8, r9
 800d6a0:	e9dd ab04 	ldrd	sl, fp, [sp, #16]
 800d6a4:	f105 0902 	add.w	r9, r5, #2
 800d6a8:	9403      	str	r4, [sp, #12]
 800d6aa:	e028      	b.n	800d6fe <_dtoa_r+0x2fe>
 800d6ac:	f3af 8000 	nop.w
 800d6b0:	636f4361 	.word	0x636f4361
 800d6b4:	3fd287a7 	.word	0x3fd287a7
 800d6b8:	8b60c8b3 	.word	0x8b60c8b3
 800d6bc:	3fc68a28 	.word	0x3fc68a28
 800d6c0:	509f79fb 	.word	0x509f79fb
 800d6c4:	3fd34413 	.word	0x3fd34413
 800d6c8:	7ff00000 	.word	0x7ff00000
 800d6cc:	0800fb01 	.word	0x0800fb01
 800d6d0:	0800fb20 	.word	0x0800fb20
 800d6d4:	3ff80000 	.word	0x3ff80000
 800d6d8:	0800fb30 	.word	0x0800fb30
 800d6dc:	0800fb14 	.word	0x0800fb14
 800d6e0:	0800fb00 	.word	0x0800fb00
 800d6e4:	40240000 	.word	0x40240000
 800d6e8:	f7f6 ff36 	bl	8004558 <__aeabi_dmul>
 800d6ec:	2200      	movs	r2, #0
 800d6ee:	2300      	movs	r3, #0
 800d6f0:	4606      	mov	r6, r0
 800d6f2:	460f      	mov	r7, r1
 800d6f4:	f7f7 f998 	bl	8004a28 <__aeabi_dcmpeq>
 800d6f8:	2800      	cmp	r0, #0
 800d6fa:	f040 83c1 	bne.w	800de80 <_dtoa_r+0xa80>
 800d6fe:	4652      	mov	r2, sl
 800d700:	465b      	mov	r3, fp
 800d702:	4630      	mov	r0, r6
 800d704:	4639      	mov	r1, r7
 800d706:	f7f7 f851 	bl	80047ac <__aeabi_ddiv>
 800d70a:	f7f7 f9bf 	bl	8004a8c <__aeabi_d2iz>
 800d70e:	4605      	mov	r5, r0
 800d710:	f7f6 febc 	bl	800448c <__aeabi_i2d>
 800d714:	4652      	mov	r2, sl
 800d716:	465b      	mov	r3, fp
 800d718:	f7f6 ff1e 	bl	8004558 <__aeabi_dmul>
 800d71c:	4602      	mov	r2, r0
 800d71e:	460b      	mov	r3, r1
 800d720:	4630      	mov	r0, r6
 800d722:	4639      	mov	r1, r7
 800d724:	f7f6 fd64 	bl	80041f0 <__aeabi_dsub>
 800d728:	f105 0e30 	add.w	lr, r5, #48	; 0x30
 800d72c:	45c1      	cmp	r9, r8
 800d72e:	f809 ec01 	strb.w	lr, [r9, #-1]
 800d732:	464c      	mov	r4, r9
 800d734:	4606      	mov	r6, r0
 800d736:	460f      	mov	r7, r1
 800d738:	f04f 0200 	mov.w	r2, #0
 800d73c:	4ba7      	ldr	r3, [pc, #668]	; (800d9dc <_dtoa_r+0x5dc>)
 800d73e:	f109 0901 	add.w	r9, r9, #1
 800d742:	d1d1      	bne.n	800d6e8 <_dtoa_r+0x2e8>
 800d744:	46a3      	mov	fp, r4
 800d746:	9c03      	ldr	r4, [sp, #12]
 800d748:	4632      	mov	r2, r6
 800d74a:	463b      	mov	r3, r7
 800d74c:	4630      	mov	r0, r6
 800d74e:	4639      	mov	r1, r7
 800d750:	f7f6 fd50 	bl	80041f4 <__adddf3>
 800d754:	4606      	mov	r6, r0
 800d756:	460f      	mov	r7, r1
 800d758:	4632      	mov	r2, r6
 800d75a:	e9dd 0104 	ldrd	r0, r1, [sp, #16]
 800d75e:	463b      	mov	r3, r7
 800d760:	f7f7 f96c 	bl	8004a3c <__aeabi_dcmplt>
 800d764:	b940      	cbnz	r0, 800d778 <_dtoa_r+0x378>
 800d766:	e9dd 0104 	ldrd	r0, r1, [sp, #16]
 800d76a:	4632      	mov	r2, r6
 800d76c:	463b      	mov	r3, r7
 800d76e:	f7f7 f95b 	bl	8004a28 <__aeabi_dcmpeq>
 800d772:	b190      	cbz	r0, 800d79a <_dtoa_r+0x39a>
 800d774:	07eb      	lsls	r3, r5, #31
 800d776:	d510      	bpl.n	800d79a <_dtoa_r+0x39a>
 800d778:	f81b 5c01 	ldrb.w	r5, [fp, #-1]
 800d77c:	9a09      	ldr	r2, [sp, #36]	; 0x24
 800d77e:	e005      	b.n	800d78c <_dtoa_r+0x38c>
 800d780:	429a      	cmp	r2, r3
 800d782:	f000 8429 	beq.w	800dfd8 <_dtoa_r+0xbd8>
 800d786:	f813 5c01 	ldrb.w	r5, [r3, #-1]
 800d78a:	469b      	mov	fp, r3
 800d78c:	2d39      	cmp	r5, #57	; 0x39
 800d78e:	f10b 33ff 	add.w	r3, fp, #4294967295
 800d792:	d0f5      	beq.n	800d780 <_dtoa_r+0x380>
 800d794:	1c6a      	adds	r2, r5, #1
 800d796:	b2d2      	uxtb	r2, r2
 800d798:	701a      	strb	r2, [r3, #0]
 800d79a:	4620      	mov	r0, r4
 800d79c:	990a      	ldr	r1, [sp, #40]	; 0x28
 800d79e:	f000 fdbf 	bl	800e320 <_Bfree>
 800d7a2:	9e07      	ldr	r6, [sp, #28]
 800d7a4:	9d26      	ldr	r5, [sp, #152]	; 0x98
 800d7a6:	1c73      	adds	r3, r6, #1
 800d7a8:	9e28      	ldr	r6, [sp, #160]	; 0xa0
 800d7aa:	2200      	movs	r2, #0
 800d7ac:	f88b 2000 	strb.w	r2, [fp]
 800d7b0:	602b      	str	r3, [r5, #0]
 800d7b2:	2e00      	cmp	r6, #0
 800d7b4:	f000 8325 	beq.w	800de02 <_dtoa_r+0xa02>
 800d7b8:	9809      	ldr	r0, [sp, #36]	; 0x24
 800d7ba:	f8c6 b000 	str.w	fp, [r6]
 800d7be:	b01b      	add	sp, #108	; 0x6c
 800d7c0:	e8bd 8ff0 	ldmia.w	sp!, {r4, r5, r6, r7, r8, r9, sl, fp, pc}
 800d7c4:	9d0b      	ldr	r5, [sp, #44]	; 0x2c
 800d7c6:	2d00      	cmp	r5, #0
 800d7c8:	f000 8103 	beq.w	800d9d2 <_dtoa_r+0x5d2>
 800d7cc:	9e24      	ldr	r6, [sp, #144]	; 0x90
 800d7ce:	2e01      	cmp	r6, #1
 800d7d0:	f340 82dc 	ble.w	800dd8c <_dtoa_r+0x98c>
 800d7d4:	9e0c      	ldr	r6, [sp, #48]	; 0x30
 800d7d6:	f109 37ff 	add.w	r7, r9, #4294967295
 800d7da:	42be      	cmp	r6, r7
 800d7dc:	f2c0 8389 	blt.w	800def2 <_dtoa_r+0xaf2>
 800d7e0:	1bf7      	subs	r7, r6, r7
 800d7e2:	f1b9 0f00 	cmp.w	r9, #0
 800d7e6:	f2c0 8487 	blt.w	800e0f8 <_dtoa_r+0xcf8>
 800d7ea:	9d08      	ldr	r5, [sp, #32]
 800d7ec:	464b      	mov	r3, r9
 800d7ee:	9e08      	ldr	r6, [sp, #32]
 800d7f0:	4620      	mov	r0, r4
 800d7f2:	441e      	add	r6, r3
 800d7f4:	9608      	str	r6, [sp, #32]
 800d7f6:	9e06      	ldr	r6, [sp, #24]
 800d7f8:	2101      	movs	r1, #1
 800d7fa:	441e      	add	r6, r3
 800d7fc:	9606      	str	r6, [sp, #24]
 800d7fe:	f000 fe31 	bl	800e464 <__i2b>
 800d802:	4606      	mov	r6, r0
 800d804:	b165      	cbz	r5, 800d820 <_dtoa_r+0x420>
 800d806:	9806      	ldr	r0, [sp, #24]
 800d808:	2800      	cmp	r0, #0
 800d80a:	dd09      	ble.n	800d820 <_dtoa_r+0x420>
 800d80c:	4603      	mov	r3, r0
 800d80e:	9908      	ldr	r1, [sp, #32]
 800d810:	42ab      	cmp	r3, r5
 800d812:	bfa8      	it	ge
 800d814:	462b      	movge	r3, r5
 800d816:	1ac9      	subs	r1, r1, r3
 800d818:	1ac0      	subs	r0, r0, r3
 800d81a:	9108      	str	r1, [sp, #32]
 800d81c:	1aed      	subs	r5, r5, r3
 800d81e:	9006      	str	r0, [sp, #24]
 800d820:	9a0c      	ldr	r2, [sp, #48]	; 0x30
 800d822:	2a00      	cmp	r2, #0
 800d824:	dd1d      	ble.n	800d862 <_dtoa_r+0x462>
 800d826:	9b0b      	ldr	r3, [sp, #44]	; 0x2c
 800d828:	2b00      	cmp	r3, #0
 800d82a:	f000 8358 	beq.w	800dede <_dtoa_r+0xade>
 800d82e:	2f00      	cmp	r7, #0
 800d830:	dd11      	ble.n	800d856 <_dtoa_r+0x456>
 800d832:	4631      	mov	r1, r6
 800d834:	463a      	mov	r2, r7
 800d836:	4620      	mov	r0, r4
 800d838:	f000 febc 	bl	800e5b4 <__pow5mult>
 800d83c:	4606      	mov	r6, r0
 800d83e:	4631      	mov	r1, r6
 800d840:	9a0a      	ldr	r2, [sp, #40]	; 0x28
 800d842:	4620      	mov	r0, r4
 800d844:	f000 fe18 	bl	800e478 <__multiply>
 800d848:	990a      	ldr	r1, [sp, #40]	; 0x28
 800d84a:	4680      	mov	r8, r0
 800d84c:	4620      	mov	r0, r4
 800d84e:	f000 fd67 	bl	800e320 <_Bfree>
 800d852:	f8cd 8028 	str.w	r8, [sp, #40]	; 0x28
 800d856:	f8dd e030 	ldr.w	lr, [sp, #48]	; 0x30
 800d85a:	ebbe 0207 	subs.w	r2, lr, r7
 800d85e:	f040 828f 	bne.w	800dd80 <_dtoa_r+0x980>
 800d862:	4620      	mov	r0, r4
 800d864:	2101      	movs	r1, #1
 800d866:	f000 fdfd 	bl	800e464 <__i2b>
 800d86a:	4680      	mov	r8, r0
 800d86c:	980d      	ldr	r0, [sp, #52]	; 0x34
 800d86e:	2800      	cmp	r0, #0
 800d870:	dd05      	ble.n	800d87e <_dtoa_r+0x47e>
 800d872:	4641      	mov	r1, r8
 800d874:	4620      	mov	r0, r4
 800d876:	9a0d      	ldr	r2, [sp, #52]	; 0x34
 800d878:	f000 fe9c 	bl	800e5b4 <__pow5mult>
 800d87c:	4680      	mov	r8, r0
 800d87e:	9924      	ldr	r1, [sp, #144]	; 0x90
 800d880:	2901      	cmp	r1, #1
 800d882:	f340 82c1 	ble.w	800de08 <_dtoa_r+0xa08>
 800d886:	2700      	movs	r7, #0
 800d888:	980d      	ldr	r0, [sp, #52]	; 0x34
 800d88a:	2800      	cmp	r0, #0
 800d88c:	f040 82af 	bne.w	800ddee <_dtoa_r+0x9ee>
 800d890:	2001      	movs	r0, #1
 800d892:	9b06      	ldr	r3, [sp, #24]
 800d894:	4403      	add	r3, r0
 800d896:	f013 031f 	ands.w	r3, r3, #31
 800d89a:	f000 80a1 	beq.w	800d9e0 <_dtoa_r+0x5e0>
 800d89e:	f1c3 0220 	rsb	r2, r3, #32
 800d8a2:	2a04      	cmp	r2, #4
 800d8a4:	f340 84b7 	ble.w	800e216 <_dtoa_r+0xe16>
 800d8a8:	9908      	ldr	r1, [sp, #32]
 800d8aa:	9a06      	ldr	r2, [sp, #24]
 800d8ac:	f1c3 031c 	rsb	r3, r3, #28
 800d8b0:	4419      	add	r1, r3
 800d8b2:	441a      	add	r2, r3
 800d8b4:	9108      	str	r1, [sp, #32]
 800d8b6:	441d      	add	r5, r3
 800d8b8:	9206      	str	r2, [sp, #24]
 800d8ba:	9908      	ldr	r1, [sp, #32]
 800d8bc:	2900      	cmp	r1, #0
 800d8be:	dd05      	ble.n	800d8cc <_dtoa_r+0x4cc>
 800d8c0:	990a      	ldr	r1, [sp, #40]	; 0x28
 800d8c2:	9a08      	ldr	r2, [sp, #32]
 800d8c4:	4620      	mov	r0, r4
 800d8c6:	f000 fec3 	bl	800e650 <__lshift>
 800d8ca:	900a      	str	r0, [sp, #40]	; 0x28
 800d8cc:	9a06      	ldr	r2, [sp, #24]
 800d8ce:	2a00      	cmp	r2, #0
 800d8d0:	dd04      	ble.n	800d8dc <_dtoa_r+0x4dc>
 800d8d2:	4641      	mov	r1, r8
 800d8d4:	4620      	mov	r0, r4
 800d8d6:	f000 febb 	bl	800e650 <__lshift>
 800d8da:	4680      	mov	r8, r0
 800d8dc:	9b0e      	ldr	r3, [sp, #56]	; 0x38
 800d8de:	2b00      	cmp	r3, #0
 800d8e0:	f040 826a 	bne.w	800ddb8 <_dtoa_r+0x9b8>
 800d8e4:	f1b9 0f00 	cmp.w	r9, #0
 800d8e8:	f340 82a6 	ble.w	800de38 <_dtoa_r+0xa38>
 800d8ec:	980b      	ldr	r0, [sp, #44]	; 0x2c
 800d8ee:	2800      	cmp	r0, #0
 800d8f0:	f040 8088 	bne.w	800da04 <_dtoa_r+0x604>
 800d8f4:	9d0b      	ldr	r5, [sp, #44]	; 0x2c
 800d8f6:	9f0a      	ldr	r7, [sp, #40]	; 0x28
 800d8f8:	f8dd b024 	ldr.w	fp, [sp, #36]	; 0x24
 800d8fc:	e006      	b.n	800d90c <_dtoa_r+0x50c>
 800d8fe:	4639      	mov	r1, r7
 800d900:	4620      	mov	r0, r4
 800d902:	220a      	movs	r2, #10
 800d904:	2300      	movs	r3, #0
 800d906:	f000 fd15 	bl	800e334 <__multadd>
 800d90a:	4607      	mov	r7, r0
 800d90c:	4638      	mov	r0, r7
 800d90e:	4641      	mov	r1, r8
 800d910:	f7ff fcdc 	bl	800d2cc <quorem>
 800d914:	3030      	adds	r0, #48	; 0x30
 800d916:	f80b 0005 	strb.w	r0, [fp, r5]
 800d91a:	3501      	adds	r5, #1
 800d91c:	45a9      	cmp	r9, r5
 800d91e:	dcee      	bgt.n	800d8fe <_dtoa_r+0x4fe>
 800d920:	f8dd b024 	ldr.w	fp, [sp, #36]	; 0x24
 800d924:	4682      	mov	sl, r0
 800d926:	970a      	str	r7, [sp, #40]	; 0x28
 800d928:	f1b9 0f01 	cmp.w	r9, #1
 800d92c:	bfac      	ite	ge
 800d92e:	44cb      	addge	fp, r9
 800d930:	f10b 0b01 	addlt.w	fp, fp, #1
 800d934:	2500      	movs	r5, #0
 800d936:	990a      	ldr	r1, [sp, #40]	; 0x28
 800d938:	2201      	movs	r2, #1
 800d93a:	4620      	mov	r0, r4
 800d93c:	f000 fe88 	bl	800e650 <__lshift>
 800d940:	4641      	mov	r1, r8
 800d942:	900a      	str	r0, [sp, #40]	; 0x28
 800d944:	f000 fee2 	bl	800e70c <__mcmp>
 800d948:	2800      	cmp	r0, #0
 800d94a:	f340 8309 	ble.w	800df60 <_dtoa_r+0xb60>
 800d94e:	f81b 2c01 	ldrb.w	r2, [fp, #-1]
 800d952:	9909      	ldr	r1, [sp, #36]	; 0x24
 800d954:	e005      	b.n	800d962 <_dtoa_r+0x562>
 800d956:	4299      	cmp	r1, r3
 800d958:	f000 828b 	beq.w	800de72 <_dtoa_r+0xa72>
 800d95c:	f813 2c01 	ldrb.w	r2, [r3, #-1]
 800d960:	469b      	mov	fp, r3
 800d962:	2a39      	cmp	r2, #57	; 0x39
 800d964:	f10b 33ff 	add.w	r3, fp, #4294967295
 800d968:	d0f5      	beq.n	800d956 <_dtoa_r+0x556>
 800d96a:	3201      	adds	r2, #1
 800d96c:	701a      	strb	r2, [r3, #0]
 800d96e:	4641      	mov	r1, r8
 800d970:	4620      	mov	r0, r4
 800d972:	f000 fcd5 	bl	800e320 <_Bfree>
 800d976:	2e00      	cmp	r6, #0
 800d978:	f43f af0f 	beq.w	800d79a <_dtoa_r+0x39a>
 800d97c:	b12d      	cbz	r5, 800d98a <_dtoa_r+0x58a>
 800d97e:	42b5      	cmp	r5, r6
 800d980:	d003      	beq.n	800d98a <_dtoa_r+0x58a>
 800d982:	4629      	mov	r1, r5
 800d984:	4620      	mov	r0, r4
 800d986:	f000 fccb 	bl	800e320 <_Bfree>
 800d98a:	4631      	mov	r1, r6
 800d98c:	4620      	mov	r0, r4
 800d98e:	f000 fcc7 	bl	800e320 <_Bfree>
 800d992:	e702      	b.n	800d79a <_dtoa_r+0x39a>
 800d994:	2601      	movs	r6, #1
 800d996:	960e      	str	r6, [sp, #56]	; 0x38
 800d998:	e5ea      	b.n	800d570 <_dtoa_r+0x170>
 800d99a:	9807      	ldr	r0, [sp, #28]
 800d99c:	f7f6 fd76 	bl	800448c <__aeabi_i2d>
 800d9a0:	4632      	mov	r2, r6
 800d9a2:	463b      	mov	r3, r7
 800d9a4:	f7f7 f840 	bl	8004a28 <__aeabi_dcmpeq>
 800d9a8:	2800      	cmp	r0, #0
 800d9aa:	f47f adcd 	bne.w	800d548 <_dtoa_r+0x148>
 800d9ae:	9e07      	ldr	r6, [sp, #28]
 800d9b0:	3e01      	subs	r6, #1
 800d9b2:	9607      	str	r6, [sp, #28]
 800d9b4:	e5c8      	b.n	800d548 <_dtoa_r+0x148>
 800d9b6:	9e07      	ldr	r6, [sp, #28]
 800d9b8:	9d08      	ldr	r5, [sp, #32]
 800d9ba:	1bad      	subs	r5, r5, r6
 800d9bc:	9508      	str	r5, [sp, #32]
 800d9be:	4275      	negs	r5, r6
 800d9c0:	2600      	movs	r6, #0
 800d9c2:	950c      	str	r5, [sp, #48]	; 0x30
 800d9c4:	960d      	str	r6, [sp, #52]	; 0x34
 800d9c6:	e5e5      	b.n	800d594 <_dtoa_r+0x194>
 800d9c8:	426d      	negs	r5, r5
 800d9ca:	2600      	movs	r6, #0
 800d9cc:	9508      	str	r5, [sp, #32]
 800d9ce:	9606      	str	r6, [sp, #24]
 800d9d0:	e5d6      	b.n	800d580 <_dtoa_r+0x180>
 800d9d2:	9f0c      	ldr	r7, [sp, #48]	; 0x30
 800d9d4:	9d08      	ldr	r5, [sp, #32]
 800d9d6:	9e0b      	ldr	r6, [sp, #44]	; 0x2c
 800d9d8:	e714      	b.n	800d804 <_dtoa_r+0x404>
 800d9da:	bf00      	nop
 800d9dc:	40240000 	.word	0x40240000
 800d9e0:	231c      	movs	r3, #28
 800d9e2:	f8dd e020 	ldr.w	lr, [sp, #32]
 800d9e6:	9806      	ldr	r0, [sp, #24]
 800d9e8:	449e      	add	lr, r3
 800d9ea:	4418      	add	r0, r3
 800d9ec:	f8cd e020 	str.w	lr, [sp, #32]
 800d9f0:	441d      	add	r5, r3
 800d9f2:	9006      	str	r0, [sp, #24]
 800d9f4:	e761      	b.n	800d8ba <_dtoa_r+0x4ba>
 800d9f6:	48a7      	ldr	r0, [pc, #668]	; (800dc94 <_dtoa_r+0x894>)
 800d9f8:	1b40      	subs	r0, r0, r5
 800d9fa:	fa0a f000 	lsl.w	r0, sl, r0
 800d9fe:	e56f      	b.n	800d4e0 <_dtoa_r+0xe0>
 800da00:	900e      	str	r0, [sp, #56]	; 0x38
 800da02:	e5b5      	b.n	800d570 <_dtoa_r+0x170>
 800da04:	2d00      	cmp	r5, #0
 800da06:	dd05      	ble.n	800da14 <_dtoa_r+0x614>
 800da08:	4631      	mov	r1, r6
 800da0a:	462a      	mov	r2, r5
 800da0c:	4620      	mov	r0, r4
 800da0e:	f000 fe1f 	bl	800e650 <__lshift>
 800da12:	4606      	mov	r6, r0
 800da14:	2f00      	cmp	r7, #0
 800da16:	f040 82e9 	bne.w	800dfec <_dtoa_r+0xbec>
 800da1a:	4637      	mov	r7, r6
 800da1c:	9d09      	ldr	r5, [sp, #36]	; 0x24
 800da1e:	9809      	ldr	r0, [sp, #36]	; 0x24
 800da20:	444d      	add	r5, r9
 800da22:	9508      	str	r5, [sp, #32]
 800da24:	f00a 0501 	and.w	r5, sl, #1
 800da28:	950b      	str	r5, [sp, #44]	; 0x2c
 800da2a:	f8dd 9028 	ldr.w	r9, [sp, #40]	; 0x28
 800da2e:	1c45      	adds	r5, r0, #1
 800da30:	e00a      	b.n	800da48 <_dtoa_r+0x648>
 800da32:	f000 fc7f 	bl	800e334 <__multadd>
 800da36:	4639      	mov	r1, r7
 800da38:	4606      	mov	r6, r0
 800da3a:	220a      	movs	r2, #10
 800da3c:	4620      	mov	r0, r4
 800da3e:	2300      	movs	r3, #0
 800da40:	f000 fc78 	bl	800e334 <__multadd>
 800da44:	4607      	mov	r7, r0
 800da46:	3501      	adds	r5, #1
 800da48:	4641      	mov	r1, r8
 800da4a:	4648      	mov	r0, r9
 800da4c:	f7ff fc3e 	bl	800d2cc <quorem>
 800da50:	4631      	mov	r1, r6
 800da52:	4683      	mov	fp, r0
 800da54:	4648      	mov	r0, r9
 800da56:	f000 fe59 	bl	800e70c <__mcmp>
 800da5a:	4641      	mov	r1, r8
 800da5c:	9003      	str	r0, [sp, #12]
 800da5e:	463a      	mov	r2, r7
 800da60:	4620      	mov	r0, r4
 800da62:	f000 fe77 	bl	800e754 <__mdiff>
 800da66:	68c2      	ldr	r2, [r0, #12]
 800da68:	1e69      	subs	r1, r5, #1
 800da6a:	4603      	mov	r3, r0
 800da6c:	f10b 0a30 	add.w	sl, fp, #48	; 0x30
 800da70:	9106      	str	r1, [sp, #24]
 800da72:	2a00      	cmp	r2, #0
 800da74:	f040 8193 	bne.w	800dd9e <_dtoa_r+0x99e>
 800da78:	4619      	mov	r1, r3
 800da7a:	4648      	mov	r0, r9
 800da7c:	9302      	str	r3, [sp, #8]
 800da7e:	f000 fe45 	bl	800e70c <__mcmp>
 800da82:	9b02      	ldr	r3, [sp, #8]
 800da84:	4602      	mov	r2, r0
 800da86:	4619      	mov	r1, r3
 800da88:	4620      	mov	r0, r4
 800da8a:	9202      	str	r2, [sp, #8]
 800da8c:	f000 fc48 	bl	800e320 <_Bfree>
 800da90:	9a02      	ldr	r2, [sp, #8]
 800da92:	b92a      	cbnz	r2, 800daa0 <_dtoa_r+0x6a0>
 800da94:	9b24      	ldr	r3, [sp, #144]	; 0x90
 800da96:	b91b      	cbnz	r3, 800daa0 <_dtoa_r+0x6a0>
 800da98:	980b      	ldr	r0, [sp, #44]	; 0x2c
 800da9a:	2800      	cmp	r0, #0
 800da9c:	f000 8393 	beq.w	800e1c6 <_dtoa_r+0xdc6>
 800daa0:	9b03      	ldr	r3, [sp, #12]
 800daa2:	2b00      	cmp	r3, #0
 800daa4:	f2c0 8234 	blt.w	800df10 <_dtoa_r+0xb10>
 800daa8:	d105      	bne.n	800dab6 <_dtoa_r+0x6b6>
 800daaa:	9824      	ldr	r0, [sp, #144]	; 0x90
 800daac:	b918      	cbnz	r0, 800dab6 <_dtoa_r+0x6b6>
 800daae:	990b      	ldr	r1, [sp, #44]	; 0x2c
 800dab0:	2900      	cmp	r1, #0
 800dab2:	f000 822d 	beq.w	800df10 <_dtoa_r+0xb10>
 800dab6:	2a00      	cmp	r2, #0
 800dab8:	f300 82ac 	bgt.w	800e014 <_dtoa_r+0xc14>
 800dabc:	f8dd e020 	ldr.w	lr, [sp, #32]
 800dac0:	f805 ac01 	strb.w	sl, [r5, #-1]
 800dac4:	4575      	cmp	r5, lr
 800dac6:	46ab      	mov	fp, r5
 800dac8:	f000 82b4 	beq.w	800e034 <_dtoa_r+0xc34>
 800dacc:	4649      	mov	r1, r9
 800dace:	220a      	movs	r2, #10
 800dad0:	2300      	movs	r3, #0
 800dad2:	4620      	mov	r0, r4
 800dad4:	f000 fc2e 	bl	800e334 <__multadd>
 800dad8:	42be      	cmp	r6, r7
 800dada:	4681      	mov	r9, r0
 800dadc:	4631      	mov	r1, r6
 800dade:	4620      	mov	r0, r4
 800dae0:	f04f 020a 	mov.w	r2, #10
 800dae4:	f04f 0300 	mov.w	r3, #0
 800dae8:	d1a3      	bne.n	800da32 <_dtoa_r+0x632>
 800daea:	f000 fc23 	bl	800e334 <__multadd>
 800daee:	4606      	mov	r6, r0
 800daf0:	4607      	mov	r7, r0
 800daf2:	e7a8      	b.n	800da46 <_dtoa_r+0x646>
 800daf4:	2600      	movs	r6, #0
 800daf6:	960b      	str	r6, [sp, #44]	; 0x2c
 800daf8:	9e07      	ldr	r6, [sp, #28]
 800dafa:	f8dd e094 	ldr.w	lr, [sp, #148]	; 0x94
 800dafe:	44b6      	add	lr, r6
 800db00:	f10e 0901 	add.w	r9, lr, #1
 800db04:	f1b9 0f00 	cmp.w	r9, #0
 800db08:	f8cd e03c 	str.w	lr, [sp, #60]	; 0x3c
 800db0c:	464e      	mov	r6, r9
 800db0e:	f340 8150 	ble.w	800ddb2 <_dtoa_r+0x9b2>
 800db12:	2100      	movs	r1, #0
 800db14:	2e17      	cmp	r6, #23
 800db16:	6461      	str	r1, [r4, #68]	; 0x44
 800db18:	d90a      	bls.n	800db30 <_dtoa_r+0x730>
 800db1a:	2201      	movs	r2, #1
 800db1c:	2304      	movs	r3, #4
 800db1e:	005b      	lsls	r3, r3, #1
 800db20:	f103 0014 	add.w	r0, r3, #20
 800db24:	42b0      	cmp	r0, r6
 800db26:	4611      	mov	r1, r2
 800db28:	f102 0201 	add.w	r2, r2, #1
 800db2c:	d9f7      	bls.n	800db1e <_dtoa_r+0x71e>
 800db2e:	6461      	str	r1, [r4, #68]	; 0x44
 800db30:	4620      	mov	r0, r4
 800db32:	f000 fbcf 	bl	800e2d4 <_Balloc>
 800db36:	2e0e      	cmp	r6, #14
 800db38:	9009      	str	r0, [sp, #36]	; 0x24
 800db3a:	6420      	str	r0, [r4, #64]	; 0x40
 800db3c:	f63f ad6c 	bhi.w	800d618 <_dtoa_r+0x218>
 800db40:	2d00      	cmp	r5, #0
 800db42:	f43f ad69 	beq.w	800d618 <_dtoa_r+0x218>
 800db46:	9d07      	ldr	r5, [sp, #28]
 800db48:	e9cd ab12 	strd	sl, fp, [sp, #72]	; 0x48
 800db4c:	2d00      	cmp	r5, #0
 800db4e:	f340 821c 	ble.w	800df8a <_dtoa_r+0xb8a>
 800db52:	4b51      	ldr	r3, [pc, #324]	; (800dc98 <_dtoa_r+0x898>)
 800db54:	f005 020f 	and.w	r2, r5, #15
 800db58:	eb03 03c2 	add.w	r3, r3, r2, lsl #3
 800db5c:	112d      	asrs	r5, r5, #4
 800db5e:	e9d3 6700 	ldrd	r6, r7, [r3]
 800db62:	06eb      	lsls	r3, r5, #27
 800db64:	f140 81cd 	bpl.w	800df02 <_dtoa_r+0xb02>
 800db68:	4b4c      	ldr	r3, [pc, #304]	; (800dc9c <_dtoa_r+0x89c>)
 800db6a:	4650      	mov	r0, sl
 800db6c:	4659      	mov	r1, fp
 800db6e:	e9d3 2308 	ldrd	r2, r3, [r3, #32]
 800db72:	f7f6 fe1b 	bl	80047ac <__aeabi_ddiv>
 800db76:	e9cd 0110 	strd	r0, r1, [sp, #64]	; 0x40
 800db7a:	f005 050f 	and.w	r5, r5, #15
 800db7e:	f04f 0803 	mov.w	r8, #3
 800db82:	b18d      	cbz	r5, 800dba8 <_dtoa_r+0x7a8>
 800db84:	f8df a114 	ldr.w	sl, [pc, #276]	; 800dc9c <_dtoa_r+0x89c>
 800db88:	4630      	mov	r0, r6
 800db8a:	4639      	mov	r1, r7
 800db8c:	07ee      	lsls	r6, r5, #31
 800db8e:	d505      	bpl.n	800db9c <_dtoa_r+0x79c>
 800db90:	e9da 2300 	ldrd	r2, r3, [sl]
 800db94:	f108 0801 	add.w	r8, r8, #1
 800db98:	f7f6 fcde 	bl	8004558 <__aeabi_dmul>
 800db9c:	106d      	asrs	r5, r5, #1
 800db9e:	f10a 0a08 	add.w	sl, sl, #8
 800dba2:	d1f3      	bne.n	800db8c <_dtoa_r+0x78c>
 800dba4:	4606      	mov	r6, r0
 800dba6:	460f      	mov	r7, r1
 800dba8:	e9dd 0110 	ldrd	r0, r1, [sp, #64]	; 0x40
 800dbac:	4632      	mov	r2, r6
 800dbae:	463b      	mov	r3, r7
 800dbb0:	f7f6 fdfc 	bl	80047ac <__aeabi_ddiv>
 800dbb4:	4682      	mov	sl, r0
 800dbb6:	468b      	mov	fp, r1
 800dbb8:	9d0e      	ldr	r5, [sp, #56]	; 0x38
 800dbba:	b145      	cbz	r5, 800dbce <_dtoa_r+0x7ce>
 800dbbc:	4650      	mov	r0, sl
 800dbbe:	4659      	mov	r1, fp
 800dbc0:	2200      	movs	r2, #0
 800dbc2:	4b37      	ldr	r3, [pc, #220]	; (800dca0 <_dtoa_r+0x8a0>)
 800dbc4:	f7f6 ff3a 	bl	8004a3c <__aeabi_dcmplt>
 800dbc8:	2800      	cmp	r0, #0
 800dbca:	f040 82aa 	bne.w	800e122 <_dtoa_r+0xd22>
 800dbce:	4640      	mov	r0, r8
 800dbd0:	f7f6 fc5c 	bl	800448c <__aeabi_i2d>
 800dbd4:	4652      	mov	r2, sl
 800dbd6:	465b      	mov	r3, fp
 800dbd8:	f7f6 fcbe 	bl	8004558 <__aeabi_dmul>
 800dbdc:	2200      	movs	r2, #0
 800dbde:	4b31      	ldr	r3, [pc, #196]	; (800dca4 <_dtoa_r+0x8a4>)
 800dbe0:	f7f6 fb08 	bl	80041f4 <__adddf3>
 800dbe4:	4606      	mov	r6, r0
 800dbe6:	f1a1 7750 	sub.w	r7, r1, #54525952	; 0x3400000
 800dbea:	f1b9 0f00 	cmp.w	r9, #0
 800dbee:	f000 815a 	beq.w	800dea6 <_dtoa_r+0xaa6>
 800dbf2:	9d07      	ldr	r5, [sp, #28]
 800dbf4:	46c8      	mov	r8, r9
 800dbf6:	9517      	str	r5, [sp, #92]	; 0x5c
 800dbf8:	9d0b      	ldr	r5, [sp, #44]	; 0x2c
 800dbfa:	2d00      	cmp	r5, #0
 800dbfc:	f000 8223 	beq.w	800e046 <_dtoa_r+0xc46>
 800dc00:	4b25      	ldr	r3, [pc, #148]	; (800dc98 <_dtoa_r+0x898>)
 800dc02:	2000      	movs	r0, #0
 800dc04:	eb03 03c8 	add.w	r3, r3, r8, lsl #3
 800dc08:	e953 2302 	ldrd	r2, r3, [r3, #-8]
 800dc0c:	4926      	ldr	r1, [pc, #152]	; (800dca8 <_dtoa_r+0x8a8>)
 800dc0e:	f7f6 fdcd 	bl	80047ac <__aeabi_ddiv>
 800dc12:	4632      	mov	r2, r6
 800dc14:	463b      	mov	r3, r7
 800dc16:	f7f6 faeb 	bl	80041f0 <__aeabi_dsub>
 800dc1a:	e9cd 0110 	strd	r0, r1, [sp, #64]	; 0x40
 800dc1e:	4659      	mov	r1, fp
 800dc20:	4650      	mov	r0, sl
 800dc22:	f7f6 ff33 	bl	8004a8c <__aeabi_d2iz>
 800dc26:	4605      	mov	r5, r0
 800dc28:	f7f6 fc30 	bl	800448c <__aeabi_i2d>
 800dc2c:	4602      	mov	r2, r0
 800dc2e:	460b      	mov	r3, r1
 800dc30:	4650      	mov	r0, sl
 800dc32:	4659      	mov	r1, fp
 800dc34:	f7f6 fadc 	bl	80041f0 <__aeabi_dsub>
 800dc38:	3530      	adds	r5, #48	; 0x30
 800dc3a:	9e09      	ldr	r6, [sp, #36]	; 0x24
 800dc3c:	e9cd 0104 	strd	r0, r1, [sp, #16]
 800dc40:	e9dd 2304 	ldrd	r2, r3, [sp, #16]
 800dc44:	e9dd 0110 	ldrd	r0, r1, [sp, #64]	; 0x40
 800dc48:	b2ed      	uxtb	r5, r5
 800dc4a:	7035      	strb	r5, [r6, #0]
 800dc4c:	f106 0b01 	add.w	fp, r6, #1
 800dc50:	f7f6 ff12 	bl	8004a78 <__aeabi_dcmpgt>
 800dc54:	2800      	cmp	r0, #0
 800dc56:	f040 82ab 	bne.w	800e1b0 <_dtoa_r+0xdb0>
 800dc5a:	e9dd 2304 	ldrd	r2, r3, [sp, #16]
 800dc5e:	2000      	movs	r0, #0
 800dc60:	490f      	ldr	r1, [pc, #60]	; (800dca0 <_dtoa_r+0x8a0>)
 800dc62:	f7f6 fac5 	bl	80041f0 <__aeabi_dsub>
 800dc66:	4602      	mov	r2, r0
 800dc68:	460b      	mov	r3, r1
 800dc6a:	e9dd 0110 	ldrd	r0, r1, [sp, #64]	; 0x40
 800dc6e:	f7f6 ff03 	bl	8004a78 <__aeabi_dcmpgt>
 800dc72:	2800      	cmp	r0, #0
 800dc74:	f040 82a2 	bne.w	800e1bc <_dtoa_r+0xdbc>
 800dc78:	f1b8 0f01 	cmp.w	r8, #1
 800dc7c:	f340 8181 	ble.w	800df82 <_dtoa_r+0xb82>
 800dc80:	44b0      	add	r8, r6
 800dc82:	f8cd 9050 	str.w	r9, [sp, #80]	; 0x50
 800dc86:	46a2      	mov	sl, r4
 800dc88:	46c1      	mov	r9, r8
 800dc8a:	e9dd 6704 	ldrd	r6, r7, [sp, #16]
 800dc8e:	e9dd 4510 	ldrd	r4, r5, [sp, #64]	; 0x40
 800dc92:	e019      	b.n	800dcc8 <_dtoa_r+0x8c8>
 800dc94:	fffffbee 	.word	0xfffffbee
 800dc98:	0800fb30 	.word	0x0800fb30
 800dc9c:	0800fbf8 	.word	0x0800fbf8
 800dca0:	3ff00000 	.word	0x3ff00000
 800dca4:	401c0000 	.word	0x401c0000
 800dca8:	3fe00000 	.word	0x3fe00000
 800dcac:	2000      	movs	r0, #0
 800dcae:	49a8      	ldr	r1, [pc, #672]	; (800df50 <_dtoa_r+0xb50>)
 800dcb0:	f7f6 fa9e 	bl	80041f0 <__aeabi_dsub>
 800dcb4:	4622      	mov	r2, r4
 800dcb6:	462b      	mov	r3, r5
 800dcb8:	f7f6 fec0 	bl	8004a3c <__aeabi_dcmplt>
 800dcbc:	2800      	cmp	r0, #0
 800dcbe:	f040 827b 	bne.w	800e1b8 <_dtoa_r+0xdb8>
 800dcc2:	45cb      	cmp	fp, r9
 800dcc4:	f000 815a 	beq.w	800df7c <_dtoa_r+0xb7c>
 800dcc8:	4620      	mov	r0, r4
 800dcca:	4629      	mov	r1, r5
 800dccc:	2200      	movs	r2, #0
 800dcce:	4ba1      	ldr	r3, [pc, #644]	; (800df54 <_dtoa_r+0xb54>)
 800dcd0:	f7f6 fc42 	bl	8004558 <__aeabi_dmul>
 800dcd4:	2200      	movs	r2, #0
 800dcd6:	4b9f      	ldr	r3, [pc, #636]	; (800df54 <_dtoa_r+0xb54>)
 800dcd8:	4604      	mov	r4, r0
 800dcda:	460d      	mov	r5, r1
 800dcdc:	4630      	mov	r0, r6
 800dcde:	4639      	mov	r1, r7
 800dce0:	f7f6 fc3a 	bl	8004558 <__aeabi_dmul>
 800dce4:	460f      	mov	r7, r1
 800dce6:	4606      	mov	r6, r0
 800dce8:	f7f6 fed0 	bl	8004a8c <__aeabi_d2iz>
 800dcec:	4680      	mov	r8, r0
 800dcee:	f7f6 fbcd 	bl	800448c <__aeabi_i2d>
 800dcf2:	4602      	mov	r2, r0
 800dcf4:	460b      	mov	r3, r1
 800dcf6:	4630      	mov	r0, r6
 800dcf8:	4639      	mov	r1, r7
 800dcfa:	f7f6 fa79 	bl	80041f0 <__aeabi_dsub>
 800dcfe:	f108 0830 	add.w	r8, r8, #48	; 0x30
 800dd02:	fa5f f888 	uxtb.w	r8, r8
 800dd06:	4622      	mov	r2, r4
 800dd08:	462b      	mov	r3, r5
 800dd0a:	f80b 8b01 	strb.w	r8, [fp], #1
 800dd0e:	4606      	mov	r6, r0
 800dd10:	460f      	mov	r7, r1
 800dd12:	f7f6 fe93 	bl	8004a3c <__aeabi_dcmplt>
 800dd16:	4632      	mov	r2, r6
 800dd18:	463b      	mov	r3, r7
 800dd1a:	2800      	cmp	r0, #0
 800dd1c:	d0c6      	beq.n	800dcac <_dtoa_r+0x8ac>
 800dd1e:	9e17      	ldr	r6, [sp, #92]	; 0x5c
 800dd20:	4654      	mov	r4, sl
 800dd22:	9607      	str	r6, [sp, #28]
 800dd24:	e539      	b.n	800d79a <_dtoa_r+0x39a>
 800dd26:	2600      	movs	r6, #0
 800dd28:	960b      	str	r6, [sp, #44]	; 0x2c
 800dd2a:	9825      	ldr	r0, [sp, #148]	; 0x94
 800dd2c:	2800      	cmp	r0, #0
 800dd2e:	dd3c      	ble.n	800ddaa <_dtoa_r+0x9aa>
 800dd30:	4606      	mov	r6, r0
 800dd32:	900f      	str	r0, [sp, #60]	; 0x3c
 800dd34:	4681      	mov	r9, r0
 800dd36:	e6ec      	b.n	800db12 <_dtoa_r+0x712>
 800dd38:	2601      	movs	r6, #1
 800dd3a:	960b      	str	r6, [sp, #44]	; 0x2c
 800dd3c:	e7f5      	b.n	800dd2a <_dtoa_r+0x92a>
 800dd3e:	f1b9 0f00 	cmp.w	r9, #0
 800dd42:	f73f ac7c 	bgt.w	800d63e <_dtoa_r+0x23e>
 800dd46:	f040 80c6 	bne.w	800ded6 <_dtoa_r+0xad6>
 800dd4a:	e9dd 0104 	ldrd	r0, r1, [sp, #16]
 800dd4e:	2200      	movs	r2, #0
 800dd50:	4b81      	ldr	r3, [pc, #516]	; (800df58 <_dtoa_r+0xb58>)
 800dd52:	f7f6 fc01 	bl	8004558 <__aeabi_dmul>
 800dd56:	4652      	mov	r2, sl
 800dd58:	465b      	mov	r3, fp
 800dd5a:	f7f6 fe83 	bl	8004a64 <__aeabi_dcmpge>
 800dd5e:	46c8      	mov	r8, r9
 800dd60:	464e      	mov	r6, r9
 800dd62:	2800      	cmp	r0, #0
 800dd64:	d07c      	beq.n	800de60 <_dtoa_r+0xa60>
 800dd66:	9d25      	ldr	r5, [sp, #148]	; 0x94
 800dd68:	f8dd b024 	ldr.w	fp, [sp, #36]	; 0x24
 800dd6c:	43ed      	mvns	r5, r5
 800dd6e:	9507      	str	r5, [sp, #28]
 800dd70:	4641      	mov	r1, r8
 800dd72:	4620      	mov	r0, r4
 800dd74:	f000 fad4 	bl	800e320 <_Bfree>
 800dd78:	2e00      	cmp	r6, #0
 800dd7a:	f47f ae06 	bne.w	800d98a <_dtoa_r+0x58a>
 800dd7e:	e50c      	b.n	800d79a <_dtoa_r+0x39a>
 800dd80:	990a      	ldr	r1, [sp, #40]	; 0x28
 800dd82:	4620      	mov	r0, r4
 800dd84:	f000 fc16 	bl	800e5b4 <__pow5mult>
 800dd88:	900a      	str	r0, [sp, #40]	; 0x28
 800dd8a:	e56a      	b.n	800d862 <_dtoa_r+0x462>
 800dd8c:	9d16      	ldr	r5, [sp, #88]	; 0x58
 800dd8e:	2d00      	cmp	r5, #0
 800dd90:	f000 81b8 	beq.w	800e104 <_dtoa_r+0xd04>
 800dd94:	f203 4333 	addw	r3, r3, #1075	; 0x433
 800dd98:	9f0c      	ldr	r7, [sp, #48]	; 0x30
 800dd9a:	9d08      	ldr	r5, [sp, #32]
 800dd9c:	e527      	b.n	800d7ee <_dtoa_r+0x3ee>
 800dd9e:	4601      	mov	r1, r0
 800dda0:	4620      	mov	r0, r4
 800dda2:	f000 fabd 	bl	800e320 <_Bfree>
 800dda6:	2201      	movs	r2, #1
 800dda8:	e67a      	b.n	800daa0 <_dtoa_r+0x6a0>
 800ddaa:	2601      	movs	r6, #1
 800ddac:	9625      	str	r6, [sp, #148]	; 0x94
 800ddae:	960f      	str	r6, [sp, #60]	; 0x3c
 800ddb0:	46b1      	mov	r9, r6
 800ddb2:	2100      	movs	r1, #0
 800ddb4:	6461      	str	r1, [r4, #68]	; 0x44
 800ddb6:	e6bb      	b.n	800db30 <_dtoa_r+0x730>
 800ddb8:	980a      	ldr	r0, [sp, #40]	; 0x28
 800ddba:	4641      	mov	r1, r8
 800ddbc:	f000 fca6 	bl	800e70c <__mcmp>
 800ddc0:	2800      	cmp	r0, #0
 800ddc2:	f6bf ad8f 	bge.w	800d8e4 <_dtoa_r+0x4e4>
 800ddc6:	f8dd e01c 	ldr.w	lr, [sp, #28]
 800ddca:	990a      	ldr	r1, [sp, #40]	; 0x28
 800ddcc:	f10e 3eff 	add.w	lr, lr, #4294967295
 800ddd0:	4620      	mov	r0, r4
 800ddd2:	220a      	movs	r2, #10
 800ddd4:	2300      	movs	r3, #0
 800ddd6:	f8cd e01c 	str.w	lr, [sp, #28]
 800ddda:	f000 faab 	bl	800e334 <__multadd>
 800ddde:	900a      	str	r0, [sp, #40]	; 0x28
 800dde0:	980b      	ldr	r0, [sp, #44]	; 0x2c
 800dde2:	2800      	cmp	r0, #0
 800dde4:	f040 8209 	bne.w	800e1fa <_dtoa_r+0xdfa>
 800dde8:	f8dd 903c 	ldr.w	r9, [sp, #60]	; 0x3c
 800ddec:	e57a      	b.n	800d8e4 <_dtoa_r+0x4e4>
 800ddee:	f8d8 3010 	ldr.w	r3, [r8, #16]
 800ddf2:	eb08 0383 	add.w	r3, r8, r3, lsl #2
 800ddf6:	6918      	ldr	r0, [r3, #16]
 800ddf8:	f000 fae6 	bl	800e3c8 <__hi0bits>
 800ddfc:	f1c0 0020 	rsb	r0, r0, #32
 800de00:	e547      	b.n	800d892 <_dtoa_r+0x492>
 800de02:	9809      	ldr	r0, [sp, #36]	; 0x24
 800de04:	f7ff bb2c 	b.w	800d460 <_dtoa_r+0x60>
 800de08:	f1ba 0f00 	cmp.w	sl, #0
 800de0c:	f47f ad3b 	bne.w	800d886 <_dtoa_r+0x486>
 800de10:	f3cb 0313 	ubfx	r3, fp, #0, #20
 800de14:	2b00      	cmp	r3, #0
 800de16:	f040 817c 	bne.w	800e112 <_dtoa_r+0xd12>
 800de1a:	f02b 4700 	bic.w	r7, fp, #2147483648	; 0x80000000
 800de1e:	0d3f      	lsrs	r7, r7, #20
 800de20:	053f      	lsls	r7, r7, #20
 800de22:	2f00      	cmp	r7, #0
 800de24:	f43f ad30 	beq.w	800d888 <_dtoa_r+0x488>
 800de28:	9a08      	ldr	r2, [sp, #32]
 800de2a:	9b06      	ldr	r3, [sp, #24]
 800de2c:	3201      	adds	r2, #1
 800de2e:	3301      	adds	r3, #1
 800de30:	9208      	str	r2, [sp, #32]
 800de32:	9306      	str	r3, [sp, #24]
 800de34:	2701      	movs	r7, #1
 800de36:	e527      	b.n	800d888 <_dtoa_r+0x488>
 800de38:	9924      	ldr	r1, [sp, #144]	; 0x90
 800de3a:	2902      	cmp	r1, #2
 800de3c:	f77f ad56 	ble.w	800d8ec <_dtoa_r+0x4ec>
 800de40:	f1b9 0f00 	cmp.w	r9, #0
 800de44:	d18f      	bne.n	800dd66 <_dtoa_r+0x966>
 800de46:	4641      	mov	r1, r8
 800de48:	464b      	mov	r3, r9
 800de4a:	2205      	movs	r2, #5
 800de4c:	4620      	mov	r0, r4
 800de4e:	f000 fa71 	bl	800e334 <__multadd>
 800de52:	4680      	mov	r8, r0
 800de54:	4641      	mov	r1, r8
 800de56:	980a      	ldr	r0, [sp, #40]	; 0x28
 800de58:	f000 fc58 	bl	800e70c <__mcmp>
 800de5c:	2800      	cmp	r0, #0
 800de5e:	dd82      	ble.n	800dd66 <_dtoa_r+0x966>
 800de60:	9d07      	ldr	r5, [sp, #28]
 800de62:	2331      	movs	r3, #49	; 0x31
 800de64:	3501      	adds	r5, #1
 800de66:	9507      	str	r5, [sp, #28]
 800de68:	9d09      	ldr	r5, [sp, #36]	; 0x24
 800de6a:	702b      	strb	r3, [r5, #0]
 800de6c:	f105 0b01 	add.w	fp, r5, #1
 800de70:	e77e      	b.n	800dd70 <_dtoa_r+0x970>
 800de72:	9807      	ldr	r0, [sp, #28]
 800de74:	9909      	ldr	r1, [sp, #36]	; 0x24
 800de76:	2331      	movs	r3, #49	; 0x31
 800de78:	3001      	adds	r0, #1
 800de7a:	9007      	str	r0, [sp, #28]
 800de7c:	700b      	strb	r3, [r1, #0]
 800de7e:	e576      	b.n	800d96e <_dtoa_r+0x56e>
 800de80:	46a3      	mov	fp, r4
 800de82:	9c03      	ldr	r4, [sp, #12]
 800de84:	e489      	b.n	800d79a <_dtoa_r+0x39a>
 800de86:	4640      	mov	r0, r8
 800de88:	f7f6 fb00 	bl	800448c <__aeabi_i2d>
 800de8c:	4602      	mov	r2, r0
 800de8e:	460b      	mov	r3, r1
 800de90:	4650      	mov	r0, sl
 800de92:	4659      	mov	r1, fp
 800de94:	f7f6 fb60 	bl	8004558 <__aeabi_dmul>
 800de98:	2200      	movs	r2, #0
 800de9a:	4b30      	ldr	r3, [pc, #192]	; (800df5c <_dtoa_r+0xb5c>)
 800de9c:	f7f6 f9aa 	bl	80041f4 <__adddf3>
 800dea0:	4606      	mov	r6, r0
 800dea2:	f1a1 7750 	sub.w	r7, r1, #54525952	; 0x3400000
 800dea6:	4650      	mov	r0, sl
 800dea8:	4659      	mov	r1, fp
 800deaa:	2200      	movs	r2, #0
 800deac:	4b2a      	ldr	r3, [pc, #168]	; (800df58 <_dtoa_r+0xb58>)
 800deae:	f7f6 f99f 	bl	80041f0 <__aeabi_dsub>
 800deb2:	4632      	mov	r2, r6
 800deb4:	463b      	mov	r3, r7
 800deb6:	4682      	mov	sl, r0
 800deb8:	468b      	mov	fp, r1
 800deba:	f7f6 fddd 	bl	8004a78 <__aeabi_dcmpgt>
 800debe:	2800      	cmp	r0, #0
 800dec0:	f040 80bd 	bne.w	800e03e <_dtoa_r+0xc3e>
 800dec4:	4632      	mov	r2, r6
 800dec6:	f107 4300 	add.w	r3, r7, #2147483648	; 0x80000000
 800deca:	4650      	mov	r0, sl
 800decc:	4659      	mov	r1, fp
 800dece:	f7f6 fdb5 	bl	8004a3c <__aeabi_dcmplt>
 800ded2:	2800      	cmp	r0, #0
 800ded4:	d055      	beq.n	800df82 <_dtoa_r+0xb82>
 800ded6:	f04f 0800 	mov.w	r8, #0
 800deda:	4646      	mov	r6, r8
 800dedc:	e743      	b.n	800dd66 <_dtoa_r+0x966>
 800dede:	990a      	ldr	r1, [sp, #40]	; 0x28
 800dee0:	9a0c      	ldr	r2, [sp, #48]	; 0x30
 800dee2:	4620      	mov	r0, r4
 800dee4:	f000 fb66 	bl	800e5b4 <__pow5mult>
 800dee8:	900a      	str	r0, [sp, #40]	; 0x28
 800deea:	e4ba      	b.n	800d862 <_dtoa_r+0x462>
 800deec:	2601      	movs	r6, #1
 800deee:	960b      	str	r6, [sp, #44]	; 0x2c
 800def0:	e602      	b.n	800daf8 <_dtoa_r+0x6f8>
 800def2:	9d0c      	ldr	r5, [sp, #48]	; 0x30
 800def4:	9e0d      	ldr	r6, [sp, #52]	; 0x34
 800def6:	1b7b      	subs	r3, r7, r5
 800def8:	441e      	add	r6, r3
 800defa:	970c      	str	r7, [sp, #48]	; 0x30
 800defc:	960d      	str	r6, [sp, #52]	; 0x34
 800defe:	2700      	movs	r7, #0
 800df00:	e46f      	b.n	800d7e2 <_dtoa_r+0x3e2>
 800df02:	e9dd 0112 	ldrd	r0, r1, [sp, #72]	; 0x48
 800df06:	f04f 0802 	mov.w	r8, #2
 800df0a:	e9cd 0110 	strd	r0, r1, [sp, #64]	; 0x40
 800df0e:	e638      	b.n	800db82 <_dtoa_r+0x782>
 800df10:	2a00      	cmp	r2, #0
 800df12:	f8cd 9028 	str.w	r9, [sp, #40]	; 0x28
 800df16:	46d9      	mov	r9, fp
 800df18:	dd11      	ble.n	800df3e <_dtoa_r+0xb3e>
 800df1a:	990a      	ldr	r1, [sp, #40]	; 0x28
 800df1c:	2201      	movs	r2, #1
 800df1e:	4620      	mov	r0, r4
 800df20:	f000 fb96 	bl	800e650 <__lshift>
 800df24:	4641      	mov	r1, r8
 800df26:	900a      	str	r0, [sp, #40]	; 0x28
 800df28:	f000 fbf0 	bl	800e70c <__mcmp>
 800df2c:	2800      	cmp	r0, #0
 800df2e:	f340 815d 	ble.w	800e1ec <_dtoa_r+0xdec>
 800df32:	f1ba 0f39 	cmp.w	sl, #57	; 0x39
 800df36:	f000 811b 	beq.w	800e170 <_dtoa_r+0xd70>
 800df3a:	f109 0a31 	add.w	sl, r9, #49	; 0x31
 800df3e:	9b06      	ldr	r3, [sp, #24]
 800df40:	4635      	mov	r5, r6
 800df42:	f883 a000 	strb.w	sl, [r3]
 800df46:	f103 0b01 	add.w	fp, r3, #1
 800df4a:	463e      	mov	r6, r7
 800df4c:	e50f      	b.n	800d96e <_dtoa_r+0x56e>
 800df4e:	bf00      	nop
 800df50:	3ff00000 	.word	0x3ff00000
 800df54:	40240000 	.word	0x40240000
 800df58:	40140000 	.word	0x40140000
 800df5c:	401c0000 	.word	0x401c0000
 800df60:	d103      	bne.n	800df6a <_dtoa_r+0xb6a>
 800df62:	f01a 0f01 	tst.w	sl, #1
 800df66:	f47f acf2 	bne.w	800d94e <_dtoa_r+0x54e>
 800df6a:	465b      	mov	r3, fp
 800df6c:	f813 2c01 	ldrb.w	r2, [r3, #-1]
 800df70:	469b      	mov	fp, r3
 800df72:	2a30      	cmp	r2, #48	; 0x30
 800df74:	f103 33ff 	add.w	r3, r3, #4294967295
 800df78:	d0f8      	beq.n	800df6c <_dtoa_r+0xb6c>
 800df7a:	e4f8      	b.n	800d96e <_dtoa_r+0x56e>
 800df7c:	f8dd 9050 	ldr.w	r9, [sp, #80]	; 0x50
 800df80:	4654      	mov	r4, sl
 800df82:	e9dd ab12 	ldrd	sl, fp, [sp, #72]	; 0x48
 800df86:	f7ff bb47 	b.w	800d618 <_dtoa_r+0x218>
 800df8a:	9e07      	ldr	r6, [sp, #28]
 800df8c:	4275      	negs	r5, r6
 800df8e:	2d00      	cmp	r5, #0
 800df90:	f000 80c2 	beq.w	800e118 <_dtoa_r+0xd18>
 800df94:	4ba3      	ldr	r3, [pc, #652]	; (800e224 <_dtoa_r+0xe24>)
 800df96:	f005 020f 	and.w	r2, r5, #15
 800df9a:	eb03 03c2 	add.w	r3, r3, r2, lsl #3
 800df9e:	e9d3 2300 	ldrd	r2, r3, [r3]
 800dfa2:	e9dd 0112 	ldrd	r0, r1, [sp, #72]	; 0x48
 800dfa6:	f7f6 fad7 	bl	8004558 <__aeabi_dmul>
 800dfaa:	112d      	asrs	r5, r5, #4
 800dfac:	4682      	mov	sl, r0
 800dfae:	468b      	mov	fp, r1
 800dfb0:	f000 812e 	beq.w	800e210 <_dtoa_r+0xe10>
 800dfb4:	4e9c      	ldr	r6, [pc, #624]	; (800e228 <_dtoa_r+0xe28>)
 800dfb6:	f04f 0802 	mov.w	r8, #2
 800dfba:	07ea      	lsls	r2, r5, #31
 800dfbc:	d505      	bpl.n	800dfca <_dtoa_r+0xbca>
 800dfbe:	e9d6 2300 	ldrd	r2, r3, [r6]
 800dfc2:	f108 0801 	add.w	r8, r8, #1
 800dfc6:	f7f6 fac7 	bl	8004558 <__aeabi_dmul>
 800dfca:	106d      	asrs	r5, r5, #1
 800dfcc:	f106 0608 	add.w	r6, r6, #8
 800dfd0:	d1f3      	bne.n	800dfba <_dtoa_r+0xbba>
 800dfd2:	4682      	mov	sl, r0
 800dfd4:	468b      	mov	fp, r1
 800dfd6:	e5ef      	b.n	800dbb8 <_dtoa_r+0x7b8>
 800dfd8:	9e07      	ldr	r6, [sp, #28]
 800dfda:	9d09      	ldr	r5, [sp, #36]	; 0x24
 800dfdc:	2230      	movs	r2, #48	; 0x30
 800dfde:	702a      	strb	r2, [r5, #0]
 800dfe0:	3601      	adds	r6, #1
 800dfe2:	2231      	movs	r2, #49	; 0x31
 800dfe4:	9607      	str	r6, [sp, #28]
 800dfe6:	701a      	strb	r2, [r3, #0]
 800dfe8:	f7ff bbd7 	b.w	800d79a <_dtoa_r+0x39a>
 800dfec:	6871      	ldr	r1, [r6, #4]
 800dfee:	4620      	mov	r0, r4
 800dff0:	f000 f970 	bl	800e2d4 <_Balloc>
 800dff4:	6933      	ldr	r3, [r6, #16]
 800dff6:	4605      	mov	r5, r0
 800dff8:	1c9a      	adds	r2, r3, #2
 800dffa:	0092      	lsls	r2, r2, #2
 800dffc:	f106 010c 	add.w	r1, r6, #12
 800e000:	300c      	adds	r0, #12
 800e002:	f7f7 f8b5 	bl	8005170 <memcpy>
 800e006:	4620      	mov	r0, r4
 800e008:	4629      	mov	r1, r5
 800e00a:	2201      	movs	r2, #1
 800e00c:	f000 fb20 	bl	800e650 <__lshift>
 800e010:	4607      	mov	r7, r0
 800e012:	e503      	b.n	800da1c <_dtoa_r+0x61c>
 800e014:	f1ba 0f39 	cmp.w	sl, #57	; 0x39
 800e018:	f8cd 9028 	str.w	r9, [sp, #40]	; 0x28
 800e01c:	f000 80a8 	beq.w	800e170 <_dtoa_r+0xd70>
 800e020:	9d06      	ldr	r5, [sp, #24]
 800e022:	f10a 0301 	add.w	r3, sl, #1
 800e026:	702b      	strb	r3, [r5, #0]
 800e028:	4635      	mov	r5, r6
 800e02a:	9e06      	ldr	r6, [sp, #24]
 800e02c:	f106 0b01 	add.w	fp, r6, #1
 800e030:	463e      	mov	r6, r7
 800e032:	e49c      	b.n	800d96e <_dtoa_r+0x56e>
 800e034:	4635      	mov	r5, r6
 800e036:	f8cd 9028 	str.w	r9, [sp, #40]	; 0x28
 800e03a:	463e      	mov	r6, r7
 800e03c:	e47b      	b.n	800d936 <_dtoa_r+0x536>
 800e03e:	f04f 0800 	mov.w	r8, #0
 800e042:	4646      	mov	r6, r8
 800e044:	e70c      	b.n	800de60 <_dtoa_r+0xa60>
 800e046:	4977      	ldr	r1, [pc, #476]	; (800e224 <_dtoa_r+0xe24>)
 800e048:	f108 35ff 	add.w	r5, r8, #4294967295
 800e04c:	eb01 01c5 	add.w	r1, r1, r5, lsl #3
 800e050:	4632      	mov	r2, r6
 800e052:	463b      	mov	r3, r7
 800e054:	e9d1 0100 	ldrd	r0, r1, [r1]
 800e058:	9510      	str	r5, [sp, #64]	; 0x40
 800e05a:	f7f6 fa7d 	bl	8004558 <__aeabi_dmul>
 800e05e:	e9cd 0114 	strd	r0, r1, [sp, #80]	; 0x50
 800e062:	4659      	mov	r1, fp
 800e064:	4650      	mov	r0, sl
 800e066:	f7f6 fd11 	bl	8004a8c <__aeabi_d2iz>
 800e06a:	4605      	mov	r5, r0
 800e06c:	f7f6 fa0e 	bl	800448c <__aeabi_i2d>
 800e070:	4602      	mov	r2, r0
 800e072:	460b      	mov	r3, r1
 800e074:	4650      	mov	r0, sl
 800e076:	4659      	mov	r1, fp
 800e078:	f7f6 f8ba 	bl	80041f0 <__aeabi_dsub>
 800e07c:	f8dd e024 	ldr.w	lr, [sp, #36]	; 0x24
 800e080:	3530      	adds	r5, #48	; 0x30
 800e082:	f1b8 0f01 	cmp.w	r8, #1
 800e086:	4606      	mov	r6, r0
 800e088:	460f      	mov	r7, r1
 800e08a:	f88e 5000 	strb.w	r5, [lr]
 800e08e:	f10e 0b01 	add.w	fp, lr, #1
 800e092:	d01e      	beq.n	800e0d2 <_dtoa_r+0xcd2>
 800e094:	9d09      	ldr	r5, [sp, #36]	; 0x24
 800e096:	1e6b      	subs	r3, r5, #1
 800e098:	eb03 0a08 	add.w	sl, r3, r8
 800e09c:	2200      	movs	r2, #0
 800e09e:	4b63      	ldr	r3, [pc, #396]	; (800e22c <_dtoa_r+0xe2c>)
 800e0a0:	f7f6 fa5a 	bl	8004558 <__aeabi_dmul>
 800e0a4:	460f      	mov	r7, r1
 800e0a6:	4606      	mov	r6, r0
 800e0a8:	f7f6 fcf0 	bl	8004a8c <__aeabi_d2iz>
 800e0ac:	4680      	mov	r8, r0
 800e0ae:	f7f6 f9ed 	bl	800448c <__aeabi_i2d>
 800e0b2:	f108 0830 	add.w	r8, r8, #48	; 0x30
 800e0b6:	4602      	mov	r2, r0
 800e0b8:	460b      	mov	r3, r1
 800e0ba:	4630      	mov	r0, r6
 800e0bc:	4639      	mov	r1, r7
 800e0be:	f7f6 f897 	bl	80041f0 <__aeabi_dsub>
 800e0c2:	f805 8f01 	strb.w	r8, [r5, #1]!
 800e0c6:	4555      	cmp	r5, sl
 800e0c8:	d1e8      	bne.n	800e09c <_dtoa_r+0xc9c>
 800e0ca:	9d10      	ldr	r5, [sp, #64]	; 0x40
 800e0cc:	4606      	mov	r6, r0
 800e0ce:	460f      	mov	r7, r1
 800e0d0:	44ab      	add	fp, r5
 800e0d2:	2200      	movs	r2, #0
 800e0d4:	4b56      	ldr	r3, [pc, #344]	; (800e230 <_dtoa_r+0xe30>)
 800e0d6:	e9dd 0114 	ldrd	r0, r1, [sp, #80]	; 0x50
 800e0da:	f7f6 f88b 	bl	80041f4 <__adddf3>
 800e0de:	4632      	mov	r2, r6
 800e0e0:	463b      	mov	r3, r7
 800e0e2:	f7f6 fcab 	bl	8004a3c <__aeabi_dcmplt>
 800e0e6:	2800      	cmp	r0, #0
 800e0e8:	d04d      	beq.n	800e186 <_dtoa_r+0xd86>
 800e0ea:	9e17      	ldr	r6, [sp, #92]	; 0x5c
 800e0ec:	9a09      	ldr	r2, [sp, #36]	; 0x24
 800e0ee:	9607      	str	r6, [sp, #28]
 800e0f0:	f81b 5c01 	ldrb.w	r5, [fp, #-1]
 800e0f4:	f7ff bb4a 	b.w	800d78c <_dtoa_r+0x38c>
 800e0f8:	9e08      	ldr	r6, [sp, #32]
 800e0fa:	2300      	movs	r3, #0
 800e0fc:	ebc9 0506 	rsb	r5, r9, r6
 800e100:	f7ff bb75 	b.w	800d7ee <_dtoa_r+0x3ee>
 800e104:	9b18      	ldr	r3, [sp, #96]	; 0x60
 800e106:	9f0c      	ldr	r7, [sp, #48]	; 0x30
 800e108:	f1c3 0336 	rsb	r3, r3, #54	; 0x36
 800e10c:	9d08      	ldr	r5, [sp, #32]
 800e10e:	f7ff bb6e 	b.w	800d7ee <_dtoa_r+0x3ee>
 800e112:	4657      	mov	r7, sl
 800e114:	f7ff bbb8 	b.w	800d888 <_dtoa_r+0x488>
 800e118:	e9dd ab12 	ldrd	sl, fp, [sp, #72]	; 0x48
 800e11c:	f04f 0802 	mov.w	r8, #2
 800e120:	e54a      	b.n	800dbb8 <_dtoa_r+0x7b8>
 800e122:	f1b9 0f00 	cmp.w	r9, #0
 800e126:	f43f aeae 	beq.w	800de86 <_dtoa_r+0xa86>
 800e12a:	9e0f      	ldr	r6, [sp, #60]	; 0x3c
 800e12c:	2e00      	cmp	r6, #0
 800e12e:	f77f af28 	ble.w	800df82 <_dtoa_r+0xb82>
 800e132:	2200      	movs	r2, #0
 800e134:	4b3d      	ldr	r3, [pc, #244]	; (800e22c <_dtoa_r+0xe2c>)
 800e136:	4650      	mov	r0, sl
 800e138:	4659      	mov	r1, fp
 800e13a:	f7f6 fa0d 	bl	8004558 <__aeabi_dmul>
 800e13e:	4682      	mov	sl, r0
 800e140:	f108 0001 	add.w	r0, r8, #1
 800e144:	468b      	mov	fp, r1
 800e146:	f7f6 f9a1 	bl	800448c <__aeabi_i2d>
 800e14a:	4602      	mov	r2, r0
 800e14c:	460b      	mov	r3, r1
 800e14e:	4650      	mov	r0, sl
 800e150:	4659      	mov	r1, fp
 800e152:	f7f6 fa01 	bl	8004558 <__aeabi_dmul>
 800e156:	2200      	movs	r2, #0
 800e158:	4b36      	ldr	r3, [pc, #216]	; (800e234 <_dtoa_r+0xe34>)
 800e15a:	f7f6 f84b 	bl	80041f4 <__adddf3>
 800e15e:	9d07      	ldr	r5, [sp, #28]
 800e160:	4606      	mov	r6, r0
 800e162:	3d01      	subs	r5, #1
 800e164:	f1a1 7750 	sub.w	r7, r1, #54525952	; 0x3400000
 800e168:	9517      	str	r5, [sp, #92]	; 0x5c
 800e16a:	f8dd 803c 	ldr.w	r8, [sp, #60]	; 0x3c
 800e16e:	e543      	b.n	800dbf8 <_dtoa_r+0x7f8>
 800e170:	4635      	mov	r5, r6
 800e172:	9b06      	ldr	r3, [sp, #24]
 800e174:	9e06      	ldr	r6, [sp, #24]
 800e176:	2239      	movs	r2, #57	; 0x39
 800e178:	7032      	strb	r2, [r6, #0]
 800e17a:	f103 0b01 	add.w	fp, r3, #1
 800e17e:	463e      	mov	r6, r7
 800e180:	9909      	ldr	r1, [sp, #36]	; 0x24
 800e182:	f7ff bbee 	b.w	800d962 <_dtoa_r+0x562>
 800e186:	e9dd 2314 	ldrd	r2, r3, [sp, #80]	; 0x50
 800e18a:	2000      	movs	r0, #0
 800e18c:	4928      	ldr	r1, [pc, #160]	; (800e230 <_dtoa_r+0xe30>)
 800e18e:	f7f6 f82f 	bl	80041f0 <__aeabi_dsub>
 800e192:	4632      	mov	r2, r6
 800e194:	463b      	mov	r3, r7
 800e196:	f7f6 fc6f 	bl	8004a78 <__aeabi_dcmpgt>
 800e19a:	2800      	cmp	r0, #0
 800e19c:	f43f aef1 	beq.w	800df82 <_dtoa_r+0xb82>
 800e1a0:	465b      	mov	r3, fp
 800e1a2:	f813 2c01 	ldrb.w	r2, [r3, #-1]
 800e1a6:	469b      	mov	fp, r3
 800e1a8:	2a30      	cmp	r2, #48	; 0x30
 800e1aa:	f103 33ff 	add.w	r3, r3, #4294967295
 800e1ae:	d0f8      	beq.n	800e1a2 <_dtoa_r+0xda2>
 800e1b0:	9d17      	ldr	r5, [sp, #92]	; 0x5c
 800e1b2:	9507      	str	r5, [sp, #28]
 800e1b4:	f7ff baf1 	b.w	800d79a <_dtoa_r+0x39a>
 800e1b8:	4645      	mov	r5, r8
 800e1ba:	4654      	mov	r4, sl
 800e1bc:	9e17      	ldr	r6, [sp, #92]	; 0x5c
 800e1be:	9a09      	ldr	r2, [sp, #36]	; 0x24
 800e1c0:	9607      	str	r6, [sp, #28]
 800e1c2:	f7ff bae3 	b.w	800d78c <_dtoa_r+0x38c>
 800e1c6:	f1ba 0f39 	cmp.w	sl, #57	; 0x39
 800e1ca:	f8cd 9028 	str.w	r9, [sp, #40]	; 0x28
 800e1ce:	d0cf      	beq.n	800e170 <_dtoa_r+0xd70>
 800e1d0:	9b03      	ldr	r3, [sp, #12]
 800e1d2:	4635      	mov	r5, r6
 800e1d4:	2b00      	cmp	r3, #0
 800e1d6:	9e06      	ldr	r6, [sp, #24]
 800e1d8:	bfc8      	it	gt
 800e1da:	f10b 0a31 	addgt.w	sl, fp, #49	; 0x31
 800e1de:	f886 a000 	strb.w	sl, [r6]
 800e1e2:	f106 0b01 	add.w	fp, r6, #1
 800e1e6:	463e      	mov	r6, r7
 800e1e8:	f7ff bbc1 	b.w	800d96e <_dtoa_r+0x56e>
 800e1ec:	f47f aea7 	bne.w	800df3e <_dtoa_r+0xb3e>
 800e1f0:	f01a 0f01 	tst.w	sl, #1
 800e1f4:	f43f aea3 	beq.w	800df3e <_dtoa_r+0xb3e>
 800e1f8:	e69b      	b.n	800df32 <_dtoa_r+0xb32>
 800e1fa:	4631      	mov	r1, r6
 800e1fc:	4620      	mov	r0, r4
 800e1fe:	220a      	movs	r2, #10
 800e200:	2300      	movs	r3, #0
 800e202:	f8dd 903c 	ldr.w	r9, [sp, #60]	; 0x3c
 800e206:	f000 f895 	bl	800e334 <__multadd>
 800e20a:	4606      	mov	r6, r0
 800e20c:	f7ff bb6a 	b.w	800d8e4 <_dtoa_r+0x4e4>
 800e210:	f04f 0802 	mov.w	r8, #2
 800e214:	e4d0      	b.n	800dbb8 <_dtoa_r+0x7b8>
 800e216:	f43f ab50 	beq.w	800d8ba <_dtoa_r+0x4ba>
 800e21a:	f1c3 033c 	rsb	r3, r3, #60	; 0x3c
 800e21e:	f7ff bbe0 	b.w	800d9e2 <_dtoa_r+0x5e2>
 800e222:	bf00      	nop
 800e224:	0800fb30 	.word	0x0800fb30
 800e228:	0800fbf8 	.word	0x0800fbf8
 800e22c:	40240000 	.word	0x40240000
 800e230:	3fe00000 	.word	0x3fe00000
 800e234:	401c0000 	.word	0x401c0000

0800e238 <_localeconv_r>:
 800e238:	4800      	ldr	r0, [pc, #0]	; (800e23c <_localeconv_r+0x4>)
 800e23a:	4770      	bx	lr
 800e23c:	2000097c 	.word	0x2000097c

0800e240 <memchr>:
 800e240:	0783      	lsls	r3, r0, #30
 800e242:	b470      	push	{r4, r5, r6}
 800e244:	b2c9      	uxtb	r1, r1
 800e246:	d040      	beq.n	800e2ca <memchr+0x8a>
 800e248:	1e54      	subs	r4, r2, #1
 800e24a:	b32a      	cbz	r2, 800e298 <memchr+0x58>
 800e24c:	7803      	ldrb	r3, [r0, #0]
 800e24e:	428b      	cmp	r3, r1
 800e250:	d023      	beq.n	800e29a <memchr+0x5a>
 800e252:	1c43      	adds	r3, r0, #1
 800e254:	e004      	b.n	800e260 <memchr+0x20>
 800e256:	b1fc      	cbz	r4, 800e298 <memchr+0x58>
 800e258:	7805      	ldrb	r5, [r0, #0]
 800e25a:	4614      	mov	r4, r2
 800e25c:	428d      	cmp	r5, r1
 800e25e:	d01c      	beq.n	800e29a <memchr+0x5a>
 800e260:	f013 0f03 	tst.w	r3, #3
 800e264:	4618      	mov	r0, r3
 800e266:	f104 32ff 	add.w	r2, r4, #4294967295
 800e26a:	f103 0301 	add.w	r3, r3, #1
 800e26e:	d1f2      	bne.n	800e256 <memchr+0x16>
 800e270:	2c03      	cmp	r4, #3
 800e272:	d814      	bhi.n	800e29e <memchr+0x5e>
 800e274:	1e65      	subs	r5, r4, #1
 800e276:	b354      	cbz	r4, 800e2ce <memchr+0x8e>
 800e278:	7803      	ldrb	r3, [r0, #0]
 800e27a:	428b      	cmp	r3, r1
 800e27c:	d00d      	beq.n	800e29a <memchr+0x5a>
 800e27e:	1c42      	adds	r2, r0, #1
 800e280:	2300      	movs	r3, #0
 800e282:	e002      	b.n	800e28a <memchr+0x4a>
 800e284:	7804      	ldrb	r4, [r0, #0]
 800e286:	428c      	cmp	r4, r1
 800e288:	d007      	beq.n	800e29a <memchr+0x5a>
 800e28a:	42ab      	cmp	r3, r5
 800e28c:	4610      	mov	r0, r2
 800e28e:	f103 0301 	add.w	r3, r3, #1
 800e292:	f102 0201 	add.w	r2, r2, #1
 800e296:	d1f5      	bne.n	800e284 <memchr+0x44>
 800e298:	2000      	movs	r0, #0
 800e29a:	bc70      	pop	{r4, r5, r6}
 800e29c:	4770      	bx	lr
 800e29e:	ea41 2601 	orr.w	r6, r1, r1, lsl #8
 800e2a2:	4603      	mov	r3, r0
 800e2a4:	ea46 4606 	orr.w	r6, r6, r6, lsl #16
 800e2a8:	681a      	ldr	r2, [r3, #0]
 800e2aa:	4618      	mov	r0, r3
 800e2ac:	4072      	eors	r2, r6
 800e2ae:	f1a2 3501 	sub.w	r5, r2, #16843009	; 0x1010101
 800e2b2:	ea25 0202 	bic.w	r2, r5, r2
 800e2b6:	f012 3f80 	tst.w	r2, #2155905152	; 0x80808080
 800e2ba:	f103 0304 	add.w	r3, r3, #4
 800e2be:	d1d9      	bne.n	800e274 <memchr+0x34>
 800e2c0:	3c04      	subs	r4, #4
 800e2c2:	2c03      	cmp	r4, #3
 800e2c4:	4618      	mov	r0, r3
 800e2c6:	d8ef      	bhi.n	800e2a8 <memchr+0x68>
 800e2c8:	e7d4      	b.n	800e274 <memchr+0x34>
 800e2ca:	4614      	mov	r4, r2
 800e2cc:	e7d0      	b.n	800e270 <memchr+0x30>
 800e2ce:	4620      	mov	r0, r4
 800e2d0:	e7e3      	b.n	800e29a <memchr+0x5a>
 800e2d2:	bf00      	nop

0800e2d4 <_Balloc>:
 800e2d4:	6cc2      	ldr	r2, [r0, #76]	; 0x4c
 800e2d6:	b570      	push	{r4, r5, r6, lr}
 800e2d8:	4605      	mov	r5, r0
 800e2da:	460c      	mov	r4, r1
 800e2dc:	b14a      	cbz	r2, 800e2f2 <_Balloc+0x1e>
 800e2de:	f852 0024 	ldr.w	r0, [r2, r4, lsl #2]
 800e2e2:	b180      	cbz	r0, 800e306 <_Balloc+0x32>
 800e2e4:	6801      	ldr	r1, [r0, #0]
 800e2e6:	f842 1024 	str.w	r1, [r2, r4, lsl #2]
 800e2ea:	2200      	movs	r2, #0
 800e2ec:	6102      	str	r2, [r0, #16]
 800e2ee:	60c2      	str	r2, [r0, #12]
 800e2f0:	bd70      	pop	{r4, r5, r6, pc}
 800e2f2:	2221      	movs	r2, #33	; 0x21
 800e2f4:	2104      	movs	r1, #4
 800e2f6:	f000 fb9f 	bl	800ea38 <_calloc_r>
 800e2fa:	64e8      	str	r0, [r5, #76]	; 0x4c
 800e2fc:	4602      	mov	r2, r0
 800e2fe:	2800      	cmp	r0, #0
 800e300:	d1ed      	bne.n	800e2de <_Balloc+0xa>
 800e302:	2000      	movs	r0, #0
 800e304:	bd70      	pop	{r4, r5, r6, pc}
 800e306:	2101      	movs	r1, #1
 800e308:	fa01 f604 	lsl.w	r6, r1, r4
 800e30c:	1d72      	adds	r2, r6, #5
 800e30e:	4628      	mov	r0, r5
 800e310:	0092      	lsls	r2, r2, #2
 800e312:	f000 fb91 	bl	800ea38 <_calloc_r>
 800e316:	2800      	cmp	r0, #0
 800e318:	d0f3      	beq.n	800e302 <_Balloc+0x2e>
 800e31a:	6044      	str	r4, [r0, #4]
 800e31c:	6086      	str	r6, [r0, #8]
 800e31e:	e7e4      	b.n	800e2ea <_Balloc+0x16>

0800e320 <_Bfree>:
 800e320:	b131      	cbz	r1, 800e330 <_Bfree+0x10>
 800e322:	6cc3      	ldr	r3, [r0, #76]	; 0x4c
 800e324:	684a      	ldr	r2, [r1, #4]
 800e326:	f853 0022 	ldr.w	r0, [r3, r2, lsl #2]
 800e32a:	6008      	str	r0, [r1, #0]
 800e32c:	f843 1022 	str.w	r1, [r3, r2, lsl #2]
 800e330:	4770      	bx	lr
 800e332:	bf00      	nop

0800e334 <__multadd>:
 800e334:	e92d 43f0 	stmdb	sp!, {r4, r5, r6, r7, r8, r9, lr}
 800e338:	690f      	ldr	r7, [r1, #16]
 800e33a:	b083      	sub	sp, #12
 800e33c:	4688      	mov	r8, r1
 800e33e:	4681      	mov	r9, r0
 800e340:	f101 0514 	add.w	r5, r1, #20
 800e344:	2400      	movs	r4, #0
 800e346:	682e      	ldr	r6, [r5, #0]
 800e348:	3401      	adds	r4, #1
 800e34a:	b2b1      	uxth	r1, r6
 800e34c:	0c36      	lsrs	r6, r6, #16
 800e34e:	fb02 3301 	mla	r3, r2, r1, r3
 800e352:	fb02 f606 	mul.w	r6, r2, r6
 800e356:	b299      	uxth	r1, r3
 800e358:	eb06 4313 	add.w	r3, r6, r3, lsr #16
 800e35c:	eb01 4103 	add.w	r1, r1, r3, lsl #16
 800e360:	42a7      	cmp	r7, r4
 800e362:	f845 1b04 	str.w	r1, [r5], #4
 800e366:	ea4f 4313 	mov.w	r3, r3, lsr #16
 800e36a:	dcec      	bgt.n	800e346 <__multadd+0x12>
 800e36c:	b14b      	cbz	r3, 800e382 <__multadd+0x4e>
 800e36e:	f8d8 2008 	ldr.w	r2, [r8, #8]
 800e372:	4297      	cmp	r7, r2
 800e374:	da09      	bge.n	800e38a <__multadd+0x56>
 800e376:	eb08 0287 	add.w	r2, r8, r7, lsl #2
 800e37a:	3701      	adds	r7, #1
 800e37c:	6153      	str	r3, [r2, #20]
 800e37e:	f8c8 7010 	str.w	r7, [r8, #16]
 800e382:	4640      	mov	r0, r8
 800e384:	b003      	add	sp, #12
 800e386:	e8bd 83f0 	ldmia.w	sp!, {r4, r5, r6, r7, r8, r9, pc}
 800e38a:	f8d8 1004 	ldr.w	r1, [r8, #4]
 800e38e:	4648      	mov	r0, r9
 800e390:	3101      	adds	r1, #1
 800e392:	9301      	str	r3, [sp, #4]
 800e394:	f7ff ff9e 	bl	800e2d4 <_Balloc>
 800e398:	f8d8 2010 	ldr.w	r2, [r8, #16]
 800e39c:	f108 010c 	add.w	r1, r8, #12
 800e3a0:	3202      	adds	r2, #2
 800e3a2:	4604      	mov	r4, r0
 800e3a4:	0092      	lsls	r2, r2, #2
 800e3a6:	300c      	adds	r0, #12
 800e3a8:	f7f6 fee2 	bl	8005170 <memcpy>
 800e3ac:	f8d9 204c 	ldr.w	r2, [r9, #76]	; 0x4c
 800e3b0:	f8d8 1004 	ldr.w	r1, [r8, #4]
 800e3b4:	9b01      	ldr	r3, [sp, #4]
 800e3b6:	f852 0021 	ldr.w	r0, [r2, r1, lsl #2]
 800e3ba:	f8c8 0000 	str.w	r0, [r8]
 800e3be:	f842 8021 	str.w	r8, [r2, r1, lsl #2]
 800e3c2:	46a0      	mov	r8, r4
 800e3c4:	e7d7      	b.n	800e376 <__multadd+0x42>
 800e3c6:	bf00      	nop

0800e3c8 <__hi0bits>:
 800e3c8:	0c03      	lsrs	r3, r0, #16
 800e3ca:	041b      	lsls	r3, r3, #16
 800e3cc:	b9b3      	cbnz	r3, 800e3fc <__hi0bits+0x34>
 800e3ce:	0400      	lsls	r0, r0, #16
 800e3d0:	2310      	movs	r3, #16
 800e3d2:	f010 4f7f 	tst.w	r0, #4278190080	; 0xff000000
 800e3d6:	bf04      	itt	eq
 800e3d8:	0200      	lsleq	r0, r0, #8
 800e3da:	3308      	addeq	r3, #8
 800e3dc:	f010 4f70 	tst.w	r0, #4026531840	; 0xf0000000
 800e3e0:	bf04      	itt	eq
 800e3e2:	0100      	lsleq	r0, r0, #4
 800e3e4:	3304      	addeq	r3, #4
 800e3e6:	f010 4f40 	tst.w	r0, #3221225472	; 0xc0000000
 800e3ea:	bf04      	itt	eq
 800e3ec:	0080      	lsleq	r0, r0, #2
 800e3ee:	3302      	addeq	r3, #2
 800e3f0:	2800      	cmp	r0, #0
 800e3f2:	db07      	blt.n	800e404 <__hi0bits+0x3c>
 800e3f4:	0042      	lsls	r2, r0, #1
 800e3f6:	d403      	bmi.n	800e400 <__hi0bits+0x38>
 800e3f8:	2020      	movs	r0, #32
 800e3fa:	4770      	bx	lr
 800e3fc:	2300      	movs	r3, #0
 800e3fe:	e7e8      	b.n	800e3d2 <__hi0bits+0xa>
 800e400:	1c58      	adds	r0, r3, #1
 800e402:	4770      	bx	lr
 800e404:	4618      	mov	r0, r3
 800e406:	4770      	bx	lr

0800e408 <__lo0bits>:
 800e408:	6803      	ldr	r3, [r0, #0]
 800e40a:	f013 0207 	ands.w	r2, r3, #7
 800e40e:	d007      	beq.n	800e420 <__lo0bits+0x18>
 800e410:	07d9      	lsls	r1, r3, #31
 800e412:	d420      	bmi.n	800e456 <__lo0bits+0x4e>
 800e414:	079a      	lsls	r2, r3, #30
 800e416:	d420      	bmi.n	800e45a <__lo0bits+0x52>
 800e418:	089b      	lsrs	r3, r3, #2
 800e41a:	6003      	str	r3, [r0, #0]
 800e41c:	2002      	movs	r0, #2
 800e41e:	4770      	bx	lr
 800e420:	b299      	uxth	r1, r3
 800e422:	b909      	cbnz	r1, 800e428 <__lo0bits+0x20>
 800e424:	0c1b      	lsrs	r3, r3, #16
 800e426:	2210      	movs	r2, #16
 800e428:	f013 0fff 	tst.w	r3, #255	; 0xff
 800e42c:	bf04      	itt	eq
 800e42e:	0a1b      	lsreq	r3, r3, #8
 800e430:	3208      	addeq	r2, #8
 800e432:	0719      	lsls	r1, r3, #28
 800e434:	bf04      	itt	eq
 800e436:	091b      	lsreq	r3, r3, #4
 800e438:	3204      	addeq	r2, #4
 800e43a:	0799      	lsls	r1, r3, #30
 800e43c:	bf04      	itt	eq
 800e43e:	089b      	lsreq	r3, r3, #2
 800e440:	3202      	addeq	r2, #2
 800e442:	07d9      	lsls	r1, r3, #31
 800e444:	d404      	bmi.n	800e450 <__lo0bits+0x48>
 800e446:	085b      	lsrs	r3, r3, #1
 800e448:	d101      	bne.n	800e44e <__lo0bits+0x46>
 800e44a:	2020      	movs	r0, #32
 800e44c:	4770      	bx	lr
 800e44e:	3201      	adds	r2, #1
 800e450:	6003      	str	r3, [r0, #0]
 800e452:	4610      	mov	r0, r2
 800e454:	4770      	bx	lr
 800e456:	2000      	movs	r0, #0
 800e458:	4770      	bx	lr
 800e45a:	085b      	lsrs	r3, r3, #1
 800e45c:	6003      	str	r3, [r0, #0]
 800e45e:	2001      	movs	r0, #1
 800e460:	4770      	bx	lr
 800e462:	bf00      	nop

0800e464 <__i2b>:
 800e464:	b510      	push	{r4, lr}
 800e466:	460c      	mov	r4, r1
 800e468:	2101      	movs	r1, #1
 800e46a:	f7ff ff33 	bl	800e2d4 <_Balloc>
 800e46e:	2201      	movs	r2, #1
 800e470:	6144      	str	r4, [r0, #20]
 800e472:	6102      	str	r2, [r0, #16]
 800e474:	bd10      	pop	{r4, pc}
 800e476:	bf00      	nop

0800e478 <__multiply>:
 800e478:	e92d 4ff0 	stmdb	sp!, {r4, r5, r6, r7, r8, r9, sl, fp, lr}
 800e47c:	690d      	ldr	r5, [r1, #16]
 800e47e:	f8d2 9010 	ldr.w	r9, [r2, #16]
 800e482:	b085      	sub	sp, #20
 800e484:	454d      	cmp	r5, r9
 800e486:	460c      	mov	r4, r1
 800e488:	4692      	mov	sl, r2
 800e48a:	da04      	bge.n	800e496 <__multiply+0x1e>
 800e48c:	462a      	mov	r2, r5
 800e48e:	4654      	mov	r4, sl
 800e490:	464d      	mov	r5, r9
 800e492:	468a      	mov	sl, r1
 800e494:	4691      	mov	r9, r2
 800e496:	68a3      	ldr	r3, [r4, #8]
 800e498:	eb05 0709 	add.w	r7, r5, r9
 800e49c:	6861      	ldr	r1, [r4, #4]
 800e49e:	429f      	cmp	r7, r3
 800e4a0:	bfc8      	it	gt
 800e4a2:	3101      	addgt	r1, #1
 800e4a4:	f7ff ff16 	bl	800e2d4 <_Balloc>
 800e4a8:	f100 0614 	add.w	r6, r0, #20
 800e4ac:	eb06 0887 	add.w	r8, r6, r7, lsl #2
 800e4b0:	4546      	cmp	r6, r8
 800e4b2:	9001      	str	r0, [sp, #4]
 800e4b4:	d205      	bcs.n	800e4c2 <__multiply+0x4a>
 800e4b6:	4633      	mov	r3, r6
 800e4b8:	2000      	movs	r0, #0
 800e4ba:	f843 0b04 	str.w	r0, [r3], #4
 800e4be:	4598      	cmp	r8, r3
 800e4c0:	d8fb      	bhi.n	800e4ba <__multiply+0x42>
 800e4c2:	f10a 0c14 	add.w	ip, sl, #20
 800e4c6:	eb0c 0989 	add.w	r9, ip, r9, lsl #2
 800e4ca:	3414      	adds	r4, #20
 800e4cc:	45cc      	cmp	ip, r9
 800e4ce:	9400      	str	r4, [sp, #0]
 800e4d0:	eb04 0585 	add.w	r5, r4, r5, lsl #2
 800e4d4:	d25b      	bcs.n	800e58e <__multiply+0x116>
 800e4d6:	f8cd 8008 	str.w	r8, [sp, #8]
 800e4da:	9703      	str	r7, [sp, #12]
 800e4dc:	46c8      	mov	r8, r9
 800e4de:	f85c 3b04 	ldr.w	r3, [ip], #4
 800e4e2:	b29c      	uxth	r4, r3
 800e4e4:	b324      	cbz	r4, 800e530 <__multiply+0xb8>
 800e4e6:	9a00      	ldr	r2, [sp, #0]
 800e4e8:	4633      	mov	r3, r6
 800e4ea:	f04f 0900 	mov.w	r9, #0
 800e4ee:	e000      	b.n	800e4f2 <__multiply+0x7a>
 800e4f0:	460b      	mov	r3, r1
 800e4f2:	f852 7b04 	ldr.w	r7, [r2], #4
 800e4f6:	6819      	ldr	r1, [r3, #0]
 800e4f8:	fa1f fb87 	uxth.w	fp, r7
 800e4fc:	fa1f fa81 	uxth.w	sl, r1
 800e500:	0c38      	lsrs	r0, r7, #16
 800e502:	0c09      	lsrs	r1, r1, #16
 800e504:	fb04 aa0b 	mla	sl, r4, fp, sl
 800e508:	fb04 1000 	mla	r0, r4, r0, r1
 800e50c:	44d1      	add	r9, sl
 800e50e:	eb00 4019 	add.w	r0, r0, r9, lsr #16
 800e512:	fa1f f989 	uxth.w	r9, r9
 800e516:	ea49 4700 	orr.w	r7, r9, r0, lsl #16
 800e51a:	4619      	mov	r1, r3
 800e51c:	4295      	cmp	r5, r2
 800e51e:	ea4f 4910 	mov.w	r9, r0, lsr #16
 800e522:	f841 7b04 	str.w	r7, [r1], #4
 800e526:	d8e3      	bhi.n	800e4f0 <__multiply+0x78>
 800e528:	f8c3 9004 	str.w	r9, [r3, #4]
 800e52c:	f85c 3c04 	ldr.w	r3, [ip, #-4]
 800e530:	ea5f 4913 	movs.w	r9, r3, lsr #16
 800e534:	d024      	beq.n	800e580 <__multiply+0x108>
 800e536:	f8d6 a000 	ldr.w	sl, [r6]
 800e53a:	9b00      	ldr	r3, [sp, #0]
 800e53c:	4650      	mov	r0, sl
 800e53e:	4631      	mov	r1, r6
 800e540:	f04f 0b00 	mov.w	fp, #0
 800e544:	e000      	b.n	800e548 <__multiply+0xd0>
 800e546:	4611      	mov	r1, r2
 800e548:	881a      	ldrh	r2, [r3, #0]
 800e54a:	0c00      	lsrs	r0, r0, #16
 800e54c:	fb09 0002 	mla	r0, r9, r2, r0
 800e550:	fa1f fa8a 	uxth.w	sl, sl
 800e554:	4483      	add	fp, r0
 800e556:	ea4a 400b 	orr.w	r0, sl, fp, lsl #16
 800e55a:	460a      	mov	r2, r1
 800e55c:	f842 0b04 	str.w	r0, [r2], #4
 800e560:	f853 7b04 	ldr.w	r7, [r3], #4
 800e564:	6848      	ldr	r0, [r1, #4]
 800e566:	ea4f 4a17 	mov.w	sl, r7, lsr #16
 800e56a:	b284      	uxth	r4, r0
 800e56c:	fb09 4a0a 	mla	sl, r9, sl, r4
 800e570:	429d      	cmp	r5, r3
 800e572:	eb0a 4a1b 	add.w	sl, sl, fp, lsr #16
 800e576:	ea4f 4b1a 	mov.w	fp, sl, lsr #16
 800e57a:	d8e4      	bhi.n	800e546 <__multiply+0xce>
 800e57c:	f8c1 a004 	str.w	sl, [r1, #4]
 800e580:	45e0      	cmp	r8, ip
 800e582:	f106 0604 	add.w	r6, r6, #4
 800e586:	d8aa      	bhi.n	800e4de <__multiply+0x66>
 800e588:	f8dd 8008 	ldr.w	r8, [sp, #8]
 800e58c:	9f03      	ldr	r7, [sp, #12]
 800e58e:	2f00      	cmp	r7, #0
 800e590:	dd0a      	ble.n	800e5a8 <__multiply+0x130>
 800e592:	f858 3c04 	ldr.w	r3, [r8, #-4]
 800e596:	f1a8 0804 	sub.w	r8, r8, #4
 800e59a:	b11b      	cbz	r3, 800e5a4 <__multiply+0x12c>
 800e59c:	e004      	b.n	800e5a8 <__multiply+0x130>
 800e59e:	f858 3d04 	ldr.w	r3, [r8, #-4]!
 800e5a2:	b90b      	cbnz	r3, 800e5a8 <__multiply+0x130>
 800e5a4:	3f01      	subs	r7, #1
 800e5a6:	d1fa      	bne.n	800e59e <__multiply+0x126>
 800e5a8:	9b01      	ldr	r3, [sp, #4]
 800e5aa:	4618      	mov	r0, r3
 800e5ac:	611f      	str	r7, [r3, #16]
 800e5ae:	b005      	add	sp, #20
 800e5b0:	e8bd 8ff0 	ldmia.w	sp!, {r4, r5, r6, r7, r8, r9, sl, fp, pc}

0800e5b4 <__pow5mult>:
 800e5b4:	f012 0303 	ands.w	r3, r2, #3
 800e5b8:	e92d 41f0 	stmdb	sp!, {r4, r5, r6, r7, r8, lr}
 800e5bc:	4614      	mov	r4, r2
 800e5be:	4607      	mov	r7, r0
 800e5c0:	460e      	mov	r6, r1
 800e5c2:	d12c      	bne.n	800e61e <__pow5mult+0x6a>
 800e5c4:	10a4      	asrs	r4, r4, #2
 800e5c6:	d01c      	beq.n	800e602 <__pow5mult+0x4e>
 800e5c8:	6cbd      	ldr	r5, [r7, #72]	; 0x48
 800e5ca:	2d00      	cmp	r5, #0
 800e5cc:	d030      	beq.n	800e630 <__pow5mult+0x7c>
 800e5ce:	f04f 0800 	mov.w	r8, #0
 800e5d2:	e004      	b.n	800e5de <__pow5mult+0x2a>
 800e5d4:	1064      	asrs	r4, r4, #1
 800e5d6:	d014      	beq.n	800e602 <__pow5mult+0x4e>
 800e5d8:	6828      	ldr	r0, [r5, #0]
 800e5da:	b1a8      	cbz	r0, 800e608 <__pow5mult+0x54>
 800e5dc:	4605      	mov	r5, r0
 800e5de:	07e3      	lsls	r3, r4, #31
 800e5e0:	d5f8      	bpl.n	800e5d4 <__pow5mult+0x20>
 800e5e2:	4638      	mov	r0, r7
 800e5e4:	4631      	mov	r1, r6
 800e5e6:	462a      	mov	r2, r5
 800e5e8:	f7ff ff46 	bl	800e478 <__multiply>
 800e5ec:	b1ae      	cbz	r6, 800e61a <__pow5mult+0x66>
 800e5ee:	6872      	ldr	r2, [r6, #4]
 800e5f0:	6cfb      	ldr	r3, [r7, #76]	; 0x4c
 800e5f2:	1064      	asrs	r4, r4, #1
 800e5f4:	f853 1022 	ldr.w	r1, [r3, r2, lsl #2]
 800e5f8:	6031      	str	r1, [r6, #0]
 800e5fa:	f843 6022 	str.w	r6, [r3, r2, lsl #2]
 800e5fe:	4606      	mov	r6, r0
 800e600:	d1ea      	bne.n	800e5d8 <__pow5mult+0x24>
 800e602:	4630      	mov	r0, r6
 800e604:	e8bd 81f0 	ldmia.w	sp!, {r4, r5, r6, r7, r8, pc}
 800e608:	4638      	mov	r0, r7
 800e60a:	4629      	mov	r1, r5
 800e60c:	462a      	mov	r2, r5
 800e60e:	f7ff ff33 	bl	800e478 <__multiply>
 800e612:	6028      	str	r0, [r5, #0]
 800e614:	f8c0 8000 	str.w	r8, [r0]
 800e618:	e7e0      	b.n	800e5dc <__pow5mult+0x28>
 800e61a:	4606      	mov	r6, r0
 800e61c:	e7da      	b.n	800e5d4 <__pow5mult+0x20>
 800e61e:	4a0b      	ldr	r2, [pc, #44]	; (800e64c <__pow5mult+0x98>)
 800e620:	3b01      	subs	r3, #1
 800e622:	f852 2023 	ldr.w	r2, [r2, r3, lsl #2]
 800e626:	2300      	movs	r3, #0
 800e628:	f7ff fe84 	bl	800e334 <__multadd>
 800e62c:	4606      	mov	r6, r0
 800e62e:	e7c9      	b.n	800e5c4 <__pow5mult+0x10>
 800e630:	2101      	movs	r1, #1
 800e632:	4638      	mov	r0, r7
 800e634:	f7ff fe4e 	bl	800e2d4 <_Balloc>
 800e638:	f240 2171 	movw	r1, #625	; 0x271
 800e63c:	2201      	movs	r2, #1
 800e63e:	2300      	movs	r3, #0
 800e640:	6141      	str	r1, [r0, #20]
 800e642:	6102      	str	r2, [r0, #16]
 800e644:	4605      	mov	r5, r0
 800e646:	64b8      	str	r0, [r7, #72]	; 0x48
 800e648:	6003      	str	r3, [r0, #0]
 800e64a:	e7c0      	b.n	800e5ce <__pow5mult+0x1a>
 800e64c:	0800fc20 	.word	0x0800fc20

0800e650 <__lshift>:
 800e650:	e92d 4ff8 	stmdb	sp!, {r3, r4, r5, r6, r7, r8, r9, sl, fp, lr}
 800e654:	690b      	ldr	r3, [r1, #16]
 800e656:	ea4f 1a62 	mov.w	sl, r2, asr #5
 800e65a:	eb0a 0903 	add.w	r9, sl, r3
 800e65e:	688b      	ldr	r3, [r1, #8]
 800e660:	f109 0601 	add.w	r6, r9, #1
 800e664:	429e      	cmp	r6, r3
 800e666:	460f      	mov	r7, r1
 800e668:	4693      	mov	fp, r2
 800e66a:	4680      	mov	r8, r0
 800e66c:	6849      	ldr	r1, [r1, #4]
 800e66e:	dd04      	ble.n	800e67a <__lshift+0x2a>
 800e670:	005b      	lsls	r3, r3, #1
 800e672:	429e      	cmp	r6, r3
 800e674:	f101 0101 	add.w	r1, r1, #1
 800e678:	dcfa      	bgt.n	800e670 <__lshift+0x20>
 800e67a:	4640      	mov	r0, r8
 800e67c:	f7ff fe2a 	bl	800e2d4 <_Balloc>
 800e680:	f1ba 0f00 	cmp.w	sl, #0
 800e684:	f100 0414 	add.w	r4, r0, #20
 800e688:	dd09      	ble.n	800e69e <__lshift+0x4e>
 800e68a:	2300      	movs	r3, #0
 800e68c:	461a      	mov	r2, r3
 800e68e:	4625      	mov	r5, r4
 800e690:	3301      	adds	r3, #1
 800e692:	4553      	cmp	r3, sl
 800e694:	f845 2b04 	str.w	r2, [r5], #4
 800e698:	d1fa      	bne.n	800e690 <__lshift+0x40>
 800e69a:	eb04 0483 	add.w	r4, r4, r3, lsl #2
 800e69e:	693a      	ldr	r2, [r7, #16]
 800e6a0:	f107 0314 	add.w	r3, r7, #20
 800e6a4:	f01b 0b1f 	ands.w	fp, fp, #31
 800e6a8:	eb03 0c82 	add.w	ip, r3, r2, lsl #2
 800e6ac:	d021      	beq.n	800e6f2 <__lshift+0xa2>
 800e6ae:	f1cb 0a20 	rsb	sl, fp, #32
 800e6b2:	2200      	movs	r2, #0
 800e6b4:	e000      	b.n	800e6b8 <__lshift+0x68>
 800e6b6:	462c      	mov	r4, r5
 800e6b8:	6819      	ldr	r1, [r3, #0]
 800e6ba:	4625      	mov	r5, r4
 800e6bc:	fa01 f10b 	lsl.w	r1, r1, fp
 800e6c0:	430a      	orrs	r2, r1
 800e6c2:	f845 2b04 	str.w	r2, [r5], #4
 800e6c6:	f853 2b04 	ldr.w	r2, [r3], #4
 800e6ca:	4563      	cmp	r3, ip
 800e6cc:	fa22 f20a 	lsr.w	r2, r2, sl
 800e6d0:	d3f1      	bcc.n	800e6b6 <__lshift+0x66>
 800e6d2:	6062      	str	r2, [r4, #4]
 800e6d4:	b10a      	cbz	r2, 800e6da <__lshift+0x8a>
 800e6d6:	f109 0602 	add.w	r6, r9, #2
 800e6da:	f8d8 304c 	ldr.w	r3, [r8, #76]	; 0x4c
 800e6de:	687a      	ldr	r2, [r7, #4]
 800e6e0:	3e01      	subs	r6, #1
 800e6e2:	f853 1022 	ldr.w	r1, [r3, r2, lsl #2]
 800e6e6:	6106      	str	r6, [r0, #16]
 800e6e8:	6039      	str	r1, [r7, #0]
 800e6ea:	f843 7022 	str.w	r7, [r3, r2, lsl #2]
 800e6ee:	e8bd 8ff8 	ldmia.w	sp!, {r3, r4, r5, r6, r7, r8, r9, sl, fp, pc}
 800e6f2:	f853 2b04 	ldr.w	r2, [r3], #4
 800e6f6:	459c      	cmp	ip, r3
 800e6f8:	f844 2b04 	str.w	r2, [r4], #4
 800e6fc:	d9ed      	bls.n	800e6da <__lshift+0x8a>
 800e6fe:	f853 2b04 	ldr.w	r2, [r3], #4
 800e702:	459c      	cmp	ip, r3
 800e704:	f844 2b04 	str.w	r2, [r4], #4
 800e708:	d8f3      	bhi.n	800e6f2 <__lshift+0xa2>
 800e70a:	e7e6      	b.n	800e6da <__lshift+0x8a>

0800e70c <__mcmp>:
 800e70c:	6902      	ldr	r2, [r0, #16]
 800e70e:	690b      	ldr	r3, [r1, #16]
 800e710:	b410      	push	{r4}
 800e712:	1ad2      	subs	r2, r2, r3
 800e714:	d115      	bne.n	800e742 <__mcmp+0x36>
 800e716:	009b      	lsls	r3, r3, #2
 800e718:	3014      	adds	r0, #20
 800e71a:	3114      	adds	r1, #20
 800e71c:	4419      	add	r1, r3
 800e71e:	4403      	add	r3, r0
 800e720:	e001      	b.n	800e726 <__mcmp+0x1a>
 800e722:	4298      	cmp	r0, r3
 800e724:	d211      	bcs.n	800e74a <__mcmp+0x3e>
 800e726:	f853 2d04 	ldr.w	r2, [r3, #-4]!
 800e72a:	f851 4d04 	ldr.w	r4, [r1, #-4]!
 800e72e:	42a2      	cmp	r2, r4
 800e730:	d0f7      	beq.n	800e722 <__mcmp+0x16>
 800e732:	4294      	cmp	r4, r2
 800e734:	bf94      	ite	ls
 800e736:	2001      	movls	r0, #1
 800e738:	f04f 30ff 	movhi.w	r0, #4294967295
 800e73c:	f85d 4b04 	ldr.w	r4, [sp], #4
 800e740:	4770      	bx	lr
 800e742:	4610      	mov	r0, r2
 800e744:	f85d 4b04 	ldr.w	r4, [sp], #4
 800e748:	4770      	bx	lr
 800e74a:	2000      	movs	r0, #0
 800e74c:	f85d 4b04 	ldr.w	r4, [sp], #4
 800e750:	4770      	bx	lr
 800e752:	bf00      	nop

0800e754 <__mdiff>:
 800e754:	e92d 47f0 	stmdb	sp!, {r4, r5, r6, r7, r8, r9, sl, lr}
 800e758:	460d      	mov	r5, r1
 800e75a:	4604      	mov	r4, r0
 800e75c:	4611      	mov	r1, r2
 800e75e:	4628      	mov	r0, r5
 800e760:	4616      	mov	r6, r2
 800e762:	f7ff ffd3 	bl	800e70c <__mcmp>
 800e766:	1e07      	subs	r7, r0, #0
 800e768:	d056      	beq.n	800e818 <__mdiff+0xc4>
 800e76a:	db4f      	blt.n	800e80c <__mdiff+0xb8>
 800e76c:	f04f 0900 	mov.w	r9, #0
 800e770:	6869      	ldr	r1, [r5, #4]
 800e772:	4620      	mov	r0, r4
 800e774:	f7ff fdae 	bl	800e2d4 <_Balloc>
 800e778:	692f      	ldr	r7, [r5, #16]
 800e77a:	6932      	ldr	r2, [r6, #16]
 800e77c:	3514      	adds	r5, #20
 800e77e:	3614      	adds	r6, #20
 800e780:	f8c0 900c 	str.w	r9, [r0, #12]
 800e784:	f100 0314 	add.w	r3, r0, #20
 800e788:	eb05 0c87 	add.w	ip, r5, r7, lsl #2
 800e78c:	eb06 0882 	add.w	r8, r6, r2, lsl #2
 800e790:	2100      	movs	r1, #0
 800e792:	f855 4b04 	ldr.w	r4, [r5], #4
 800e796:	f856 2b04 	ldr.w	r2, [r6], #4
 800e79a:	fa1f fa84 	uxth.w	sl, r4
 800e79e:	448a      	add	sl, r1
 800e7a0:	fa1f f982 	uxth.w	r9, r2
 800e7a4:	0c11      	lsrs	r1, r2, #16
 800e7a6:	ebc1 4114 	rsb	r1, r1, r4, lsr #16
 800e7aa:	ebc9 020a 	rsb	r2, r9, sl
 800e7ae:	eb01 4122 	add.w	r1, r1, r2, asr #16
 800e7b2:	b292      	uxth	r2, r2
 800e7b4:	ea42 4201 	orr.w	r2, r2, r1, lsl #16
 800e7b8:	45b0      	cmp	r8, r6
 800e7ba:	f843 2b04 	str.w	r2, [r3], #4
 800e7be:	ea4f 4121 	mov.w	r1, r1, asr #16
 800e7c2:	462c      	mov	r4, r5
 800e7c4:	d8e5      	bhi.n	800e792 <__mdiff+0x3e>
 800e7c6:	45ac      	cmp	ip, r5
 800e7c8:	4698      	mov	r8, r3
 800e7ca:	d915      	bls.n	800e7f8 <__mdiff+0xa4>
 800e7cc:	f854 6b04 	ldr.w	r6, [r4], #4
 800e7d0:	b2b2      	uxth	r2, r6
 800e7d2:	4411      	add	r1, r2
 800e7d4:	0c36      	lsrs	r6, r6, #16
 800e7d6:	eb06 4621 	add.w	r6, r6, r1, asr #16
 800e7da:	b289      	uxth	r1, r1
 800e7dc:	ea41 4206 	orr.w	r2, r1, r6, lsl #16
 800e7e0:	45a4      	cmp	ip, r4
 800e7e2:	f843 2b04 	str.w	r2, [r3], #4
 800e7e6:	ea4f 4126 	mov.w	r1, r6, asr #16
 800e7ea:	d8ef      	bhi.n	800e7cc <__mdiff+0x78>
 800e7ec:	43eb      	mvns	r3, r5
 800e7ee:	4463      	add	r3, ip
 800e7f0:	f023 0303 	bic.w	r3, r3, #3
 800e7f4:	3304      	adds	r3, #4
 800e7f6:	4443      	add	r3, r8
 800e7f8:	3b04      	subs	r3, #4
 800e7fa:	b922      	cbnz	r2, 800e806 <__mdiff+0xb2>
 800e7fc:	f853 2d04 	ldr.w	r2, [r3, #-4]!
 800e800:	3f01      	subs	r7, #1
 800e802:	2a00      	cmp	r2, #0
 800e804:	d0fa      	beq.n	800e7fc <__mdiff+0xa8>
 800e806:	6107      	str	r7, [r0, #16]
 800e808:	e8bd 87f0 	ldmia.w	sp!, {r4, r5, r6, r7, r8, r9, sl, pc}
 800e80c:	462b      	mov	r3, r5
 800e80e:	f04f 0901 	mov.w	r9, #1
 800e812:	4635      	mov	r5, r6
 800e814:	461e      	mov	r6, r3
 800e816:	e7ab      	b.n	800e770 <__mdiff+0x1c>
 800e818:	4620      	mov	r0, r4
 800e81a:	4639      	mov	r1, r7
 800e81c:	f7ff fd5a 	bl	800e2d4 <_Balloc>
 800e820:	2301      	movs	r3, #1
 800e822:	6147      	str	r7, [r0, #20]
 800e824:	6103      	str	r3, [r0, #16]
 800e826:	e8bd 87f0 	ldmia.w	sp!, {r4, r5, r6, r7, r8, r9, sl, pc}
 800e82a:	bf00      	nop

0800e82c <__d2b>:
 800e82c:	e92d 43f0 	stmdb	sp!, {r4, r5, r6, r7, r8, r9, lr}
 800e830:	2101      	movs	r1, #1
 800e832:	b083      	sub	sp, #12
 800e834:	461d      	mov	r5, r3
 800e836:	f3c3 560a 	ubfx	r6, r3, #20, #11
 800e83a:	4614      	mov	r4, r2
 800e83c:	9f0a      	ldr	r7, [sp, #40]	; 0x28
 800e83e:	f7ff fd49 	bl	800e2d4 <_Balloc>
 800e842:	f3c5 0313 	ubfx	r3, r5, #0, #20
 800e846:	4680      	mov	r8, r0
 800e848:	b10e      	cbz	r6, 800e84e <__d2b+0x22>
 800e84a:	f443 1380 	orr.w	r3, r3, #1048576	; 0x100000
 800e84e:	9301      	str	r3, [sp, #4]
 800e850:	b324      	cbz	r4, 800e89c <__d2b+0x70>
 800e852:	a802      	add	r0, sp, #8
 800e854:	f840 4d08 	str.w	r4, [r0, #-8]!
 800e858:	4668      	mov	r0, sp
 800e85a:	f7ff fdd5 	bl	800e408 <__lo0bits>
 800e85e:	2800      	cmp	r0, #0
 800e860:	d135      	bne.n	800e8ce <__d2b+0xa2>
 800e862:	e89d 000c 	ldmia.w	sp, {r2, r3}
 800e866:	f8c8 2014 	str.w	r2, [r8, #20]
 800e86a:	2b00      	cmp	r3, #0
 800e86c:	bf0c      	ite	eq
 800e86e:	2401      	moveq	r4, #1
 800e870:	2402      	movne	r4, #2
 800e872:	f8c8 3018 	str.w	r3, [r8, #24]
 800e876:	f8c8 4010 	str.w	r4, [r8, #16]
 800e87a:	b9de      	cbnz	r6, 800e8b4 <__d2b+0x88>
 800e87c:	eb08 0384 	add.w	r3, r8, r4, lsl #2
 800e880:	f2a0 4032 	subw	r0, r0, #1074	; 0x432
 800e884:	6038      	str	r0, [r7, #0]
 800e886:	6918      	ldr	r0, [r3, #16]
 800e888:	f7ff fd9e 	bl	800e3c8 <__hi0bits>
 800e88c:	9b0b      	ldr	r3, [sp, #44]	; 0x2c
 800e88e:	ebc0 1044 	rsb	r0, r0, r4, lsl #5
 800e892:	6018      	str	r0, [r3, #0]
 800e894:	4640      	mov	r0, r8
 800e896:	b003      	add	sp, #12
 800e898:	e8bd 83f0 	ldmia.w	sp!, {r4, r5, r6, r7, r8, r9, pc}
 800e89c:	a801      	add	r0, sp, #4
 800e89e:	f7ff fdb3 	bl	800e408 <__lo0bits>
 800e8a2:	9b01      	ldr	r3, [sp, #4]
 800e8a4:	2401      	movs	r4, #1
 800e8a6:	3020      	adds	r0, #32
 800e8a8:	f8c8 3014 	str.w	r3, [r8, #20]
 800e8ac:	f8c8 4010 	str.w	r4, [r8, #16]
 800e8b0:	2e00      	cmp	r6, #0
 800e8b2:	d0e3      	beq.n	800e87c <__d2b+0x50>
 800e8b4:	f2a6 4933 	subw	r9, r6, #1075	; 0x433
 800e8b8:	eb09 0300 	add.w	r3, r9, r0
 800e8bc:	603b      	str	r3, [r7, #0]
 800e8be:	9b0b      	ldr	r3, [sp, #44]	; 0x2c
 800e8c0:	f1c0 0035 	rsb	r0, r0, #53	; 0x35
 800e8c4:	6018      	str	r0, [r3, #0]
 800e8c6:	4640      	mov	r0, r8
 800e8c8:	b003      	add	sp, #12
 800e8ca:	e8bd 83f0 	ldmia.w	sp!, {r4, r5, r6, r7, r8, r9, pc}
 800e8ce:	9b01      	ldr	r3, [sp, #4]
 800e8d0:	f1c0 0120 	rsb	r1, r0, #32
 800e8d4:	fa03 f101 	lsl.w	r1, r3, r1
 800e8d8:	40c3      	lsrs	r3, r0
 800e8da:	9a00      	ldr	r2, [sp, #0]
 800e8dc:	9301      	str	r3, [sp, #4]
 800e8de:	430a      	orrs	r2, r1
 800e8e0:	f8c8 2014 	str.w	r2, [r8, #20]
 800e8e4:	e7c1      	b.n	800e86a <__d2b+0x3e>
 800e8e6:	bf00      	nop

0800e8e8 <__fpclassifyd>:
 800e8e8:	f031 4300 	bics.w	r3, r1, #2147483648	; 0x80000000
 800e8ec:	b410      	push	{r4}
 800e8ee:	d008      	beq.n	800e902 <__fpclassifyd+0x1a>
 800e8f0:	4a0f      	ldr	r2, [pc, #60]	; (800e930 <__fpclassifyd+0x48>)
 800e8f2:	f5a3 1480 	sub.w	r4, r3, #1048576	; 0x100000
 800e8f6:	4294      	cmp	r4, r2
 800e8f8:	d80a      	bhi.n	800e910 <__fpclassifyd+0x28>
 800e8fa:	2004      	movs	r0, #4
 800e8fc:	f85d 4b04 	ldr.w	r4, [sp], #4
 800e900:	4770      	bx	lr
 800e902:	2800      	cmp	r0, #0
 800e904:	bf0c      	ite	eq
 800e906:	2002      	moveq	r0, #2
 800e908:	2003      	movne	r0, #3
 800e90a:	f85d 4b04 	ldr.w	r4, [sp], #4
 800e90e:	4770      	bx	lr
 800e910:	f5b3 1f80 	cmp.w	r3, #1048576	; 0x100000
 800e914:	d201      	bcs.n	800e91a <__fpclassifyd+0x32>
 800e916:	2003      	movs	r0, #3
 800e918:	e7f7      	b.n	800e90a <__fpclassifyd+0x22>
 800e91a:	4a06      	ldr	r2, [pc, #24]	; (800e934 <__fpclassifyd+0x4c>)
 800e91c:	4293      	cmp	r3, r2
 800e91e:	d001      	beq.n	800e924 <__fpclassifyd+0x3c>
 800e920:	2000      	movs	r0, #0
 800e922:	e7f2      	b.n	800e90a <__fpclassifyd+0x22>
 800e924:	f1d0 0001 	rsbs	r0, r0, #1
 800e928:	bf38      	it	cc
 800e92a:	2000      	movcc	r0, #0
 800e92c:	e7ed      	b.n	800e90a <__fpclassifyd+0x22>
 800e92e:	bf00      	nop
 800e930:	7fdfffff 	.word	0x7fdfffff
 800e934:	7ff00000 	.word	0x7ff00000

0800e938 <__ssprint_r>:
 800e938:	e92d 4ff0 	stmdb	sp!, {r4, r5, r6, r7, r8, r9, sl, fp, lr}
 800e93c:	6894      	ldr	r4, [r2, #8]
 800e93e:	b083      	sub	sp, #12
 800e940:	4692      	mov	sl, r2
 800e942:	4680      	mov	r8, r0
 800e944:	460d      	mov	r5, r1
 800e946:	6816      	ldr	r6, [r2, #0]
 800e948:	2c00      	cmp	r4, #0
 800e94a:	d06f      	beq.n	800ea2c <__ssprint_r+0xf4>
 800e94c:	f04f 0b00 	mov.w	fp, #0
 800e950:	6808      	ldr	r0, [r1, #0]
 800e952:	688b      	ldr	r3, [r1, #8]
 800e954:	465c      	mov	r4, fp
 800e956:	2c00      	cmp	r4, #0
 800e958:	d043      	beq.n	800e9e2 <__ssprint_r+0xaa>
 800e95a:	429c      	cmp	r4, r3
 800e95c:	461f      	mov	r7, r3
 800e95e:	d345      	bcc.n	800e9ec <__ssprint_r+0xb4>
 800e960:	89ab      	ldrh	r3, [r5, #12]
 800e962:	f413 6f90 	tst.w	r3, #1152	; 0x480
 800e966:	d044      	beq.n	800e9f2 <__ssprint_r+0xba>
 800e968:	696f      	ldr	r7, [r5, #20]
 800e96a:	6929      	ldr	r1, [r5, #16]
 800e96c:	eb07 0747 	add.w	r7, r7, r7, lsl #1
 800e970:	eb07 77d7 	add.w	r7, r7, r7, lsr #31
 800e974:	ebc1 0900 	rsb	r9, r1, r0
 800e978:	1c62      	adds	r2, r4, #1
 800e97a:	107f      	asrs	r7, r7, #1
 800e97c:	444a      	add	r2, r9
 800e97e:	4297      	cmp	r7, r2
 800e980:	bf34      	ite	cc
 800e982:	4617      	movcc	r7, r2
 800e984:	463a      	movcs	r2, r7
 800e986:	055b      	lsls	r3, r3, #21
 800e988:	d535      	bpl.n	800e9f6 <__ssprint_r+0xbe>
 800e98a:	4611      	mov	r1, r2
 800e98c:	4640      	mov	r0, r8
 800e98e:	f7fc ff7b 	bl	800b888 <_malloc_r>
 800e992:	2800      	cmp	r0, #0
 800e994:	d039      	beq.n	800ea0a <__ssprint_r+0xd2>
 800e996:	6929      	ldr	r1, [r5, #16]
 800e998:	464a      	mov	r2, r9
 800e99a:	9001      	str	r0, [sp, #4]
 800e99c:	f7f6 fbe8 	bl	8005170 <memcpy>
 800e9a0:	89aa      	ldrh	r2, [r5, #12]
 800e9a2:	9b01      	ldr	r3, [sp, #4]
 800e9a4:	f422 6290 	bic.w	r2, r2, #1152	; 0x480
 800e9a8:	f042 0280 	orr.w	r2, r2, #128	; 0x80
 800e9ac:	81aa      	strh	r2, [r5, #12]
 800e9ae:	ebc9 0207 	rsb	r2, r9, r7
 800e9b2:	eb03 0009 	add.w	r0, r3, r9
 800e9b6:	616f      	str	r7, [r5, #20]
 800e9b8:	612b      	str	r3, [r5, #16]
 800e9ba:	6028      	str	r0, [r5, #0]
 800e9bc:	60aa      	str	r2, [r5, #8]
 800e9be:	4627      	mov	r7, r4
 800e9c0:	46a1      	mov	r9, r4
 800e9c2:	464a      	mov	r2, r9
 800e9c4:	4659      	mov	r1, fp
 800e9c6:	f000 f867 	bl	800ea98 <memmove>
 800e9ca:	f8da 2008 	ldr.w	r2, [sl, #8]
 800e9ce:	68ab      	ldr	r3, [r5, #8]
 800e9d0:	6828      	ldr	r0, [r5, #0]
 800e9d2:	1bdb      	subs	r3, r3, r7
 800e9d4:	4448      	add	r0, r9
 800e9d6:	1b14      	subs	r4, r2, r4
 800e9d8:	60ab      	str	r3, [r5, #8]
 800e9da:	6028      	str	r0, [r5, #0]
 800e9dc:	f8ca 4008 	str.w	r4, [sl, #8]
 800e9e0:	b324      	cbz	r4, 800ea2c <__ssprint_r+0xf4>
 800e9e2:	f8d6 b000 	ldr.w	fp, [r6]
 800e9e6:	6874      	ldr	r4, [r6, #4]
 800e9e8:	3608      	adds	r6, #8
 800e9ea:	e7b4      	b.n	800e956 <__ssprint_r+0x1e>
 800e9ec:	4627      	mov	r7, r4
 800e9ee:	46a1      	mov	r9, r4
 800e9f0:	e7e7      	b.n	800e9c2 <__ssprint_r+0x8a>
 800e9f2:	46b9      	mov	r9, r7
 800e9f4:	e7e5      	b.n	800e9c2 <__ssprint_r+0x8a>
 800e9f6:	4640      	mov	r0, r8
 800e9f8:	f000 f8fe 	bl	800ebf8 <_realloc_r>
 800e9fc:	4603      	mov	r3, r0
 800e9fe:	2800      	cmp	r0, #0
 800ea00:	d1d5      	bne.n	800e9ae <__ssprint_r+0x76>
 800ea02:	4640      	mov	r0, r8
 800ea04:	6929      	ldr	r1, [r5, #16]
 800ea06:	f7fc fe73 	bl	800b6f0 <_free_r>
 800ea0a:	89aa      	ldrh	r2, [r5, #12]
 800ea0c:	230c      	movs	r3, #12
 800ea0e:	f8c8 3000 	str.w	r3, [r8]
 800ea12:	f042 0240 	orr.w	r2, r2, #64	; 0x40
 800ea16:	2300      	movs	r3, #0
 800ea18:	f04f 30ff 	mov.w	r0, #4294967295
 800ea1c:	81aa      	strh	r2, [r5, #12]
 800ea1e:	f8ca 3008 	str.w	r3, [sl, #8]
 800ea22:	f8ca 3004 	str.w	r3, [sl, #4]
 800ea26:	b003      	add	sp, #12
 800ea28:	e8bd 8ff0 	ldmia.w	sp!, {r4, r5, r6, r7, r8, r9, sl, fp, pc}
 800ea2c:	4620      	mov	r0, r4
 800ea2e:	f8ca 4004 	str.w	r4, [sl, #4]
 800ea32:	b003      	add	sp, #12
 800ea34:	e8bd 8ff0 	ldmia.w	sp!, {r4, r5, r6, r7, r8, r9, sl, fp, pc}

0800ea38 <_calloc_r>:
 800ea38:	b510      	push	{r4, lr}
 800ea3a:	fb02 f101 	mul.w	r1, r2, r1
 800ea3e:	f7fc ff23 	bl	800b888 <_malloc_r>
 800ea42:	4604      	mov	r4, r0
 800ea44:	b168      	cbz	r0, 800ea62 <_calloc_r+0x2a>
 800ea46:	f850 2c04 	ldr.w	r2, [r0, #-4]
 800ea4a:	f022 0203 	bic.w	r2, r2, #3
 800ea4e:	3a04      	subs	r2, #4
 800ea50:	2a24      	cmp	r2, #36	; 0x24
 800ea52:	d818      	bhi.n	800ea86 <_calloc_r+0x4e>
 800ea54:	2a13      	cmp	r2, #19
 800ea56:	d806      	bhi.n	800ea66 <_calloc_r+0x2e>
 800ea58:	4603      	mov	r3, r0
 800ea5a:	2200      	movs	r2, #0
 800ea5c:	601a      	str	r2, [r3, #0]
 800ea5e:	605a      	str	r2, [r3, #4]
 800ea60:	609a      	str	r2, [r3, #8]
 800ea62:	4620      	mov	r0, r4
 800ea64:	bd10      	pop	{r4, pc}
 800ea66:	2300      	movs	r3, #0
 800ea68:	2a1b      	cmp	r2, #27
 800ea6a:	6003      	str	r3, [r0, #0]
 800ea6c:	6043      	str	r3, [r0, #4]
 800ea6e:	d90f      	bls.n	800ea90 <_calloc_r+0x58>
 800ea70:	2a24      	cmp	r2, #36	; 0x24
 800ea72:	6083      	str	r3, [r0, #8]
 800ea74:	60c3      	str	r3, [r0, #12]
 800ea76:	bf05      	ittet	eq
 800ea78:	6103      	streq	r3, [r0, #16]
 800ea7a:	6143      	streq	r3, [r0, #20]
 800ea7c:	f100 0310 	addne.w	r3, r0, #16
 800ea80:	f100 0318 	addeq.w	r3, r0, #24
 800ea84:	e7e9      	b.n	800ea5a <_calloc_r+0x22>
 800ea86:	2100      	movs	r1, #0
 800ea88:	f000 f86c 	bl	800eb64 <memset>
 800ea8c:	4620      	mov	r0, r4
 800ea8e:	bd10      	pop	{r4, pc}
 800ea90:	f100 0308 	add.w	r3, r0, #8
 800ea94:	e7e1      	b.n	800ea5a <_calloc_r+0x22>
 800ea96:	bf00      	nop

0800ea98 <memmove>:
 800ea98:	4288      	cmp	r0, r1
 800ea9a:	b4f0      	push	{r4, r5, r6, r7}
 800ea9c:	d910      	bls.n	800eac0 <memmove+0x28>
 800ea9e:	188c      	adds	r4, r1, r2
 800eaa0:	42a0      	cmp	r0, r4
 800eaa2:	d20d      	bcs.n	800eac0 <memmove+0x28>
 800eaa4:	1885      	adds	r5, r0, r2
 800eaa6:	1e53      	subs	r3, r2, #1
 800eaa8:	b142      	cbz	r2, 800eabc <memmove+0x24>
 800eaaa:	4621      	mov	r1, r4
 800eaac:	462a      	mov	r2, r5
 800eaae:	f811 4d01 	ldrb.w	r4, [r1, #-1]!
 800eab2:	3b01      	subs	r3, #1
 800eab4:	f802 4d01 	strb.w	r4, [r2, #-1]!
 800eab8:	1c5c      	adds	r4, r3, #1
 800eaba:	d1f8      	bne.n	800eaae <memmove+0x16>
 800eabc:	bcf0      	pop	{r4, r5, r6, r7}
 800eabe:	4770      	bx	lr
 800eac0:	2a0f      	cmp	r2, #15
 800eac2:	d944      	bls.n	800eb4e <memmove+0xb6>
 800eac4:	ea40 0301 	orr.w	r3, r0, r1
 800eac8:	079b      	lsls	r3, r3, #30
 800eaca:	d144      	bne.n	800eb56 <memmove+0xbe>
 800eacc:	f1a2 0710 	sub.w	r7, r2, #16
 800ead0:	093f      	lsrs	r7, r7, #4
 800ead2:	eb00 1607 	add.w	r6, r0, r7, lsl #4
 800ead6:	3610      	adds	r6, #16
 800ead8:	460c      	mov	r4, r1
 800eada:	4603      	mov	r3, r0
 800eadc:	6825      	ldr	r5, [r4, #0]
 800eade:	3310      	adds	r3, #16
 800eae0:	f843 5c10 	str.w	r5, [r3, #-16]
 800eae4:	6865      	ldr	r5, [r4, #4]
 800eae6:	3410      	adds	r4, #16
 800eae8:	f843 5c0c 	str.w	r5, [r3, #-12]
 800eaec:	f854 5c08 	ldr.w	r5, [r4, #-8]
 800eaf0:	f843 5c08 	str.w	r5, [r3, #-8]
 800eaf4:	f854 5c04 	ldr.w	r5, [r4, #-4]
 800eaf8:	f843 5c04 	str.w	r5, [r3, #-4]
 800eafc:	42b3      	cmp	r3, r6
 800eafe:	d1ed      	bne.n	800eadc <memmove+0x44>
 800eb00:	1c7b      	adds	r3, r7, #1
 800eb02:	f002 0c0f 	and.w	ip, r2, #15
 800eb06:	011b      	lsls	r3, r3, #4
 800eb08:	f1bc 0f03 	cmp.w	ip, #3
 800eb0c:	4419      	add	r1, r3
 800eb0e:	4403      	add	r3, r0
 800eb10:	d923      	bls.n	800eb5a <memmove+0xc2>
 800eb12:	460e      	mov	r6, r1
 800eb14:	461d      	mov	r5, r3
 800eb16:	4664      	mov	r4, ip
 800eb18:	f856 7b04 	ldr.w	r7, [r6], #4
 800eb1c:	3c04      	subs	r4, #4
 800eb1e:	2c03      	cmp	r4, #3
 800eb20:	f845 7b04 	str.w	r7, [r5], #4
 800eb24:	d8f8      	bhi.n	800eb18 <memmove+0x80>
 800eb26:	f1ac 0404 	sub.w	r4, ip, #4
 800eb2a:	f024 0403 	bic.w	r4, r4, #3
 800eb2e:	3404      	adds	r4, #4
 800eb30:	f002 0203 	and.w	r2, r2, #3
 800eb34:	4423      	add	r3, r4
 800eb36:	4421      	add	r1, r4
 800eb38:	2a00      	cmp	r2, #0
 800eb3a:	d0bf      	beq.n	800eabc <memmove+0x24>
 800eb3c:	441a      	add	r2, r3
 800eb3e:	f811 4b01 	ldrb.w	r4, [r1], #1
 800eb42:	f803 4b01 	strb.w	r4, [r3], #1
 800eb46:	4293      	cmp	r3, r2
 800eb48:	d1f9      	bne.n	800eb3e <memmove+0xa6>
 800eb4a:	bcf0      	pop	{r4, r5, r6, r7}
 800eb4c:	4770      	bx	lr
 800eb4e:	4603      	mov	r3, r0
 800eb50:	2a00      	cmp	r2, #0
 800eb52:	d1f3      	bne.n	800eb3c <memmove+0xa4>
 800eb54:	e7b2      	b.n	800eabc <memmove+0x24>
 800eb56:	4603      	mov	r3, r0
 800eb58:	e7f0      	b.n	800eb3c <memmove+0xa4>
 800eb5a:	4662      	mov	r2, ip
 800eb5c:	2a00      	cmp	r2, #0
 800eb5e:	d1ed      	bne.n	800eb3c <memmove+0xa4>
 800eb60:	e7ac      	b.n	800eabc <memmove+0x24>
 800eb62:	bf00      	nop

0800eb64 <memset>:
 800eb64:	b4f0      	push	{r4, r5, r6, r7}
 800eb66:	0784      	lsls	r4, r0, #30
 800eb68:	d043      	beq.n	800ebf2 <memset+0x8e>
 800eb6a:	1e54      	subs	r4, r2, #1
 800eb6c:	2a00      	cmp	r2, #0
 800eb6e:	d03e      	beq.n	800ebee <memset+0x8a>
 800eb70:	b2cd      	uxtb	r5, r1
 800eb72:	4603      	mov	r3, r0
 800eb74:	e003      	b.n	800eb7e <memset+0x1a>
 800eb76:	1e62      	subs	r2, r4, #1
 800eb78:	2c00      	cmp	r4, #0
 800eb7a:	d038      	beq.n	800ebee <memset+0x8a>
 800eb7c:	4614      	mov	r4, r2
 800eb7e:	f803 5b01 	strb.w	r5, [r3], #1
 800eb82:	079a      	lsls	r2, r3, #30
 800eb84:	d1f7      	bne.n	800eb76 <memset+0x12>
 800eb86:	2c03      	cmp	r4, #3
 800eb88:	d92a      	bls.n	800ebe0 <memset+0x7c>
 800eb8a:	b2cd      	uxtb	r5, r1
 800eb8c:	ea45 2505 	orr.w	r5, r5, r5, lsl #8
 800eb90:	2c0f      	cmp	r4, #15
 800eb92:	ea45 4505 	orr.w	r5, r5, r5, lsl #16
 800eb96:	d915      	bls.n	800ebc4 <memset+0x60>
 800eb98:	f1a4 0710 	sub.w	r7, r4, #16
 800eb9c:	093f      	lsrs	r7, r7, #4
 800eb9e:	f103 0610 	add.w	r6, r3, #16
 800eba2:	eb06 1607 	add.w	r6, r6, r7, lsl #4
 800eba6:	461a      	mov	r2, r3
 800eba8:	6015      	str	r5, [r2, #0]
 800ebaa:	6055      	str	r5, [r2, #4]
 800ebac:	6095      	str	r5, [r2, #8]
 800ebae:	60d5      	str	r5, [r2, #12]
 800ebb0:	3210      	adds	r2, #16
 800ebb2:	42b2      	cmp	r2, r6
 800ebb4:	d1f8      	bne.n	800eba8 <memset+0x44>
 800ebb6:	f004 040f 	and.w	r4, r4, #15
 800ebba:	3701      	adds	r7, #1
 800ebbc:	2c03      	cmp	r4, #3
 800ebbe:	eb03 1307 	add.w	r3, r3, r7, lsl #4
 800ebc2:	d90d      	bls.n	800ebe0 <memset+0x7c>
 800ebc4:	461e      	mov	r6, r3
 800ebc6:	4622      	mov	r2, r4
 800ebc8:	3a04      	subs	r2, #4
 800ebca:	2a03      	cmp	r2, #3
 800ebcc:	f846 5b04 	str.w	r5, [r6], #4
 800ebd0:	d8fa      	bhi.n	800ebc8 <memset+0x64>
 800ebd2:	1f22      	subs	r2, r4, #4
 800ebd4:	f022 0203 	bic.w	r2, r2, #3
 800ebd8:	3204      	adds	r2, #4
 800ebda:	4413      	add	r3, r2
 800ebdc:	f004 0403 	and.w	r4, r4, #3
 800ebe0:	b12c      	cbz	r4, 800ebee <memset+0x8a>
 800ebe2:	b2c9      	uxtb	r1, r1
 800ebe4:	441c      	add	r4, r3
 800ebe6:	f803 1b01 	strb.w	r1, [r3], #1
 800ebea:	42a3      	cmp	r3, r4
 800ebec:	d1fb      	bne.n	800ebe6 <memset+0x82>
 800ebee:	bcf0      	pop	{r4, r5, r6, r7}
 800ebf0:	4770      	bx	lr
 800ebf2:	4614      	mov	r4, r2
 800ebf4:	4603      	mov	r3, r0
 800ebf6:	e7c6      	b.n	800eb86 <memset+0x22>

0800ebf8 <_realloc_r>:
 800ebf8:	e92d 4ff0 	stmdb	sp!, {r4, r5, r6, r7, r8, r9, sl, fp, lr}
 800ebfc:	460c      	mov	r4, r1
 800ebfe:	b083      	sub	sp, #12
 800ec00:	4690      	mov	r8, r2
 800ec02:	4681      	mov	r9, r0
 800ec04:	2900      	cmp	r1, #0
 800ec06:	f000 80ba 	beq.w	800ed7e <_realloc_r+0x186>
 800ec0a:	f7fd f8d9 	bl	800bdc0 <__malloc_lock>
 800ec0e:	f108 060b 	add.w	r6, r8, #11
 800ec12:	f854 3c04 	ldr.w	r3, [r4, #-4]
 800ec16:	2e16      	cmp	r6, #22
 800ec18:	f023 0503 	bic.w	r5, r3, #3
 800ec1c:	f1a4 0708 	sub.w	r7, r4, #8
 800ec20:	d84b      	bhi.n	800ecba <_realloc_r+0xc2>
 800ec22:	2110      	movs	r1, #16
 800ec24:	460e      	mov	r6, r1
 800ec26:	45b0      	cmp	r8, r6
 800ec28:	d84c      	bhi.n	800ecc4 <_realloc_r+0xcc>
 800ec2a:	428d      	cmp	r5, r1
 800ec2c:	da51      	bge.n	800ecd2 <_realloc_r+0xda>
 800ec2e:	f8df b384 	ldr.w	fp, [pc, #900]	; 800efb4 <_realloc_r+0x3bc>
 800ec32:	1978      	adds	r0, r7, r5
 800ec34:	f8db e008 	ldr.w	lr, [fp, #8]
 800ec38:	4586      	cmp	lr, r0
 800ec3a:	f000 80a6 	beq.w	800ed8a <_realloc_r+0x192>
 800ec3e:	6842      	ldr	r2, [r0, #4]
 800ec40:	f022 0c01 	bic.w	ip, r2, #1
 800ec44:	4484      	add	ip, r0
 800ec46:	f8dc c004 	ldr.w	ip, [ip, #4]
 800ec4a:	f01c 0f01 	tst.w	ip, #1
 800ec4e:	d054      	beq.n	800ecfa <_realloc_r+0x102>
 800ec50:	2200      	movs	r2, #0
 800ec52:	4610      	mov	r0, r2
 800ec54:	07db      	lsls	r3, r3, #31
 800ec56:	d46f      	bmi.n	800ed38 <_realloc_r+0x140>
 800ec58:	f854 3c08 	ldr.w	r3, [r4, #-8]
 800ec5c:	ebc3 0a07 	rsb	sl, r3, r7
 800ec60:	f8da 3004 	ldr.w	r3, [sl, #4]
 800ec64:	f023 0303 	bic.w	r3, r3, #3
 800ec68:	442b      	add	r3, r5
 800ec6a:	2800      	cmp	r0, #0
 800ec6c:	d062      	beq.n	800ed34 <_realloc_r+0x13c>
 800ec6e:	4570      	cmp	r0, lr
 800ec70:	f000 80e9 	beq.w	800ee46 <_realloc_r+0x24e>
 800ec74:	eb02 0e03 	add.w	lr, r2, r3
 800ec78:	458e      	cmp	lr, r1
 800ec7a:	db5b      	blt.n	800ed34 <_realloc_r+0x13c>
 800ec7c:	68c3      	ldr	r3, [r0, #12]
 800ec7e:	6882      	ldr	r2, [r0, #8]
 800ec80:	46d0      	mov	r8, sl
 800ec82:	60d3      	str	r3, [r2, #12]
 800ec84:	609a      	str	r2, [r3, #8]
 800ec86:	f858 1f08 	ldr.w	r1, [r8, #8]!
 800ec8a:	f8da 300c 	ldr.w	r3, [sl, #12]
 800ec8e:	1f2a      	subs	r2, r5, #4
 800ec90:	2a24      	cmp	r2, #36	; 0x24
 800ec92:	60cb      	str	r3, [r1, #12]
 800ec94:	6099      	str	r1, [r3, #8]
 800ec96:	f200 8123 	bhi.w	800eee0 <_realloc_r+0x2e8>
 800ec9a:	2a13      	cmp	r2, #19
 800ec9c:	f240 80b0 	bls.w	800ee00 <_realloc_r+0x208>
 800eca0:	6823      	ldr	r3, [r4, #0]
 800eca2:	2a1b      	cmp	r2, #27
 800eca4:	f8ca 3008 	str.w	r3, [sl, #8]
 800eca8:	6863      	ldr	r3, [r4, #4]
 800ecaa:	f8ca 300c 	str.w	r3, [sl, #12]
 800ecae:	f200 812b 	bhi.w	800ef08 <_realloc_r+0x310>
 800ecb2:	3408      	adds	r4, #8
 800ecb4:	f10a 0310 	add.w	r3, sl, #16
 800ecb8:	e0a3      	b.n	800ee02 <_realloc_r+0x20a>
 800ecba:	f026 0607 	bic.w	r6, r6, #7
 800ecbe:	2e00      	cmp	r6, #0
 800ecc0:	4631      	mov	r1, r6
 800ecc2:	dab0      	bge.n	800ec26 <_realloc_r+0x2e>
 800ecc4:	230c      	movs	r3, #12
 800ecc6:	2000      	movs	r0, #0
 800ecc8:	f8c9 3000 	str.w	r3, [r9]
 800eccc:	b003      	add	sp, #12
 800ecce:	e8bd 8ff0 	ldmia.w	sp!, {r4, r5, r6, r7, r8, r9, sl, fp, pc}
 800ecd2:	46a0      	mov	r8, r4
 800ecd4:	1baa      	subs	r2, r5, r6
 800ecd6:	2a0f      	cmp	r2, #15
 800ecd8:	f003 0301 	and.w	r3, r3, #1
 800ecdc:	d81a      	bhi.n	800ed14 <_realloc_r+0x11c>
 800ecde:	432b      	orrs	r3, r5
 800ece0:	607b      	str	r3, [r7, #4]
 800ece2:	443d      	add	r5, r7
 800ece4:	686b      	ldr	r3, [r5, #4]
 800ece6:	f043 0301 	orr.w	r3, r3, #1
 800ecea:	606b      	str	r3, [r5, #4]
 800ecec:	4648      	mov	r0, r9
 800ecee:	f7fd f869 	bl	800bdc4 <__malloc_unlock>
 800ecf2:	4640      	mov	r0, r8
 800ecf4:	b003      	add	sp, #12
 800ecf6:	e8bd 8ff0 	ldmia.w	sp!, {r4, r5, r6, r7, r8, r9, sl, fp, pc}
 800ecfa:	f022 0203 	bic.w	r2, r2, #3
 800ecfe:	eb02 0c05 	add.w	ip, r2, r5
 800ed02:	458c      	cmp	ip, r1
 800ed04:	dba6      	blt.n	800ec54 <_realloc_r+0x5c>
 800ed06:	68c2      	ldr	r2, [r0, #12]
 800ed08:	6881      	ldr	r1, [r0, #8]
 800ed0a:	46a0      	mov	r8, r4
 800ed0c:	60ca      	str	r2, [r1, #12]
 800ed0e:	4665      	mov	r5, ip
 800ed10:	6091      	str	r1, [r2, #8]
 800ed12:	e7df      	b.n	800ecd4 <_realloc_r+0xdc>
 800ed14:	19b9      	adds	r1, r7, r6
 800ed16:	4333      	orrs	r3, r6
 800ed18:	f042 0001 	orr.w	r0, r2, #1
 800ed1c:	607b      	str	r3, [r7, #4]
 800ed1e:	440a      	add	r2, r1
 800ed20:	6048      	str	r0, [r1, #4]
 800ed22:	6853      	ldr	r3, [r2, #4]
 800ed24:	3108      	adds	r1, #8
 800ed26:	f043 0301 	orr.w	r3, r3, #1
 800ed2a:	6053      	str	r3, [r2, #4]
 800ed2c:	4648      	mov	r0, r9
 800ed2e:	f7fc fcdf 	bl	800b6f0 <_free_r>
 800ed32:	e7db      	b.n	800ecec <_realloc_r+0xf4>
 800ed34:	428b      	cmp	r3, r1
 800ed36:	da33      	bge.n	800eda0 <_realloc_r+0x1a8>
 800ed38:	4641      	mov	r1, r8
 800ed3a:	4648      	mov	r0, r9
 800ed3c:	f7fc fda4 	bl	800b888 <_malloc_r>
 800ed40:	4680      	mov	r8, r0
 800ed42:	2800      	cmp	r0, #0
 800ed44:	d0d2      	beq.n	800ecec <_realloc_r+0xf4>
 800ed46:	f854 3c04 	ldr.w	r3, [r4, #-4]
 800ed4a:	f1a0 0108 	sub.w	r1, r0, #8
 800ed4e:	f023 0201 	bic.w	r2, r3, #1
 800ed52:	443a      	add	r2, r7
 800ed54:	4291      	cmp	r1, r2
 800ed56:	f000 80bc 	beq.w	800eed2 <_realloc_r+0x2da>
 800ed5a:	1f2a      	subs	r2, r5, #4
 800ed5c:	2a24      	cmp	r2, #36	; 0x24
 800ed5e:	d86e      	bhi.n	800ee3e <_realloc_r+0x246>
 800ed60:	2a13      	cmp	r2, #19
 800ed62:	d842      	bhi.n	800edea <_realloc_r+0x1f2>
 800ed64:	4603      	mov	r3, r0
 800ed66:	4622      	mov	r2, r4
 800ed68:	6811      	ldr	r1, [r2, #0]
 800ed6a:	6019      	str	r1, [r3, #0]
 800ed6c:	6851      	ldr	r1, [r2, #4]
 800ed6e:	6059      	str	r1, [r3, #4]
 800ed70:	6892      	ldr	r2, [r2, #8]
 800ed72:	609a      	str	r2, [r3, #8]
 800ed74:	4621      	mov	r1, r4
 800ed76:	4648      	mov	r0, r9
 800ed78:	f7fc fcba 	bl	800b6f0 <_free_r>
 800ed7c:	e7b6      	b.n	800ecec <_realloc_r+0xf4>
 800ed7e:	4611      	mov	r1, r2
 800ed80:	b003      	add	sp, #12
 800ed82:	e8bd 4ff0 	ldmia.w	sp!, {r4, r5, r6, r7, r8, r9, sl, fp, lr}
 800ed86:	f7fc bd7f 	b.w	800b888 <_malloc_r>
 800ed8a:	f8de 2004 	ldr.w	r2, [lr, #4]
 800ed8e:	f106 0c10 	add.w	ip, r6, #16
 800ed92:	f022 0203 	bic.w	r2, r2, #3
 800ed96:	1950      	adds	r0, r2, r5
 800ed98:	4560      	cmp	r0, ip
 800ed9a:	da3d      	bge.n	800ee18 <_realloc_r+0x220>
 800ed9c:	4670      	mov	r0, lr
 800ed9e:	e759      	b.n	800ec54 <_realloc_r+0x5c>
 800eda0:	46d0      	mov	r8, sl
 800eda2:	f858 0f08 	ldr.w	r0, [r8, #8]!
 800eda6:	f8da 100c 	ldr.w	r1, [sl, #12]
 800edaa:	1f2a      	subs	r2, r5, #4
 800edac:	2a24      	cmp	r2, #36	; 0x24
 800edae:	60c1      	str	r1, [r0, #12]
 800edb0:	6088      	str	r0, [r1, #8]
 800edb2:	f200 80a0 	bhi.w	800eef6 <_realloc_r+0x2fe>
 800edb6:	2a13      	cmp	r2, #19
 800edb8:	f240 809b 	bls.w	800eef2 <_realloc_r+0x2fa>
 800edbc:	6821      	ldr	r1, [r4, #0]
 800edbe:	2a1b      	cmp	r2, #27
 800edc0:	f8ca 1008 	str.w	r1, [sl, #8]
 800edc4:	6861      	ldr	r1, [r4, #4]
 800edc6:	f8ca 100c 	str.w	r1, [sl, #12]
 800edca:	f200 80b2 	bhi.w	800ef32 <_realloc_r+0x33a>
 800edce:	3408      	adds	r4, #8
 800edd0:	f10a 0210 	add.w	r2, sl, #16
 800edd4:	6821      	ldr	r1, [r4, #0]
 800edd6:	461d      	mov	r5, r3
 800edd8:	6011      	str	r1, [r2, #0]
 800edda:	6861      	ldr	r1, [r4, #4]
 800eddc:	4657      	mov	r7, sl
 800edde:	6051      	str	r1, [r2, #4]
 800ede0:	68a3      	ldr	r3, [r4, #8]
 800ede2:	6093      	str	r3, [r2, #8]
 800ede4:	f8da 3004 	ldr.w	r3, [sl, #4]
 800ede8:	e774      	b.n	800ecd4 <_realloc_r+0xdc>
 800edea:	6823      	ldr	r3, [r4, #0]
 800edec:	2a1b      	cmp	r2, #27
 800edee:	6003      	str	r3, [r0, #0]
 800edf0:	6863      	ldr	r3, [r4, #4]
 800edf2:	6043      	str	r3, [r0, #4]
 800edf4:	d862      	bhi.n	800eebc <_realloc_r+0x2c4>
 800edf6:	f100 0308 	add.w	r3, r0, #8
 800edfa:	f104 0208 	add.w	r2, r4, #8
 800edfe:	e7b3      	b.n	800ed68 <_realloc_r+0x170>
 800ee00:	4643      	mov	r3, r8
 800ee02:	6822      	ldr	r2, [r4, #0]
 800ee04:	4675      	mov	r5, lr
 800ee06:	601a      	str	r2, [r3, #0]
 800ee08:	6862      	ldr	r2, [r4, #4]
 800ee0a:	4657      	mov	r7, sl
 800ee0c:	605a      	str	r2, [r3, #4]
 800ee0e:	68a2      	ldr	r2, [r4, #8]
 800ee10:	609a      	str	r2, [r3, #8]
 800ee12:	f8da 3004 	ldr.w	r3, [sl, #4]
 800ee16:	e75d      	b.n	800ecd4 <_realloc_r+0xdc>
 800ee18:	1b83      	subs	r3, r0, r6
 800ee1a:	4437      	add	r7, r6
 800ee1c:	f043 0301 	orr.w	r3, r3, #1
 800ee20:	f8cb 7008 	str.w	r7, [fp, #8]
 800ee24:	607b      	str	r3, [r7, #4]
 800ee26:	f854 3c04 	ldr.w	r3, [r4, #-4]
 800ee2a:	4648      	mov	r0, r9
 800ee2c:	f003 0301 	and.w	r3, r3, #1
 800ee30:	431e      	orrs	r6, r3
 800ee32:	f844 6c04 	str.w	r6, [r4, #-4]
 800ee36:	f7fc ffc5 	bl	800bdc4 <__malloc_unlock>
 800ee3a:	4620      	mov	r0, r4
 800ee3c:	e75a      	b.n	800ecf4 <_realloc_r+0xfc>
 800ee3e:	4621      	mov	r1, r4
 800ee40:	f7ff fe2a 	bl	800ea98 <memmove>
 800ee44:	e796      	b.n	800ed74 <_realloc_r+0x17c>
 800ee46:	eb02 0c03 	add.w	ip, r2, r3
 800ee4a:	f106 0210 	add.w	r2, r6, #16
 800ee4e:	4594      	cmp	ip, r2
 800ee50:	f6ff af70 	blt.w	800ed34 <_realloc_r+0x13c>
 800ee54:	4657      	mov	r7, sl
 800ee56:	f857 1f08 	ldr.w	r1, [r7, #8]!
 800ee5a:	f8da 300c 	ldr.w	r3, [sl, #12]
 800ee5e:	1f2a      	subs	r2, r5, #4
 800ee60:	2a24      	cmp	r2, #36	; 0x24
 800ee62:	60cb      	str	r3, [r1, #12]
 800ee64:	6099      	str	r1, [r3, #8]
 800ee66:	f200 8086 	bhi.w	800ef76 <_realloc_r+0x37e>
 800ee6a:	2a13      	cmp	r2, #19
 800ee6c:	d977      	bls.n	800ef5e <_realloc_r+0x366>
 800ee6e:	6823      	ldr	r3, [r4, #0]
 800ee70:	2a1b      	cmp	r2, #27
 800ee72:	f8ca 3008 	str.w	r3, [sl, #8]
 800ee76:	6863      	ldr	r3, [r4, #4]
 800ee78:	f8ca 300c 	str.w	r3, [sl, #12]
 800ee7c:	f200 8084 	bhi.w	800ef88 <_realloc_r+0x390>
 800ee80:	3408      	adds	r4, #8
 800ee82:	f10a 0310 	add.w	r3, sl, #16
 800ee86:	6822      	ldr	r2, [r4, #0]
 800ee88:	601a      	str	r2, [r3, #0]
 800ee8a:	6862      	ldr	r2, [r4, #4]
 800ee8c:	605a      	str	r2, [r3, #4]
 800ee8e:	68a2      	ldr	r2, [r4, #8]
 800ee90:	609a      	str	r2, [r3, #8]
 800ee92:	ebc6 020c 	rsb	r2, r6, ip
 800ee96:	eb0a 0306 	add.w	r3, sl, r6
 800ee9a:	f042 0201 	orr.w	r2, r2, #1
 800ee9e:	f8cb 3008 	str.w	r3, [fp, #8]
 800eea2:	605a      	str	r2, [r3, #4]
 800eea4:	f8da 3004 	ldr.w	r3, [sl, #4]
 800eea8:	4648      	mov	r0, r9
 800eeaa:	f003 0301 	and.w	r3, r3, #1
 800eeae:	431e      	orrs	r6, r3
 800eeb0:	f8ca 6004 	str.w	r6, [sl, #4]
 800eeb4:	f7fc ff86 	bl	800bdc4 <__malloc_unlock>
 800eeb8:	4638      	mov	r0, r7
 800eeba:	e71b      	b.n	800ecf4 <_realloc_r+0xfc>
 800eebc:	68a3      	ldr	r3, [r4, #8]
 800eebe:	2a24      	cmp	r2, #36	; 0x24
 800eec0:	6083      	str	r3, [r0, #8]
 800eec2:	68e3      	ldr	r3, [r4, #12]
 800eec4:	60c3      	str	r3, [r0, #12]
 800eec6:	d02b      	beq.n	800ef20 <_realloc_r+0x328>
 800eec8:	f100 0310 	add.w	r3, r0, #16
 800eecc:	f104 0210 	add.w	r2, r4, #16
 800eed0:	e74a      	b.n	800ed68 <_realloc_r+0x170>
 800eed2:	f850 2c04 	ldr.w	r2, [r0, #-4]
 800eed6:	46a0      	mov	r8, r4
 800eed8:	f022 0203 	bic.w	r2, r2, #3
 800eedc:	4415      	add	r5, r2
 800eede:	e6f9      	b.n	800ecd4 <_realloc_r+0xdc>
 800eee0:	4621      	mov	r1, r4
 800eee2:	4640      	mov	r0, r8
 800eee4:	4675      	mov	r5, lr
 800eee6:	4657      	mov	r7, sl
 800eee8:	f7ff fdd6 	bl	800ea98 <memmove>
 800eeec:	f8da 3004 	ldr.w	r3, [sl, #4]
 800eef0:	e6f0      	b.n	800ecd4 <_realloc_r+0xdc>
 800eef2:	4642      	mov	r2, r8
 800eef4:	e76e      	b.n	800edd4 <_realloc_r+0x1dc>
 800eef6:	4621      	mov	r1, r4
 800eef8:	4640      	mov	r0, r8
 800eefa:	461d      	mov	r5, r3
 800eefc:	4657      	mov	r7, sl
 800eefe:	f7ff fdcb 	bl	800ea98 <memmove>
 800ef02:	f8da 3004 	ldr.w	r3, [sl, #4]
 800ef06:	e6e5      	b.n	800ecd4 <_realloc_r+0xdc>
 800ef08:	68a3      	ldr	r3, [r4, #8]
 800ef0a:	2a24      	cmp	r2, #36	; 0x24
 800ef0c:	f8ca 3010 	str.w	r3, [sl, #16]
 800ef10:	68e3      	ldr	r3, [r4, #12]
 800ef12:	f8ca 3014 	str.w	r3, [sl, #20]
 800ef16:	d018      	beq.n	800ef4a <_realloc_r+0x352>
 800ef18:	3410      	adds	r4, #16
 800ef1a:	f10a 0318 	add.w	r3, sl, #24
 800ef1e:	e770      	b.n	800ee02 <_realloc_r+0x20a>
 800ef20:	6922      	ldr	r2, [r4, #16]
 800ef22:	f100 0318 	add.w	r3, r0, #24
 800ef26:	6102      	str	r2, [r0, #16]
 800ef28:	6961      	ldr	r1, [r4, #20]
 800ef2a:	f104 0218 	add.w	r2, r4, #24
 800ef2e:	6141      	str	r1, [r0, #20]
 800ef30:	e71a      	b.n	800ed68 <_realloc_r+0x170>
 800ef32:	68a1      	ldr	r1, [r4, #8]
 800ef34:	2a24      	cmp	r2, #36	; 0x24
 800ef36:	f8ca 1010 	str.w	r1, [sl, #16]
 800ef3a:	68e1      	ldr	r1, [r4, #12]
 800ef3c:	f8ca 1014 	str.w	r1, [sl, #20]
 800ef40:	d00f      	beq.n	800ef62 <_realloc_r+0x36a>
 800ef42:	3410      	adds	r4, #16
 800ef44:	f10a 0218 	add.w	r2, sl, #24
 800ef48:	e744      	b.n	800edd4 <_realloc_r+0x1dc>
 800ef4a:	6922      	ldr	r2, [r4, #16]
 800ef4c:	f10a 0320 	add.w	r3, sl, #32
 800ef50:	f8ca 2018 	str.w	r2, [sl, #24]
 800ef54:	6962      	ldr	r2, [r4, #20]
 800ef56:	3418      	adds	r4, #24
 800ef58:	f8ca 201c 	str.w	r2, [sl, #28]
 800ef5c:	e751      	b.n	800ee02 <_realloc_r+0x20a>
 800ef5e:	463b      	mov	r3, r7
 800ef60:	e791      	b.n	800ee86 <_realloc_r+0x28e>
 800ef62:	6921      	ldr	r1, [r4, #16]
 800ef64:	f10a 0220 	add.w	r2, sl, #32
 800ef68:	f8ca 1018 	str.w	r1, [sl, #24]
 800ef6c:	6961      	ldr	r1, [r4, #20]
 800ef6e:	3418      	adds	r4, #24
 800ef70:	f8ca 101c 	str.w	r1, [sl, #28]
 800ef74:	e72e      	b.n	800edd4 <_realloc_r+0x1dc>
 800ef76:	4621      	mov	r1, r4
 800ef78:	4638      	mov	r0, r7
 800ef7a:	f8cd c004 	str.w	ip, [sp, #4]
 800ef7e:	f7ff fd8b 	bl	800ea98 <memmove>
 800ef82:	f8dd c004 	ldr.w	ip, [sp, #4]
 800ef86:	e784      	b.n	800ee92 <_realloc_r+0x29a>
 800ef88:	68a3      	ldr	r3, [r4, #8]
 800ef8a:	2a24      	cmp	r2, #36	; 0x24
 800ef8c:	f8ca 3010 	str.w	r3, [sl, #16]
 800ef90:	68e3      	ldr	r3, [r4, #12]
 800ef92:	f8ca 3014 	str.w	r3, [sl, #20]
 800ef96:	d003      	beq.n	800efa0 <_realloc_r+0x3a8>
 800ef98:	3410      	adds	r4, #16
 800ef9a:	f10a 0318 	add.w	r3, sl, #24
 800ef9e:	e772      	b.n	800ee86 <_realloc_r+0x28e>
 800efa0:	6922      	ldr	r2, [r4, #16]
 800efa2:	f10a 0320 	add.w	r3, sl, #32
 800efa6:	f8ca 2018 	str.w	r2, [sl, #24]
 800efaa:	6962      	ldr	r2, [r4, #20]
 800efac:	3418      	adds	r4, #24
 800efae:	f8ca 201c 	str.w	r2, [sl, #28]
 800efb2:	e768      	b.n	800ee86 <_realloc_r+0x28e>
 800efb4:	2000056c 	.word	0x2000056c
 800efb8:	706f6f4c 	.word	0x706f6f4c
 800efbc:	3725203a 	.word	0x3725203a
 800efc0:	49202c64 	.word	0x49202c64
 800efc4:	72454332 	.word	0x72454332
 800efc8:	73726f72 	.word	0x73726f72
 800efcc:	6425203a 	.word	0x6425203a
 800efd0:	6e61202c 	.word	0x6e61202c
 800efd4:	73656c67 	.word	0x73656c67
 800efd8:	6f72203a 	.word	0x6f72203a
 800efdc:	25206c6c 	.word	0x25206c6c
 800efe0:	66322e37 	.word	0x66322e37
 800efe4:	6970202c 	.word	0x6970202c
 800efe8:	20686374 	.word	0x20686374
 800efec:	322e3725 	.word	0x322e3725
 800eff0:	79202c66 	.word	0x79202c66
 800eff4:	25207761 	.word	0x25207761
 800eff8:	66322e37 	.word	0x66322e37
 800effc:	00000a0d 	.word	0x00000a0d
 800f000:	20746420 	.word	0x20746420
 800f004:	202c6625 	.word	0x202c6625
 800f008:	44636341 	.word	0x44636341
 800f00c:	3a617461 	.word	0x3a617461
 800f010:	2e382520 	.word	0x2e382520
 800f014:	7c206633 	.word	0x7c206633
 800f018:	2e382520 	.word	0x2e382520
 800f01c:	7c206633 	.word	0x7c206633
 800f020:	2e382520 	.word	0x2e382520
 800f024:	202c6633 	.word	0x202c6633
 800f028:	6f727947 	.word	0x6f727947
 800f02c:	61746144 	.word	0x61746144
 800f030:	2e372520 	.word	0x2e372520
 800f034:	7c206633 	.word	0x7c206633
 800f038:	2e372520 	.word	0x2e372520
 800f03c:	7c206633 	.word	0x7c206633
 800f040:	2e372520 	.word	0x2e372520
 800f044:	0d206633 	.word	0x0d206633
 800f048:	0000000a 	.word	0x0000000a
 800f04c:	656c6469 	.word	0x656c6469
 800f050:	3525203a 	.word	0x3525203a
 800f054:	2566322e 	.word	0x2566322e
 800f058:	74202c25 	.word	0x74202c25
 800f05c:	5b656d69 	.word	0x5b656d69
 800f060:	5d73b5c2 	.word	0x5d73b5c2
 800f064:	7461203a 	.word	0x7461203a
 800f068:	75746974 	.word	0x75746974
 800f06c:	65206564 	.word	0x65206564
 800f070:	202e7473 	.word	0x202e7473
 800f074:	2c643425 	.word	0x2c643425
 800f078:	554d4920 	.word	0x554d4920
 800f07c:	63636120 	.word	0x63636120
 800f080:	64342520 	.word	0x64342520
 800f084:	7967202c 	.word	0x7967202c
 800f088:	25206f72 	.word	0x25206f72
 800f08c:	202c6434 	.word	0x202c6434
 800f090:	6c676e61 	.word	0x6c676e61
 800f094:	34252065 	.word	0x34252065
 800f098:	63202c64 	.word	0x63202c64
 800f09c:	20636c61 	.word	0x20636c61
 800f0a0:	2c643425 	.word	0x2c643425
 800f0a4:	44495020 	.word	0x44495020
 800f0a8:	64342520 	.word	0x64342520
 800f0ac:	00000a0d 	.word	0x00000a0d
 800f0b0:	32435220 	.word	0x32435220
 800f0b4:	3a677661 	.word	0x3a677661
 800f0b8:	2e372520 	.word	0x2e372520
 800f0bc:	7c206632 	.word	0x7c206632
 800f0c0:	43522020 	.word	0x43522020
 800f0c4:	67766133 	.word	0x67766133
 800f0c8:	3725203a 	.word	0x3725203a
 800f0cc:	2066322e 	.word	0x2066322e
 800f0d0:	5220207c 	.word	0x5220207c
 800f0d4:	76613443 	.word	0x76613443
 800f0d8:	25203a67 	.word	0x25203a67
 800f0dc:	66322e37 	.word	0x66322e37
 800f0e0:	52207c20 	.word	0x52207c20
 800f0e4:	70657453 	.word	0x70657453
 800f0e8:	2e37253a 	.word	0x2e37253a
 800f0ec:	20206633 	.word	0x20206633
 800f0f0:	65745350 	.word	0x65745350
 800f0f4:	25203a70 	.word	0x25203a70
 800f0f8:	66332e37 	.word	0x66332e37
 800f0fc:	53592020 	.word	0x53592020
 800f100:	3a706574 	.word	0x3a706574
 800f104:	2e372520 	.word	0x2e372520
 800f108:	0a0d6633 	.word	0x0a0d6633
 800f10c:	00000000 	.word	0x00000000
 800f110:	6c6c6f52 	.word	0x6c6c6f52
 800f114:	7465735f 	.word	0x7465735f
 800f118:	6e696f70 	.word	0x6e696f70
 800f11c:	31253a74 	.word	0x31253a74
 800f120:	66342e32 	.word	0x66342e32
 800f124:	50207c20 	.word	0x50207c20
 800f128:	68637469 	.word	0x68637469
 800f12c:	7465735f 	.word	0x7465735f
 800f130:	6e696f70 	.word	0x6e696f70
 800f134:	31253a74 	.word	0x31253a74
 800f138:	66342e32 	.word	0x66342e32
 800f13c:	59207c20 	.word	0x59207c20
 800f140:	735f7761 	.word	0x735f7761
 800f144:	6f707465 	.word	0x6f707465
 800f148:	3a746e69 	.word	0x3a746e69
 800f14c:	2e323125 	.word	0x2e323125
 800f150:	0a0d6634 	.word	0x0a0d6634
 800f154:	00000000 	.word	0x00000000
 800f158:	6e756f43 	.word	0x6e756f43
 800f15c:	20726574 	.word	0x20726574
 800f160:	206e696d 	.word	0x206e696d
 800f164:	2c643325 	.word	0x2c643325
 800f168:	64332520 	.word	0x64332520
 800f16c:	3325202c 	.word	0x3325202c
 800f170:	20202c64 	.word	0x20202c64
 800f174:	2078616d 	.word	0x2078616d
 800f178:	2c643425 	.word	0x2c643425
 800f17c:	64342520 	.word	0x64342520
 800f180:	3425202c 	.word	0x3425202c
 800f184:	63202c64 	.word	0x63202c64
 800f188:	746e756f 	.word	0x746e756f
 800f18c:	64332520 	.word	0x64332520
 800f190:	3325202c 	.word	0x3325202c
 800f194:	25202c64 	.word	0x25202c64
 800f198:	202c6433 	.word	0x202c6433
 800f19c:	4f627375 	.word	0x4f627375
 800f1a0:	72726576 	.word	0x72726576
 800f1a4:	25206e75 	.word	0x25206e75
 800f1a8:	0a0d6434 	.word	0x0a0d6434
 800f1ac:	00000000 	.word	0x00000000
 800f1b0:	63746950 	.word	0x63746950
 800f1b4:	756f5f68 	.word	0x756f5f68
 800f1b8:	74757074 	.word	0x74757074
 800f1bc:	2e33253a 	.word	0x2e33253a
 800f1c0:	7c206632 	.word	0x7c206632
 800f1c4:	6c6f5220 	.word	0x6c6f5220
 800f1c8:	756f5f6c 	.word	0x756f5f6c
 800f1cc:	74757074 	.word	0x74757074
 800f1d0:	2e33253a 	.word	0x2e33253a
 800f1d4:	7c206632 	.word	0x7c206632
 800f1d8:	77615920 	.word	0x77615920
 800f1dc:	74756f5f 	.word	0x74756f5f
 800f1e0:	3a747570 	.word	0x3a747570
 800f1e4:	322e3325 	.word	0x322e3325
 800f1e8:	207c2066 	.word	0x207c2066
 800f1ec:	746e6563 	.word	0x746e6563
 800f1f0:	6f707265 	.word	0x6f707265
 800f1f4:	3a746e69 	.word	0x3a746e69
 800f1f8:	342e3425 	.word	0x342e3425
 800f1fc:	000d0a66 	.word	0x000d0a66
 800f200:	494b414c 	.word	0x494b414c
 800f204:	705f5554 	.word	0x705f5554
 800f208:	68637469 	.word	0x68637469
 800f20c:	2e33253a 	.word	0x2e33253a
 800f210:	7c206632 	.word	0x7c206632
 800f214:	4b414c20 	.word	0x4b414c20
 800f218:	5f555449 	.word	0x5f555449
 800f21c:	6c6c6f72 	.word	0x6c6c6f72
 800f220:	2e33253a 	.word	0x2e33253a
 800f224:	7c206632 	.word	0x7c206632
 800f228:	4b414c20 	.word	0x4b414c20
 800f22c:	5f555449 	.word	0x5f555449
 800f230:	3a776179 	.word	0x3a776179
 800f234:	322e3325 	.word	0x322e3325
 800f238:	000d0a66 	.word	0x000d0a66
 800f23c:	74697865 	.word	0x74697865
 800f240:	00000000 	.word	0x00000000
 800f244:	70616548 	.word	0x70616548
 800f248:	646e6120 	.word	0x646e6120
 800f24c:	61747320 	.word	0x61747320
 800f250:	63206b63 	.word	0x63206b63
 800f254:	696c6c6f 	.word	0x696c6c6f
 800f258:	6e6f6973 	.word	0x6e6f6973
 800f25c:	0000000a 	.word	0x0000000a
 800f260:	75746573 	.word	0x75746573
 800f264:	53552070 	.word	0x53552070
 800f268:	2e2e2e42 	.word	0x2e2e2e42
 800f26c:	00000a0d 	.word	0x00000a0d
 800f270:	75746573 	.word	0x75746573
 800f274:	53552070 	.word	0x53552070
 800f278:	6f642042 	.word	0x6f642042
 800f27c:	0a0d656e 	.word	0x0a0d656e
 800f280:	00000000 	.word	0x00000000
 800f284:	4c0d0a0d 	.word	0x4c0d0a0d
 800f288:	54494b41 	.word	0x54494b41
 800f28c:	65722055 	.word	0x65722055
 800f290:	69736976 	.word	0x69736976
 800f294:	45206e6f 	.word	0x45206e6f
 800f298:	43477676 	.word	0x43477676
 800f29c:	72696620 	.word	0x72696620
 800f2a0:	7261776d 	.word	0x7261776d
 800f2a4:	305f2065 	.word	0x305f2065
 800f2a8:	7320302e 	.word	0x7320302e
 800f2ac:	74726174 	.word	0x74726174
 800f2b0:	20676e69 	.word	0x20676e69
 800f2b4:	2e2e7075 	.word	0x2e2e7075
 800f2b8:	000a0d2e 	.word	0x000a0d2e
 800f2bc:	74696e69 	.word	0x74696e69
 800f2c0:	746f6d20 	.word	0x746f6d20
 800f2c4:	5020726f 	.word	0x5020726f
 800f2c8:	2e2e4d57 	.word	0x2e2e4d57
 800f2cc:	000a0d2e 	.word	0x000a0d2e
 800f2d0:	53550a0d 	.word	0x53550a0d
 800f2d4:	74732042 	.word	0x74732042
 800f2d8:	75747261 	.word	0x75747261
 800f2dc:	65642070 	.word	0x65642070
 800f2e0:	2e79616c 	.word	0x2e79616c
 800f2e4:	0a0d2e2e 	.word	0x0a0d2e2e
 800f2e8:	00000000 	.word	0x00000000
 800f2ec:	0a0d0a0d 	.word	0x0a0d0a0d
 800f2f0:	47767645 	.word	0x47767645
 800f2f4:	69662043 	.word	0x69662043
 800f2f8:	61776d72 	.word	0x61776d72
 800f2fc:	73206572 	.word	0x73206572
 800f300:	74726174 	.word	0x74726174
 800f304:	20676e69 	.word	0x20676e69
 800f308:	202c7075 	.word	0x202c7075
 800f30c:	20425355 	.word	0x20425355
 800f310:	6e6e6f63 	.word	0x6e6e6f63
 800f314:	65746365 	.word	0x65746365
 800f318:	2e2e2e64 	.word	0x2e2e2e64
 800f31c:	00000a0d 	.word	0x00000a0d
 800f320:	65440a0d 	.word	0x65440a0d
 800f324:	6979616c 	.word	0x6979616c
 800f328:	6620676e 	.word	0x6620676e
 800f32c:	7520726f 	.word	0x7520726f
 800f330:	732f6273 	.word	0x732f6273
 800f334:	61697265 	.word	0x61697265
 800f338:	7264206c 	.word	0x7264206c
 800f33c:	72657669 	.word	0x72657669
 800f340:	206f7420 	.word	0x206f7420
 800f344:	74746573 	.word	0x74746573
 800f348:	0a0d656c 	.word	0x0a0d656c
 800f34c:	00000000 	.word	0x00000000
 800f350:	0a0d0a0d 	.word	0x0a0d0a0d
 800f354:	47767645 	.word	0x47767645
 800f358:	69662043 	.word	0x69662043
 800f35c:	61776d72 	.word	0x61776d72
 800f360:	73206572 	.word	0x73206572
 800f364:	74726174 	.word	0x74726174
 800f368:	20676e69 	.word	0x20676e69
 800f36c:	202c7075 	.word	0x202c7075
 800f370:	69726573 	.word	0x69726573
 800f374:	61206c61 	.word	0x61206c61
 800f378:	76697463 	.word	0x76697463
 800f37c:	2e2e2e65 	.word	0x2e2e2e65
 800f380:	00000a0d 	.word	0x00000a0d
 800f384:	20636367 	.word	0x20636367
 800f388:	73726576 	.word	0x73726576
 800f38c:	206e6f69 	.word	0x206e6f69
 800f390:	2e382e34 	.word	0x2e382e34
 800f394:	30322034 	.word	0x30322034
 800f398:	35303431 	.word	0x35303431
 800f39c:	28203632 	.word	0x28203632
 800f3a0:	656c6572 	.word	0x656c6572
 800f3a4:	29657361 	.word	0x29657361
 800f3a8:	52415b20 	.word	0x52415b20
 800f3ac:	6d652f4d 	.word	0x6d652f4d
 800f3b0:	64646562 	.word	0x64646562
 800f3b4:	342d6465 	.word	0x342d6465
 800f3b8:	622d385f 	.word	0x622d385f
 800f3bc:	636e6172 	.word	0x636e6172
 800f3c0:	65722068 	.word	0x65722068
 800f3c4:	69736976 	.word	0x69736976
 800f3c8:	32206e6f 	.word	0x32206e6f
 800f3cc:	35333131 	.word	0x35333131
 800f3d0:	0a0d5d38 	.word	0x0a0d5d38
 800f3d4:	00000000 	.word	0x00000000
 800f3d8:	47767645 	.word	0x47767645
 800f3dc:	69662043 	.word	0x69662043
 800f3e0:	61776d72 	.word	0x61776d72
 800f3e4:	56206572 	.word	0x56206572
 800f3e8:	202c7325 	.word	0x202c7325
 800f3ec:	6c697562 	.word	0x6c697562
 800f3f0:	61642064 	.word	0x61642064
 800f3f4:	53206574 	.word	0x53206574
 800f3f8:	32207065 	.word	0x32207065
 800f3fc:	30322034 	.word	0x30322034
 800f400:	31203431 	.word	0x31203431
 800f404:	34333a34 	.word	0x34333a34
 800f408:	2039353a 	.word	0x2039353a
 800f40c:	00000a0d 	.word	0x00000a0d
 800f410:	2e342e30 	.word	0x2e342e30
 800f414:	00322e35 	.word	0x00322e35
 800f418:	6e6e7572 	.word	0x6e6e7572
 800f41c:	20676e69 	.word	0x20676e69
 800f420:	65206e6f 	.word	0x65206e6f
 800f424:	72657478 	.word	0x72657478
 800f428:	206c616e 	.word	0x206c616e
 800f42c:	20455348 	.word	0x20455348
 800f430:	636f6c63 	.word	0x636f6c63
 800f434:	63202c6b 	.word	0x63202c6b
 800f438:	6b636f6c 	.word	0x6b636f6c
 800f43c:	74617220 	.word	0x74617220
 800f440:	73692065 	.word	0x73692065
 800f444:	4d642520 	.word	0x4d642520
 800f448:	0a0d7a48 	.word	0x0a0d7a48
 800f44c:	00000000 	.word	0x00000000
 800f450:	4f525245 	.word	0x4f525245
 800f454:	72203a52 	.word	0x72203a52
 800f458:	696e6e75 	.word	0x696e6e75
 800f45c:	6f20676e 	.word	0x6f20676e
 800f460:	6e69206e 	.word	0x6e69206e
 800f464:	6e726574 	.word	0x6e726574
 800f468:	48206c61 	.word	0x48206c61
 800f46c:	63204953 	.word	0x63204953
 800f470:	6b636f6c 	.word	0x6b636f6c
 800f474:	6c63202c 	.word	0x6c63202c
 800f478:	206b636f 	.word	0x206b636f
 800f47c:	65746172 	.word	0x65746172
 800f480:	20736920 	.word	0x20736920
 800f484:	484d6425 	.word	0x484d6425
 800f488:	000a0d7a 	.word	0x000a0d7a
 800f48c:	74696e69 	.word	0x74696e69
 800f490:	43444120 	.word	0x43444120
 800f494:	0d2e2e2e 	.word	0x0d2e2e2e
 800f498:	0000000a 	.word	0x0000000a
 800f49c:	74696e69 	.word	0x74696e69
 800f4a0:	55504d20 	.word	0x55504d20
 800f4a4:	30353036 	.word	0x30353036
 800f4a8:	0d2e2e2e 	.word	0x0d2e2e2e
 800f4ac:	0000000a 	.word	0x0000000a
 800f4b0:	74696e69 	.word	0x74696e69
 800f4b4:	55504d20 	.word	0x55504d20
 800f4b8:	30353036 	.word	0x30353036
 800f4bc:	69616620 	.word	0x69616620
 800f4c0:	2c64656c 	.word	0x2c64656c
 800f4c4:	74657220 	.word	0x74657220
 800f4c8:	73656972 	.word	0x73656972
 800f4cc:	66656c20 	.word	0x66656c20
 800f4d0:	25203a74 	.word	0x25203a74
 800f4d4:	2e2e2e64 	.word	0x2e2e2e64
 800f4d8:	00000a0d 	.word	0x00000a0d
 800f4dc:	64616f6c 	.word	0x64616f6c
 800f4e0:	20676e69 	.word	0x20676e69
 800f4e4:	666e6f63 	.word	0x666e6f63
 800f4e8:	2e2e6769 	.word	0x2e2e6769
 800f4ec:	000a0d2e 	.word	0x000a0d2e
 800f4f0:	73756170 	.word	0x73756170
 800f4f4:	20676e69 	.word	0x20676e69
 800f4f8:	20726f66 	.word	0x20726f66
 800f4fc:	20656874 	.word	0x20656874
 800f500:	626d6967 	.word	0x626d6967
 800f504:	74206c61 	.word	0x74206c61
 800f508:	6573206f 	.word	0x6573206f
 800f50c:	656c7474 	.word	0x656c7474
 800f510:	0d2e2e2e 	.word	0x0d2e2e2e
 800f514:	0000000a 	.word	0x0000000a
 800f518:	696c6163 	.word	0x696c6163
 800f51c:	74617262 	.word	0x74617262
 800f520:	20676e69 	.word	0x20676e69
 800f524:	3655504d 	.word	0x3655504d
 800f528:	20303530 	.word	0x20303530
 800f52c:	25207461 	.word	0x25207461
 800f530:	2e736d75 	.word	0x2e736d75
 800f534:	0a0d2e2e 	.word	0x0a0d2e2e
 800f538:	00000000 	.word	0x00000000
 800f53c:	74696e49 	.word	0x74696e49
 800f540:	69724f20 	.word	0x69724f20
 800f544:	61746e65 	.word	0x61746e65
 800f548:	6e6f6974 	.word	0x6e6f6974
 800f54c:	00000d0a 	.word	0x00000d0a
 800f550:	74696e69 	.word	0x74696e69
 800f554:	2e435220 	.word	0x2e435220
 800f558:	0a0d2e2e 	.word	0x0a0d2e2e
 800f55c:	00000000 	.word	0x00000000
 800f560:	6f6d6572 	.word	0x6f6d6572
 800f564:	20646576 	.word	0x20646576
 800f568:	70206425 	.word	0x70206425
 800f56c:	69646e65 	.word	0x69646e65
 800f570:	6320676e 	.word	0x6320676e
 800f574:	61726168 	.word	0x61726168
 800f578:	72657463 	.word	0x72657463
 800f57c:	72662073 	.word	0x72662073
 800f580:	63206d6f 	.word	0x63206d6f
 800f584:	756d6d6f 	.word	0x756d6d6f
 800f588:	6163696e 	.word	0x6163696e
 800f58c:	6e6f6974 	.word	0x6e6f6974
 800f590:	6e692073 	.word	0x6e692073
 800f594:	0d747570 	.word	0x0d747570
 800f598:	0000000a 	.word	0x0000000a
 800f59c:	65746e65 	.word	0x65746e65
 800f5a0:	676e6972 	.word	0x676e6972
 800f5a4:	69616d20 	.word	0x69616d20
 800f5a8:	6f6c206e 	.word	0x6f6c206e
 800f5ac:	2e2e706f 	.word	0x2e2e706f
 800f5b0:	000a0d2e 	.word	0x000a0d2e
 800f5b4:	41570a0d 	.word	0x41570a0d
 800f5b8:	4e494e52 	.word	0x4e494e52
 800f5bc:	4d203a47 	.word	0x4d203a47
 800f5c0:	30365550 	.word	0x30365550
 800f5c4:	69203035 	.word	0x69203035
 800f5c8:	2074696e 	.word	0x2074696e
 800f5cc:	6c696166 	.word	0x6c696166
 800f5d0:	202c6465 	.word	0x202c6465
 800f5d4:	65746e65 	.word	0x65746e65
 800f5d8:	676e6972 	.word	0x676e6972
 800f5dc:	6e6f6320 	.word	0x6e6f6320
 800f5e0:	72676966 	.word	0x72676966
 800f5e4:	6f697461 	.word	0x6f697461
 800f5e8:	6f6d206e 	.word	0x6f6d206e
 800f5ec:	6f206564 	.word	0x6f206564
 800f5f0:	2e796c6e 	.word	0x2e796c6e
 800f5f4:	0a0d2e2e 	.word	0x0a0d2e2e
 800f5f8:	00000a0d 	.word	0x00000a0d

0800f5fc <Virtual_Com_Port_StringVendor>:
 800f5fc:	00530326 004d0054 00630069 006f0072     &.S.T.M.i.c.r.o.
 800f60c:	006c0065 00630065 00720074 006e006f     e.l.e.c.t.r.o.n.
 800f61c:	00630069 00000073                       i.c.s...

0800f624 <Virtual_Com_Port_DeviceDescriptor>:
 800f624:	02000112 40000002 57400483 02010200     .......@..@W....
 800f634:	00000103                                ....

0800f638 <Virtual_Com_Port_StringLangID>:
 800f638:	04090304                                ....

0800f63c <Virtual_Com_Port_StringProduct>:
 800f63c:	00530332 004d0054 00320033 00560020     2.S.T.M.3.2. .V.
 800f64c:	00720069 00750074 006c0061 00430020     i.r.t.u.a.l. .C.
 800f65c:	004d004f 00500020 0072006f 00200074     O.M. .P.o.r.t. .
 800f66c:	00000020                                 ...

0800f670 <Virtual_Com_Port_ConfigDescriptor>:
 800f670:	00430209 c0000102 00040932 02020100     ..C.....2.......
 800f680:	24050001 05011000 01000124 02022404     ...$....$....$..
 800f690:	00062405 82050701 ff000803 00010409     .$..............
 800f6a0:	00000a02 03050700 00004002 02810507     .........@......
 800f6b0:	00000040 74727173 00000066              @...sqrtf...

0800f6bc <npio2_hw>:
 800f6bc:	3fc90f00 40490f00 4096cb00 40c90f00     ...?..I@...@...@
 800f6cc:	40fb5300 4116cb00 412fed00 41490f00     .S.@...A../A..IA
 800f6dc:	41623100 417b5300 418a3a00 4196cb00     .1bA.S{A.:.A...A
 800f6ec:	41a35c00 41afed00 41bc7e00 41c90f00     .\.A...A.~.A...A
 800f6fc:	41d5a000 41e23100 41eec200 41fb5300     ...A.1.A...A.S.A
 800f70c:	4203f200 420a3a00 42108300 4216cb00     ...B.:.B...B...B
 800f71c:	421d1400 42235c00 4229a500 422fed00     ...B.\#B..)B../B
 800f72c:	42363600 423c7e00 4242c700 42490f00     .66B.~<B..BB..IB

0800f73c <two_over_pi>:
 800f73c:	000000a2 000000f9 00000083 0000006e     ............n...
 800f74c:	0000004e 00000044 00000015 00000029     N...D.......)...
 800f75c:	000000fc 00000027 00000057 000000d1     ....'...W.......
 800f76c:	000000f5 00000034 000000dd 000000c0     ....4...........
 800f77c:	000000db 00000062 00000095 00000099     ....b...........
 800f78c:	0000003c 00000043 00000090 00000041     <...C.......A...
 800f79c:	000000fe 00000051 00000063 000000ab     ....Q...c.......
 800f7ac:	000000de 000000bb 000000c5 00000061     ............a...
 800f7bc:	000000b7 00000024 0000006e 0000003a     ....$...n...:...
 800f7cc:	00000042 0000004d 000000d2 000000e0     B...M...........
 800f7dc:	00000006 00000049 0000002e 000000ea     ....I...........
 800f7ec:	00000009 000000d1 00000092 0000001c     ................
 800f7fc:	000000fe 0000001d 000000eb 0000001c     ................
 800f80c:	000000b1 00000029 000000a7 0000003e     ....).......>...
 800f81c:	000000e8 00000082 00000035 000000f5     ........5.......
 800f82c:	0000002e 000000bb 00000044 00000084     ........D.......
 800f83c:	000000e9 0000009c 00000070 00000026     ........p...&...
 800f84c:	000000b4 0000005f 0000007e 00000041     ...._...~...A...
 800f85c:	00000039 00000091 000000d6 00000039     9...........9...
 800f86c:	00000083 00000053 00000039 000000f4     ....S...9.......
 800f87c:	0000009c 00000084 0000005f 0000008b     ........_.......
 800f88c:	000000bd 000000f9 00000028 0000003b     ........(...;...
 800f89c:	0000001f 000000f8 00000097 000000ff     ................
 800f8ac:	000000de 00000005 00000098 0000000f     ................
 800f8bc:	000000ef 0000002f 00000011 0000008b     ..../...........
 800f8cc:	0000005a 0000000a 0000006d 0000001f     Z.......m.......
 800f8dc:	0000006d 00000036 0000007e 000000cf     m...6...~.......
 800f8ec:	00000027 000000cb 00000009 000000b7     '...............
 800f8fc:	0000004f 00000046 0000003f 00000066     O...F...?...f...
 800f90c:	0000009e 0000005f 000000ea 0000002d     ...._.......-...
 800f91c:	00000075 00000027 000000ba 000000c7     u...'...........
 800f92c:	000000eb 000000e5 000000f1 0000007b     ............{...
 800f93c:	0000003d 00000007 00000039 000000f7     =.......9.......
 800f94c:	0000008a 00000052 00000092 000000ea     ....R...........
 800f95c:	0000006b 000000fb 0000005f 000000b1     k......._.......
 800f96c:	0000001f 0000008d 0000005d 00000008     ........].......
 800f97c:	00000056 00000003 00000030 00000046     V.......0...F...
 800f98c:	000000fc 0000007b 0000006b 000000ab     ....{...k.......
 800f99c:	000000f0 000000cf 000000bc 00000020     ............ ...
 800f9ac:	0000009a 000000f4 00000036 0000001d     ........6.......
 800f9bc:	000000a9 000000e3 00000091 00000061     ............a...
 800f9cc:	0000005e 000000e6 0000001b 00000008     ^...............
 800f9dc:	00000065 00000099 00000085 0000005f     e..........._...
 800f9ec:	00000014 000000a0 00000068 00000040     ........h...@...
 800f9fc:	0000008d 000000ff 000000d8 00000080     ................
 800fa0c:	0000004d 00000073 00000027 00000031     M...s...'...1...
 800fa1c:	00000006 00000006 00000015 00000056     ............V...
 800fa2c:	000000ca 00000073 000000a8 000000c9     ....s...........
 800fa3c:	00000060 000000e2 0000007b 000000c0     `.......{.......
 800fa4c:	0000008c 0000006b                       ....k...

0800fa54 <init_jk>:
 800fa54:	00000004 00000007 00000009              ............

0800fa60 <PIo2>:
 800fa60:	3fc90000 39f00000 37da0000 33a20000     ...?...9...7...3
 800fa70:	2e840000 2b500000 27c20000 22d00000     ......P+...'..."
 800fa80:	1fc40000 1bc60000 17440000              ..........D.

0800fa8c <atanlo>:
 800fa8c:	31ac3769 33222168 33140fb4 33a22168     i7.1h!"3...3h!.3

0800fa9c <atanhi>:
 800fa9c:	3eed6338 3f490fda 3f7b985e 3fc90fda     8c.>..I?^.{?...?
 800faac:	00000043                                C...

0800fab0 <zeroes.6763>:
 800fab0:	30303030 30303030 30303030 30303030     0000000000000000
 800fac0:	00464e49 00666e69 004e414e 006e616e     INF.inf.NAN.nan.
 800fad0:	33323130 37363534 42413938 46454443     0123456789ABCDEF
 800fae0:	00000000 33323130 37363534 62613938     ....0123456789ab
 800faf0:	66656463 00000000 6c756e28 0000296c     cdef....(null)..
 800fb00:	00000030                                0...

0800fb04 <blanks.6762>:
 800fb04:	20202020 20202020 20202020 20202020                     
 800fb14:	69666e49 7974696e 00000000 004e614e     Infinity....NaN.
 800fb24:	49534f50 00000058 0000002e              POSIX.......

0800fb30 <__mprec_tens>:
 800fb30:	00000000 3ff00000 00000000 40240000     .......?......$@
 800fb40:	00000000 40590000 00000000 408f4000     ......Y@.....@.@
 800fb50:	00000000 40c38800 00000000 40f86a00     .......@.....j.@
 800fb60:	00000000 412e8480 00000000 416312d0     .......A......cA
 800fb70:	00000000 4197d784 00000000 41cdcd65     .......A....e..A
 800fb80:	20000000 4202a05f e8000000 42374876     ... _..B....vH7B
 800fb90:	a2000000 426d1a94 e5400000 42a2309c     ......mB..@..0.B
 800fba0:	1e900000 42d6bcc4 26340000 430c6bf5     .......B..4&.k.C
 800fbb0:	37e08000 4341c379 85d8a000 43763457     ...7y.AC....W4vC
 800fbc0:	674ec800 43abc16d 60913d00 43e158e4     ..Ngm..C.=.`.X.C
 800fbd0:	78b58c40 4415af1d d6e2ef50 444b1ae4     @..x...DP.....KD
 800fbe0:	064dd592 4480f0cf c7e14af6 44b52d02     ..M....D.J...-.D
 800fbf0:	79d99db4 44ea7843                       ...yCx.D

0800fbf8 <__mprec_bigtens>:
 800fbf8:	37e08000 4341c379 b5056e17 4693b8b5     ...7y.AC.n.....F
 800fc08:	e93ff9f5 4d384f03 f9301d32 5a827748     ..?..O8M2.0.Hw.Z
 800fc18:	7f73bf3c 75154fdd                       <.s..O.u

0800fc20 <p05.5269>:
 800fc20:	00000005 00000019 0000007d              ........}...
